
Optional file libmchp_peripheral.a not found

Optional file libmchp_peripheral_32MX795F512H.a not found
Archive member included because of file (symbol)

c:/program files (x86)/microchip/xc32/v1.43/bin/bin/../../lib/gcc/pic32mx/4.8.3\libgcc.a(_udivdi3.o)
                              build/default/debug/_ext/1482654414/sys_tmr.o (__udivdi3)
c:/program files (x86)/microchip/xc32/v1.43/bin/bin/../../lib/gcc/pic32mx/4.8.3/../../../../pic32mx/lib\libpic32.a(memcmp.o)
                              build/default/debug/_ext/1749672254/drv_ethmac.o (memcmp)
c:/program files (x86)/microchip/xc32/v1.43/bin/bin/../../lib/gcc/pic32mx/4.8.3/../../../../pic32mx/lib\libpic32.a(memcpy.o)
                              build/default/debug/_ext/1836803193/ipv4.o (memcpy)
c:/program files (x86)/microchip/xc32/v1.43/bin/bin/../../lib/gcc/pic32mx/4.8.3/../../../../pic32mx/lib\libpic32.a(memset.o)
                              build/default/debug/_ext/1360937237/app.o (memset)
c:/program files (x86)/microchip/xc32/v1.43/bin/bin/../../lib/gcc/pic32mx/4.8.3/../../../../pic32mx/lib\libpic32.a(strcmp.o)
                              build/default/debug/_ext/1167192164/sys_command.o (strcmp)
c:/program files (x86)/microchip/xc32/v1.43/bin/bin/../../lib/gcc/pic32mx/4.8.3/../../../../pic32mx/lib\libpic32.a(strcpy.o)
                              build/default/debug/_ext/1167192164/sys_command.o (strcpy)
c:/program files (x86)/microchip/xc32/v1.43/bin/bin/../../lib/gcc/pic32mx/4.8.3/../../../../pic32mx/lib\libpic32.a(strlen.o)
                              build/default/debug/_ext/1360937237/app.o (strlen)
c:/program files (x86)/microchip/xc32/v1.43/bin/bin/../../lib/gcc/pic32mx/4.8.3/../../../../pic32mx/lib\libpic32.a(default-bootstrap-exception-handler.o)
                              c:/program files (x86)/microchip/xc32/v1.43/bin/bin/../../lib/gcc/pic32mx/4.8.3/../../../../pic32mx/lib/./proc/32MX795F512H/crt0_mips32r2.o (_bootstrap_exception_handler)
c:/program files (x86)/microchip/xc32/v1.43/bin/bin/../../lib/gcc/pic32mx/4.8.3/../../../../pic32mx/lib\libpic32.a(default-on-reset.o)
                              c:/program files (x86)/microchip/xc32/v1.43/bin/bin/../../lib/gcc/pic32mx/4.8.3/../../../../pic32mx/lib/./proc/32MX795F512H/crt0_mips32r2.o (_on_reset)
c:/program files (x86)/microchip/xc32/v1.43/bin/bin/../../lib/gcc/pic32mx/4.8.3/../../../../pic32mx/lib\libpic32.a(default-on-bootstrap.o)
                              c:/program files (x86)/microchip/xc32/v1.43/bin/bin/../../lib/gcc/pic32mx/4.8.3/../../../../pic32mx/lib/./proc/32MX795F512H/crt0_mips32r2.o (_on_bootstrap)
c:/program files (x86)/microchip/xc32/v1.43/bin/bin/../../lib/gcc/pic32mx/4.8.3/../../../../pic32mx/lib\libpic32.a(default-nmi-handler.o)
                              c:/program files (x86)/microchip/xc32/v1.43/bin/bin/../../lib/gcc/pic32mx/4.8.3/../../../../pic32mx/lib/./proc/32MX795F512H/crt0_mips32r2.o (_nmi_handler)
c:/program files (x86)/microchip/xc32/v1.43/bin/bin/../../lib/gcc/pic32mx/4.8.3/../../../../pic32mx/lib\libpic32.a(general-exception.o)
                              c:/program files (x86)/microchip/xc32/v1.43/bin/bin/../../lib/gcc/pic32mx/4.8.3/../../../../pic32mx/lib/./proc/32MX795F512H/crt0_mips32r2.o (_general_exception_context)
c:/program files (x86)/microchip/xc32/v1.43/bin/bin/../../lib/gcc/pic32mx/4.8.3/../../../../pic32mx/lib\libpic32.a(vector0.o)
                              c:/program files (x86)/microchip/xc32/v1.43/bin/bin/../../lib/gcc/pic32mx/4.8.3/../../../../pic32mx/lib/./proc/32MX795F512H\default_isr_vectors.o (__vector_dispatch_0)
c:/program files (x86)/microchip/xc32/v1.43/bin/bin/../../lib/gcc/pic32mx/4.8.3/../../../../pic32mx/lib\libpic32.a(vector1.o)
                              c:/program files (x86)/microchip/xc32/v1.43/bin/bin/../../lib/gcc/pic32mx/4.8.3/../../../../pic32mx/lib/./proc/32MX795F512H\default_isr_vectors.o (__vector_dispatch_1)
c:/program files (x86)/microchip/xc32/v1.43/bin/bin/../../lib/gcc/pic32mx/4.8.3/../../../../pic32mx/lib\libpic32.a(vector2.o)
                              c:/program files (x86)/microchip/xc32/v1.43/bin/bin/../../lib/gcc/pic32mx/4.8.3/../../../../pic32mx/lib/./proc/32MX795F512H\default_isr_vectors.o (__vector_dispatch_2)
c:/program files (x86)/microchip/xc32/v1.43/bin/bin/../../lib/gcc/pic32mx/4.8.3/../../../../pic32mx/lib\libpic32.a(vector3.o)
                              c:/program files (x86)/microchip/xc32/v1.43/bin/bin/../../lib/gcc/pic32mx/4.8.3/../../../../pic32mx/lib/./proc/32MX795F512H\default_isr_vectors.o (__vector_dispatch_3)
c:/program files (x86)/microchip/xc32/v1.43/bin/bin/../../lib/gcc/pic32mx/4.8.3/../../../../pic32mx/lib\libpic32.a(vector5.o)
                              c:/program files (x86)/microchip/xc32/v1.43/bin/bin/../../lib/gcc/pic32mx/4.8.3/../../../../pic32mx/lib/./proc/32MX795F512H\default_isr_vectors.o (__vector_dispatch_5)
c:/program files (x86)/microchip/xc32/v1.43/bin/bin/../../lib/gcc/pic32mx/4.8.3/../../../../pic32mx/lib\libpic32.a(vector6.o)
                              c:/program files (x86)/microchip/xc32/v1.43/bin/bin/../../lib/gcc/pic32mx/4.8.3/../../../../pic32mx/lib/./proc/32MX795F512H\default_isr_vectors.o (__vector_dispatch_6)
c:/program files (x86)/microchip/xc32/v1.43/bin/bin/../../lib/gcc/pic32mx/4.8.3/../../../../pic32mx/lib\libpic32.a(vector7.o)
                              c:/program files (x86)/microchip/xc32/v1.43/bin/bin/../../lib/gcc/pic32mx/4.8.3/../../../../pic32mx/lib/./proc/32MX795F512H\default_isr_vectors.o (__vector_dispatch_7)
c:/program files (x86)/microchip/xc32/v1.43/bin/bin/../../lib/gcc/pic32mx/4.8.3/../../../../pic32mx/lib\libpic32.a(vector8.o)
                              c:/program files (x86)/microchip/xc32/v1.43/bin/bin/../../lib/gcc/pic32mx/4.8.3/../../../../pic32mx/lib/./proc/32MX795F512H\default_isr_vectors.o (__vector_dispatch_8)
c:/program files (x86)/microchip/xc32/v1.43/bin/bin/../../lib/gcc/pic32mx/4.8.3/../../../../pic32mx/lib\libpic32.a(vector9.o)
                              c:/program files (x86)/microchip/xc32/v1.43/bin/bin/../../lib/gcc/pic32mx/4.8.3/../../../../pic32mx/lib/./proc/32MX795F512H\default_isr_vectors.o (__vector_dispatch_9)
c:/program files (x86)/microchip/xc32/v1.43/bin/bin/../../lib/gcc/pic32mx/4.8.3/../../../../pic32mx/lib\libpic32.a(vector10.o)
                              c:/program files (x86)/microchip/xc32/v1.43/bin/bin/../../lib/gcc/pic32mx/4.8.3/../../../../pic32mx/lib/./proc/32MX795F512H\default_isr_vectors.o (__vector_dispatch_10)
c:/program files (x86)/microchip/xc32/v1.43/bin/bin/../../lib/gcc/pic32mx/4.8.3/../../../../pic32mx/lib\libpic32.a(vector11.o)
                              c:/program files (x86)/microchip/xc32/v1.43/bin/bin/../../lib/gcc/pic32mx/4.8.3/../../../../pic32mx/lib/./proc/32MX795F512H\default_isr_vectors.o (__vector_dispatch_11)
c:/program files (x86)/microchip/xc32/v1.43/bin/bin/../../lib/gcc/pic32mx/4.8.3/../../../../pic32mx/lib\libpic32.a(vector12.o)
                              c:/program files (x86)/microchip/xc32/v1.43/bin/bin/../../lib/gcc/pic32mx/4.8.3/../../../../pic32mx/lib/./proc/32MX795F512H\default_isr_vectors.o (__vector_dispatch_12)
c:/program files (x86)/microchip/xc32/v1.43/bin/bin/../../lib/gcc/pic32mx/4.8.3/../../../../pic32mx/lib\libpic32.a(vector13.o)
                              c:/program files (x86)/microchip/xc32/v1.43/bin/bin/../../lib/gcc/pic32mx/4.8.3/../../../../pic32mx/lib/./proc/32MX795F512H\default_isr_vectors.o (__vector_dispatch_13)
c:/program files (x86)/microchip/xc32/v1.43/bin/bin/../../lib/gcc/pic32mx/4.8.3/../../../../pic32mx/lib\libpic32.a(vector14.o)
                              c:/program files (x86)/microchip/xc32/v1.43/bin/bin/../../lib/gcc/pic32mx/4.8.3/../../../../pic32mx/lib/./proc/32MX795F512H\default_isr_vectors.o (__vector_dispatch_14)
c:/program files (x86)/microchip/xc32/v1.43/bin/bin/../../lib/gcc/pic32mx/4.8.3/../../../../pic32mx/lib\libpic32.a(vector15.o)
                              c:/program files (x86)/microchip/xc32/v1.43/bin/bin/../../lib/gcc/pic32mx/4.8.3/../../../../pic32mx/lib/./proc/32MX795F512H\default_isr_vectors.o (__vector_dispatch_15)
c:/program files (x86)/microchip/xc32/v1.43/bin/bin/../../lib/gcc/pic32mx/4.8.3/../../../../pic32mx/lib\libpic32.a(vector16.o)
                              c:/program files (x86)/microchip/xc32/v1.43/bin/bin/../../lib/gcc/pic32mx/4.8.3/../../../../pic32mx/lib/./proc/32MX795F512H\default_isr_vectors.o (__vector_dispatch_16)
c:/program files (x86)/microchip/xc32/v1.43/bin/bin/../../lib/gcc/pic32mx/4.8.3/../../../../pic32mx/lib\libpic32.a(vector17.o)
                              c:/program files (x86)/microchip/xc32/v1.43/bin/bin/../../lib/gcc/pic32mx/4.8.3/../../../../pic32mx/lib/./proc/32MX795F512H\default_isr_vectors.o (__vector_dispatch_17)
c:/program files (x86)/microchip/xc32/v1.43/bin/bin/../../lib/gcc/pic32mx/4.8.3/../../../../pic32mx/lib\libpic32.a(vector18.o)
                              c:/program files (x86)/microchip/xc32/v1.43/bin/bin/../../lib/gcc/pic32mx/4.8.3/../../../../pic32mx/lib/./proc/32MX795F512H\default_isr_vectors.o (__vector_dispatch_18)
c:/program files (x86)/microchip/xc32/v1.43/bin/bin/../../lib/gcc/pic32mx/4.8.3/../../../../pic32mx/lib\libpic32.a(vector19.o)
                              c:/program files (x86)/microchip/xc32/v1.43/bin/bin/../../lib/gcc/pic32mx/4.8.3/../../../../pic32mx/lib/./proc/32MX795F512H\default_isr_vectors.o (__vector_dispatch_19)
c:/program files (x86)/microchip/xc32/v1.43/bin/bin/../../lib/gcc/pic32mx/4.8.3/../../../../pic32mx/lib\libpic32.a(vector20.o)
                              c:/program files (x86)/microchip/xc32/v1.43/bin/bin/../../lib/gcc/pic32mx/4.8.3/../../../../pic32mx/lib/./proc/32MX795F512H\default_isr_vectors.o (__vector_dispatch_20)
c:/program files (x86)/microchip/xc32/v1.43/bin/bin/../../lib/gcc/pic32mx/4.8.3/../../../../pic32mx/lib\libpic32.a(vector21.o)
                              c:/program files (x86)/microchip/xc32/v1.43/bin/bin/../../lib/gcc/pic32mx/4.8.3/../../../../pic32mx/lib/./proc/32MX795F512H\default_isr_vectors.o (__vector_dispatch_21)
c:/program files (x86)/microchip/xc32/v1.43/bin/bin/../../lib/gcc/pic32mx/4.8.3/../../../../pic32mx/lib\libpic32.a(vector22.o)
                              c:/program files (x86)/microchip/xc32/v1.43/bin/bin/../../lib/gcc/pic32mx/4.8.3/../../../../pic32mx/lib/./proc/32MX795F512H\default_isr_vectors.o (__vector_dispatch_22)
c:/program files (x86)/microchip/xc32/v1.43/bin/bin/../../lib/gcc/pic32mx/4.8.3/../../../../pic32mx/lib\libpic32.a(vector23.o)
                              c:/program files (x86)/microchip/xc32/v1.43/bin/bin/../../lib/gcc/pic32mx/4.8.3/../../../../pic32mx/lib/./proc/32MX795F512H\default_isr_vectors.o (__vector_dispatch_23)
c:/program files (x86)/microchip/xc32/v1.43/bin/bin/../../lib/gcc/pic32mx/4.8.3/../../../../pic32mx/lib\libpic32.a(vector25.o)
                              c:/program files (x86)/microchip/xc32/v1.43/bin/bin/../../lib/gcc/pic32mx/4.8.3/../../../../pic32mx/lib/./proc/32MX795F512H\default_isr_vectors.o (__vector_dispatch_25)
c:/program files (x86)/microchip/xc32/v1.43/bin/bin/../../lib/gcc/pic32mx/4.8.3/../../../../pic32mx/lib\libpic32.a(vector26.o)
                              c:/program files (x86)/microchip/xc32/v1.43/bin/bin/../../lib/gcc/pic32mx/4.8.3/../../../../pic32mx/lib/./proc/32MX795F512H\default_isr_vectors.o (__vector_dispatch_26)
c:/program files (x86)/microchip/xc32/v1.43/bin/bin/../../lib/gcc/pic32mx/4.8.3/../../../../pic32mx/lib\libpic32.a(vector27.o)
                              c:/program files (x86)/microchip/xc32/v1.43/bin/bin/../../lib/gcc/pic32mx/4.8.3/../../../../pic32mx/lib/./proc/32MX795F512H\default_isr_vectors.o (__vector_dispatch_27)
c:/program files (x86)/microchip/xc32/v1.43/bin/bin/../../lib/gcc/pic32mx/4.8.3/../../../../pic32mx/lib\libpic32.a(vector28.o)
                              c:/program files (x86)/microchip/xc32/v1.43/bin/bin/../../lib/gcc/pic32mx/4.8.3/../../../../pic32mx/lib/./proc/32MX795F512H\default_isr_vectors.o (__vector_dispatch_28)
c:/program files (x86)/microchip/xc32/v1.43/bin/bin/../../lib/gcc/pic32mx/4.8.3/../../../../pic32mx/lib\libpic32.a(vector29.o)
                              c:/program files (x86)/microchip/xc32/v1.43/bin/bin/../../lib/gcc/pic32mx/4.8.3/../../../../pic32mx/lib/./proc/32MX795F512H\default_isr_vectors.o (__vector_dispatch_29)
c:/program files (x86)/microchip/xc32/v1.43/bin/bin/../../lib/gcc/pic32mx/4.8.3/../../../../pic32mx/lib\libpic32.a(vector30.o)
                              c:/program files (x86)/microchip/xc32/v1.43/bin/bin/../../lib/gcc/pic32mx/4.8.3/../../../../pic32mx/lib/./proc/32MX795F512H\default_isr_vectors.o (__vector_dispatch_30)
c:/program files (x86)/microchip/xc32/v1.43/bin/bin/../../lib/gcc/pic32mx/4.8.3/../../../../pic32mx/lib\libpic32.a(vector31.o)
                              c:/program files (x86)/microchip/xc32/v1.43/bin/bin/../../lib/gcc/pic32mx/4.8.3/../../../../pic32mx/lib/./proc/32MX795F512H\default_isr_vectors.o (__vector_dispatch_31)
c:/program files (x86)/microchip/xc32/v1.43/bin/bin/../../lib/gcc/pic32mx/4.8.3/../../../../pic32mx/lib\libpic32.a(vector32.o)
                              c:/program files (x86)/microchip/xc32/v1.43/bin/bin/../../lib/gcc/pic32mx/4.8.3/../../../../pic32mx/lib/./proc/32MX795F512H\default_isr_vectors.o (__vector_dispatch_32)
c:/program files (x86)/microchip/xc32/v1.43/bin/bin/../../lib/gcc/pic32mx/4.8.3/../../../../pic32mx/lib\libpic32.a(vector33.o)
                              c:/program files (x86)/microchip/xc32/v1.43/bin/bin/../../lib/gcc/pic32mx/4.8.3/../../../../pic32mx/lib/./proc/32MX795F512H\default_isr_vectors.o (__vector_dispatch_33)
c:/program files (x86)/microchip/xc32/v1.43/bin/bin/../../lib/gcc/pic32mx/4.8.3/../../../../pic32mx/lib\libpic32.a(vector34.o)
                              c:/program files (x86)/microchip/xc32/v1.43/bin/bin/../../lib/gcc/pic32mx/4.8.3/../../../../pic32mx/lib/./proc/32MX795F512H\default_isr_vectors.o (__vector_dispatch_34)
c:/program files (x86)/microchip/xc32/v1.43/bin/bin/../../lib/gcc/pic32mx/4.8.3/../../../../pic32mx/lib\libpic32.a(vector35.o)
                              c:/program files (x86)/microchip/xc32/v1.43/bin/bin/../../lib/gcc/pic32mx/4.8.3/../../../../pic32mx/lib/./proc/32MX795F512H\default_isr_vectors.o (__vector_dispatch_35)
c:/program files (x86)/microchip/xc32/v1.43/bin/bin/../../lib/gcc/pic32mx/4.8.3/../../../../pic32mx/lib\libpic32.a(vector36.o)
                              c:/program files (x86)/microchip/xc32/v1.43/bin/bin/../../lib/gcc/pic32mx/4.8.3/../../../../pic32mx/lib/./proc/32MX795F512H\default_isr_vectors.o (__vector_dispatch_36)
c:/program files (x86)/microchip/xc32/v1.43/bin/bin/../../lib/gcc/pic32mx/4.8.3/../../../../pic32mx/lib\libpic32.a(vector37.o)
                              c:/program files (x86)/microchip/xc32/v1.43/bin/bin/../../lib/gcc/pic32mx/4.8.3/../../../../pic32mx/lib/./proc/32MX795F512H\default_isr_vectors.o (__vector_dispatch_37)
c:/program files (x86)/microchip/xc32/v1.43/bin/bin/../../lib/gcc/pic32mx/4.8.3/../../../../pic32mx/lib\libpic32.a(vector38.o)
                              c:/program files (x86)/microchip/xc32/v1.43/bin/bin/../../lib/gcc/pic32mx/4.8.3/../../../../pic32mx/lib/./proc/32MX795F512H\default_isr_vectors.o (__vector_dispatch_38)
c:/program files (x86)/microchip/xc32/v1.43/bin/bin/../../lib/gcc/pic32mx/4.8.3/../../../../pic32mx/lib\libpic32.a(vector39.o)
                              c:/program files (x86)/microchip/xc32/v1.43/bin/bin/../../lib/gcc/pic32mx/4.8.3/../../../../pic32mx/lib/./proc/32MX795F512H\default_isr_vectors.o (__vector_dispatch_39)
c:/program files (x86)/microchip/xc32/v1.43/bin/bin/../../lib/gcc/pic32mx/4.8.3/../../../../pic32mx/lib\libpic32.a(vector40.o)
                              c:/program files (x86)/microchip/xc32/v1.43/bin/bin/../../lib/gcc/pic32mx/4.8.3/../../../../pic32mx/lib/./proc/32MX795F512H\default_isr_vectors.o (__vector_dispatch_40)
c:/program files (x86)/microchip/xc32/v1.43/bin/bin/../../lib/gcc/pic32mx/4.8.3/../../../../pic32mx/lib\libpic32.a(vector41.o)
                              c:/program files (x86)/microchip/xc32/v1.43/bin/bin/../../lib/gcc/pic32mx/4.8.3/../../../../pic32mx/lib/./proc/32MX795F512H\default_isr_vectors.o (__vector_dispatch_41)
c:/program files (x86)/microchip/xc32/v1.43/bin/bin/../../lib/gcc/pic32mx/4.8.3/../../../../pic32mx/lib\libpic32.a(vector42.o)
                              c:/program files (x86)/microchip/xc32/v1.43/bin/bin/../../lib/gcc/pic32mx/4.8.3/../../../../pic32mx/lib/./proc/32MX795F512H\default_isr_vectors.o (__vector_dispatch_42)
c:/program files (x86)/microchip/xc32/v1.43/bin/bin/../../lib/gcc/pic32mx/4.8.3/../../../../pic32mx/lib\libpic32.a(vector43.o)
                              c:/program files (x86)/microchip/xc32/v1.43/bin/bin/../../lib/gcc/pic32mx/4.8.3/../../../../pic32mx/lib/./proc/32MX795F512H\default_isr_vectors.o (__vector_dispatch_43)
c:/program files (x86)/microchip/xc32/v1.43/bin/bin/../../lib/gcc/pic32mx/4.8.3/../../../../pic32mx/lib\libpic32.a(vector44.o)
                              c:/program files (x86)/microchip/xc32/v1.43/bin/bin/../../lib/gcc/pic32mx/4.8.3/../../../../pic32mx/lib/./proc/32MX795F512H\default_isr_vectors.o (__vector_dispatch_44)
c:/program files (x86)/microchip/xc32/v1.43/bin/bin/../../lib/gcc/pic32mx/4.8.3/../../../../pic32mx/lib\libpic32.a(vector45.o)
                              c:/program files (x86)/microchip/xc32/v1.43/bin/bin/../../lib/gcc/pic32mx/4.8.3/../../../../pic32mx/lib/./proc/32MX795F512H\default_isr_vectors.o (__vector_dispatch_45)
c:/program files (x86)/microchip/xc32/v1.43/bin/bin/../../lib/gcc/pic32mx/4.8.3/../../../../pic32mx/lib\libpic32.a(vector46.o)
                              c:/program files (x86)/microchip/xc32/v1.43/bin/bin/../../lib/gcc/pic32mx/4.8.3/../../../../pic32mx/lib/./proc/32MX795F512H\default_isr_vectors.o (__vector_dispatch_46)
c:/program files (x86)/microchip/xc32/v1.43/bin/bin/../../lib/gcc/pic32mx/4.8.3/../../../../pic32mx/lib\libpic32.a(vector47.o)
                              c:/program files (x86)/microchip/xc32/v1.43/bin/bin/../../lib/gcc/pic32mx/4.8.3/../../../../pic32mx/lib/./proc/32MX795F512H\default_isr_vectors.o (__vector_dispatch_47)
c:/program files (x86)/microchip/xc32/v1.43/bin/bin/../../lib/gcc/pic32mx/4.8.3/../../../../pic32mx/lib\libpic32.a(vector49.o)
                              c:/program files (x86)/microchip/xc32/v1.43/bin/bin/../../lib/gcc/pic32mx/4.8.3/../../../../pic32mx/lib/./proc/32MX795F512H\default_isr_vectors.o (__vector_dispatch_49)
c:/program files (x86)/microchip/xc32/v1.43/bin/bin/../../lib/gcc/pic32mx/4.8.3/../../../../pic32mx/lib\libpic32.a(vector50.o)
                              c:/program files (x86)/microchip/xc32/v1.43/bin/bin/../../lib/gcc/pic32mx/4.8.3/../../../../pic32mx/lib/./proc/32MX795F512H\default_isr_vectors.o (__vector_dispatch_50)
c:/program files (x86)/microchip/xc32/v1.43/bin/bin/../../lib/gcc/pic32mx/4.8.3/../../../../pic32mx/lib\libpic32.a(vector51.o)
                              c:/program files (x86)/microchip/xc32/v1.43/bin/bin/../../lib/gcc/pic32mx/4.8.3/../../../../pic32mx/lib/./proc/32MX795F512H\default_isr_vectors.o (__vector_dispatch_51)
c:/program files (x86)/microchip/xc32/v1.43/bin/bin/../../lib/gcc/pic32mx/4.8.3/../../../../pic32mx/lib\libpic32.a(defaultinterrupt.o)
                              c:/program files (x86)/microchip/xc32/v1.43/bin/bin/../../lib/gcc/pic32mx/4.8.3/../../../../pic32mx/lib\libpic32.a(vector0.o) (_DefaultInterrupt)
c:/program files (x86)/microchip/xc32/v1.43/bin/bin/../../lib/gcc/pic32mx/4.8.3/../../../../pic32mx/lib\libc.a(atoi.o)
                              build/default/debug/_ext/1360937237/app.o (atoi)
c:/program files (x86)/microchip/xc32/v1.43/bin/bin/../../lib/gcc/pic32mx/4.8.3/../../../../pic32mx/lib\libc.a(calloc.o)
                              build/default/debug/_ext/1688732426/system_init.o (calloc)
c:/program files (x86)/microchip/xc32/v1.43/bin/bin/../../lib/gcc/pic32mx/4.8.3/../../../../pic32mx/lib\libc.a(ctype.o)
                              build/default/debug/_ext/1836803193/dhcp.o (_ctype)
c:/program files (x86)/microchip/xc32/v1.43/bin/bin/../../lib/gcc/pic32mx/4.8.3/../../../../pic32mx/lib\libc.a(ctypef.o)
                              build/default/debug/_ext/1836803193/tcpip_helpers.o (toupper)
c:/program files (x86)/microchip/xc32/v1.43/bin/bin/../../lib/gcc/pic32mx/4.8.3/../../../../pic32mx/lib\libc.a(malloc.o)
                              build/default/debug/_ext/1688732426/system_init.o (malloc)
c:/program files (x86)/microchip/xc32/v1.43/bin/bin/../../lib/gcc/pic32mx/4.8.3/../../../../pic32mx/lib\libc.a(rand.o)
                              build/default/debug/_ext/1584847572/sys_random.o (srand)
c:/program files (x86)/microchip/xc32/v1.43/bin/bin/../../lib/gcc/pic32mx/4.8.3/../../../../pic32mx/lib\libc.a(strchr.o)
                              build/default/debug/_ext/1360937237/app.o (strchr)
c:/program files (x86)/microchip/xc32/v1.43/bin/bin/../../lib/gcc/pic32mx/4.8.3/../../../../pic32mx/lib\libc.a(strncpy.o)
                              build/default/debug/_ext/1360937237/app_command.o (strncpy)
c:/program files (x86)/microchip/xc32/v1.43/bin/bin/../../lib/gcc/pic32mx/4.8.3/../../../../pic32mx/lib\libc.a(strstr.o)
                              build/default/debug/_ext/1360937237/app.o (strstr)
c:/program files (x86)/microchip/xc32/v1.43/bin/bin/../../lib/gcc/pic32mx/4.8.3/../../../../pic32mx/lib\libc.a(strtol.o)
                              build/default/debug/_ext/1836803193/tcpip_helpers.o (strtol)
c:/program files (x86)/microchip/xc32/v1.43/bin/bin/../../lib/gcc/pic32mx/4.8.3/../../../../pic32mx/lib\libc.a(snprintf_cdnopsuxX.eo)
                              build/default/debug/_ext/1836803193/tcpip_manager.o (_snprintf_cdnopsuxX)
c:/program files (x86)/microchip/xc32/v1.43/bin/bin/../../lib/gcc/pic32mx/4.8.3/../../../../pic32mx/lib\libc.a(sprintf_cdnopsuxX.eo)
                              (_sprintf_cdnopsuxX)
c:/program files (x86)/microchip/xc32/v1.43/bin/bin/../../lib/gcc/pic32mx/4.8.3/../../../../pic32mx/lib\libc.a(sprintf_cdnopuxX.eo)
                              build/default/debug/_ext/1836803193/tcpip_helpers.o (_sprintf_cdnopuxX)
c:/program files (x86)/microchip/xc32/v1.43/bin/bin/../../lib/gcc/pic32mx/4.8.3/../../../../pic32mx/lib\libc.a(sprintf_s.eo)
                              build/default/debug/_ext/1360937237/app.o (_sprintf_s)
c:/program files (x86)/microchip/xc32/v1.43/bin/bin/../../lib/gcc/pic32mx/4.8.3/../../../../pic32mx/lib\libc.a(vsnprintf_cdnopsuxX.eo)
                              c:/program files (x86)/microchip/xc32/v1.43/bin/bin/../../lib/gcc/pic32mx/4.8.3/../../../../pic32mx/lib\libc.a(snprintf_cdnopsuxX.eo) (_vsnprintf_cdnopsuxX)
c:/program files (x86)/microchip/xc32/v1.43/bin/bin/../../lib/gcc/pic32mx/4.8.3/../../../../pic32mx/lib\libc.a(vsnprintf.o)
                              build/default/debug/_ext/1167192164/sys_command.o (vsnprintf)
c:/program files (x86)/microchip/xc32/v1.43/bin/bin/../../lib/gcc/pic32mx/4.8.3/../../../../pic32mx/lib\libc.a(errno.o)
                              c:/program files (x86)/microchip/xc32/v1.43/bin/bin/../../lib/gcc/pic32mx/4.8.3/../../../../pic32mx/lib\libc.a(strtol.o) (errno)
c:/program files (x86)/microchip/xc32/v1.43/bin/bin/../../lib/gcc/pic32mx/4.8.3/../../../../pic32mx/lib\libc.a(strncmp.o)
                              c:/program files (x86)/microchip/xc32/v1.43/bin/bin/../../lib/gcc/pic32mx/4.8.3/../../../../pic32mx/lib\libc.a(strstr.o) (strncmp)
c:/program files (x86)/microchip/xc32/v1.43/bin/bin/../../lib/gcc/pic32mx/4.8.3/../../../../pic32mx/lib\libc.a(doprnt_cdnopsuxX.eo)
                              c:/program files (x86)/microchip/xc32/v1.43/bin/bin/../../lib/gcc/pic32mx/4.8.3/../../../../pic32mx/lib\libc.a(sprintf_cdnopsuxX.eo) (_vfprintf_cdnopsuxX)
c:/program files (x86)/microchip/xc32/v1.43/bin/bin/../../lib/gcc/pic32mx/4.8.3/../../../../pic32mx/lib\libc.a(doprnt_cdnopuxX.eo)
                              c:/program files (x86)/microchip/xc32/v1.43/bin/bin/../../lib/gcc/pic32mx/4.8.3/../../../../pic32mx/lib\libc.a(sprintf_cdnopuxX.eo) (_vfprintf_cdnopuxX)
c:/program files (x86)/microchip/xc32/v1.43/bin/bin/../../lib/gcc/pic32mx/4.8.3/../../../../pic32mx/lib\libc.a(doprnt_s.eo)
                              c:/program files (x86)/microchip/xc32/v1.43/bin/bin/../../lib/gcc/pic32mx/4.8.3/../../../../pic32mx/lib\libc.a(sprintf_s.eo) (_vfprintf_s)
c:/program files (x86)/microchip/xc32/v1.43/bin/bin/../../lib/gcc/pic32mx/4.8.3/../../../../pic32mx/lib\libc.a(doprnt.o)
                              c:/program files (x86)/microchip/xc32/v1.43/bin/bin/../../lib/gcc/pic32mx/4.8.3/../../../../pic32mx/lib\libc.a(vsnprintf.o) (vfprintf)
c:/program files (x86)/microchip/xc32/v1.43/bin/bin/../../lib/gcc/pic32mx/4.8.3/../../../../pic32mx/lib\libc.a(_fputc_simple.o)
                              c:/program files (x86)/microchip/xc32/v1.43/bin/bin/../../lib/gcc/pic32mx/4.8.3/../../../../pic32mx/lib\libc.a(doprnt_cdnopsuxX.eo) (fputc)
c:/program files (x86)/microchip/xc32/v1.43/bin/bin/../../lib/gcc/pic32mx/4.8.3/../../../../pic32mx/lib\libc.a(ldpowers.o)
                              c:/program files (x86)/microchip/xc32/v1.43/bin/bin/../../lib/gcc/pic32mx/4.8.3/../../../../pic32mx/lib\libc.a(doprnt.o) (_npowers_)
c:/program files (x86)/microchip/xc32/v1.43/bin/bin/../../lib/gcc/pic32mx/4.8.3/../../../../pic32mx/lib\libc.a(_iob.o)
                              c:/program files (x86)/microchip/xc32/v1.43/bin/bin/../../lib/gcc/pic32mx/4.8.3/../../../../pic32mx/lib\libc.a(_fputc_simple.o) (_outdone)
c:/program files (x86)/microchip/xc32/v1.43/bin/bin/../../lib/gcc/pic32mx/4.8.3/../../../../pic32mx/lib\libc.a(_flsbuf_simple.o)
                              c:/program files (x86)/microchip/xc32/v1.43/bin/bin/../../lib/gcc/pic32mx/4.8.3/../../../../pic32mx/lib\libc.a(_fputc_simple.o) (_flsbuf)
c:/program files (x86)/microchip/xc32/v1.43/bin/bin/../../lib/gcc/pic32mx/4.8.3/../../../../pic32mx/lib\libm.a(dpfrexp.o)
                              c:/program files (x86)/microchip/xc32/v1.43/bin/bin/../../lib/gcc/pic32mx/4.8.3/../../../../pic32mx/lib\libc.a(doprnt.o) (frexpl)
c:/program files (x86)/microchip/xc32/v1.43/bin/bin/../../lib/gcc/pic32mx/4.8.3/../../../../pic32mx/lib\libm.a(dp32div.o)
                              c:/program files (x86)/microchip/xc32/v1.43/bin/bin/../../lib/gcc/pic32mx/4.8.3/../../../../pic32mx/lib\libc.a(doprnt.o) (dpdiv)
c:/program files (x86)/microchip/xc32/v1.43/bin/bin/../../lib/gcc/pic32mx/4.8.3/../../../../pic32mx/lib\libm.a(dp32mul.o)
                              c:/program files (x86)/microchip/xc32/v1.43/bin/bin/../../lib/gcc/pic32mx/4.8.3/../../../../pic32mx/lib\libc.a(doprnt.o) (dpmul)
c:/program files (x86)/microchip/xc32/v1.43/bin/bin/../../lib/gcc/pic32mx/4.8.3/../../../../pic32mx/lib\libm.a(dp32subadd.o)
                              c:/program files (x86)/microchip/xc32/v1.43/bin/bin/../../lib/gcc/pic32mx/4.8.3/../../../../pic32mx/lib\libc.a(doprnt.o) (dpsub)
c:/program files (x86)/microchip/xc32/v1.43/bin/bin/../../lib/gcc/pic32mx/4.8.3/../../../../pic32mx/lib\libm.a(dpcmp.o)
                              c:/program files (x86)/microchip/xc32/v1.43/bin/bin/../../lib/gcc/pic32mx/4.8.3/../../../../pic32mx/lib\libc.a(doprnt.o) (dpcmp)
c:/program files (x86)/microchip/xc32/v1.43/bin/bin/../../lib/gcc/pic32mx/4.8.3/../../../../pic32mx/lib\libm.a(dptoul.o)
                              c:/program files (x86)/microchip/xc32/v1.43/bin/bin/../../lib/gcc/pic32mx/4.8.3/../../../../pic32mx/lib\libc.a(doprnt.o) (dptoul)
c:/program files (x86)/microchip/xc32/v1.43/bin/bin/../../lib/gcc/pic32mx/4.8.3/../../../../pic32mx/lib\libm.a(fptodp.o)
                              c:/program files (x86)/microchip/xc32/v1.43/bin/bin/../../lib/gcc/pic32mx/4.8.3/../../../../pic32mx/lib\libc.a(doprnt.o) (fptodp)
c:/program files (x86)/microchip/xc32/v1.43/bin/bin/../../lib/gcc/pic32mx/4.8.3/../../../../pic32mx/lib\libe.a(_fixunsdfdi.o)
                              c:/program files (x86)/microchip/xc32/v1.43/bin/bin/../../lib/gcc/pic32mx/4.8.3/../../../../pic32mx/lib\libc.a(doprnt.o) (__fixunsdfdi)
c:/program files (x86)/microchip/xc32/v1.43/bin/bin/../../lib/gcc/pic32mx/4.8.3/../../../../pic32mx/lib\libe.a(_orderdf2.o)
                              c:/program files (x86)/microchip/xc32/v1.43/bin/bin/../../lib/gcc/pic32mx/4.8.3/../../../../pic32mx/lib\libe.a(_fixunsdfdi.o) (__orderdf2)
c:/program files (x86)/microchip/xc32/v1.43/bin/bin/../../lib/gcc/pic32mx/4.8.3/../../../../pic32mx/lib\libe.a(_fixdfdi.o)
                              c:/program files (x86)/microchip/xc32/v1.43/bin/bin/../../lib/gcc/pic32mx/4.8.3/../../../../pic32mx/lib\libe.a(_fixunsdfdi.o) (__fixdfdi)
c:/program files (x86)/microchip/xc32/v1.43/bin/bin/../../lib/gcc/pic32mx/4.8.3\libgcc.a(_umoddi3.o)
                              c:/program files (x86)/microchip/xc32/v1.43/bin/bin/../../lib/gcc/pic32mx/4.8.3/../../../../pic32mx/lib\libc.a(doprnt_cdnopsuxX.eo) (__umoddi3)
c:/program files (x86)/microchip/xc32/v1.43/bin/bin/../../lib/gcc/pic32mx/4.8.3\libgcc.a(floatunsidf.o)
                              c:/program files (x86)/microchip/xc32/v1.43/bin/bin/../../lib/gcc/pic32mx/4.8.3/../../../../pic32mx/lib\libc.a(doprnt.o) (__floatunsidf)
c:/program files (x86)/microchip/xc32/v1.43/bin/bin/../../lib/gcc/pic32mx/4.8.3/../../../../pic32mx/lib\libpic32.a(sbrk.o)
                              c:/program files (x86)/microchip/xc32/v1.43/bin/bin/../../lib/gcc/pic32mx/4.8.3/../../../../pic32mx/lib\libc.a(malloc.o) (sbrk)
c:/program files (x86)/microchip/xc32/v1.43/bin/bin/../../lib/gcc/pic32mx/4.8.3/../../../../pic32mx/lib\libpic32.a(write.o)
                              c:/program files (x86)/microchip/xc32/v1.43/bin/bin/../../lib/gcc/pic32mx/4.8.3/../../../../pic32mx/lib\libc.a(_fputc_simple.o) (write)
c:/program files (x86)/microchip/xc32/v1.43/bin/bin/../../lib/gcc/pic32mx/4.8.3/../../../../pic32mx/lib\libpic32.a(_mon_putc.o)
                              c:/program files (x86)/microchip/xc32/v1.43/bin/bin/../../lib/gcc/pic32mx/4.8.3/../../../../pic32mx/lib\libpic32.a(write.o) (_mon_putc)
c:/program files (x86)/microchip/xc32/v1.43/bin/bin/../../lib/gcc/pic32mx/4.8.3/../../../../pic32mx/lib\libpic32.a(xc32_uart.o)
                              c:/program files (x86)/microchip/xc32/v1.43/bin/bin/../../lib/gcc/pic32mx/4.8.3/../../../../pic32mx/lib\libpic32.a(_mon_putc.o) (__XC_UART)
c:/program files (x86)/microchip/xc32/v1.43/bin/bin/../../lib/gcc/pic32mx/4.8.3/../../../../pic32mx/lib\libm.a(litodp.o)
                              c:/program files (x86)/microchip/xc32/v1.43/bin/bin/../../lib/gcc/pic32mx/4.8.3\libgcc.a(floatunsidf.o) (litodp)

Allocating common symbols
Common symbol       size              file

APP_URL_Buffer      0xff              build/default/debug/_ext/1360937237/app_command.o
sysDebugInstance    0x10              build/default/debug/_ext/429005716/sys_debug.o
appData             0x14              build/default/debug/_ext/1360937237/app.o
gDrvUSARTBufferObj  0x370             build/default/debug/_ext/427015431/drv_usart_buffer_queue.o
sysObj              0x20              build/default/debug/_ext/1688732426/system_init.o
gblErrLvl           0x4               build/default/debug/_ext/429005716/sys_debug.o
gDrvUSARTCommonDataObj
                    0x3               build/default/debug/_ext/427015431/drv_usart.o
gDrvUSARTClientObj  0x4c              build/default/debug/_ext/427015431/drv_usart.o
sNetPresData        0x204             build/default/debug/_ext/2146114523/net_pres.o
gDrvUSARTObj        0x60              build/default/debug/_ext/427015431/drv_usart.o
sNetPresSockets     0x168             build/default/debug/_ext/2146114523/net_pres.o
sysDevconObj        0x8               build/default/debug/_ext/340578644/sys_devcon.o
sysRandCtx          0x108             build/default/debug/_ext/1584847572/sys_random.o

Microchip PIC32 Memory-Usage Report

kseg0 Program-Memory Usage
section                    address  length [bytes]      (dec)  Description
-------                 ----------  -------------------------  -----------
.text.vfprintf          0x9d000000         0x1c64        7268   
.rodata                 0x9d001c64         0x1c18        7192  Read-only const 
.text.TCPIP_TCP_Task    0x9d00387c         0x1510        5392   
.text._vfprintf_cdnopsu 0x9d004d8c          0xc8c        3212   
.text.TCPIP_STACK_Task  0x9d005a18          0x8e4        2276   
.text._Command_DNS_Serv 0x9d0062fc          0x8c4        2244   
.text._TcpSend          0x9d006bc0          0x828        2088   
.text.TCPIP_DHCP_Task   0x9d0073e8          0x7c4        1988   
.text.DRV_ETHMAC_PIC32M 0x9d007bac          0x728        1832   
.text.TCPIP_ZCLL_Task   0x9d0082d4          0x604        1540   
.text.TCPIP_STACK_Initi 0x9d0088d8          0x5a0        1440   
.text.TCPIP_ARP_Task    0x9d008e78          0x548        1352   
.rodata                 0x9d0093c0          0x530        1328  Read-only const 
.dinit                  0x9d0098f0          0x520        1312   
.text.NET_PRES_Initiali 0x9d009e10          0x514        1300   
.text.SYS_CMD_Tasks     0x9d00a324          0x4f0        1264   
.text.TCPIP_TCP_FifoSiz 0x9d00a814          0x4cc        1228   
.text.dp32mul           0x9d00ace0          0x4b8        1208   
.text.APP_Tasks         0x9d00b198          0x488        1160   
.text.TCPIP_COMMAND_Tas 0x9d00b620          0x464        1124   
.text                   0x9d00ba84          0x8bc        2236  App's exec code 
.text._CommandArp       0x9d00c340          0x434        1076   
.text.dp32subadd        0x9d00c774          0x430        1072   
.text._CommandMiim      0x9d00cba4          0x420        1056   
.text.TCPIP_Helper_Stri 0x9d00cfc4          0x3e8        1000   
.text._DNS_Send_Query   0x9d00d3ac          0x3cc         972   
.text._Command_HeapInfo 0x9d00d778          0x3c4         964   
.text.TCPIP_DNS_ClientI 0x9d00db3c          0x3bc         956   
.rodata                 0x9d00def8          0x398         920  Read-only const 
.text.DRV_MIIM_Tasks    0x9d00e290          0x398         920   
.text.Console_UART_Task 0x9d00e628          0x394         916   
.text._CommandDhcpOptio 0x9d00e9bc          0x388         904   
.text.TCPIP_ARP_Initial 0x9d00ed44          0x380         896   
.text.TCPIP_STACK_Bring 0x9d00f0c4          0x378         888   
.text._TCP_Open         0x9d00f43c          0x36c         876   
.text._Command_NetInfo  0x9d00f7a8          0x36c         876   
.text._DHCPReceive      0x9d00fb14          0x348         840   
.text.TCPIP_NBNS_Task   0x9d00fe5c          0x330         816   
.text.dp32mul           0x9d01018c          0x32c         812   
.text.TCPIP_UDP_Task    0x9d0104b8          0x328         808   
.text._DHCPSend         0x9d0107e0          0x31c         796   
.text.TCPIP_UDP_Flush   0x9d010afc          0x314         788   
.text.ParseCmdBuffer    0x9d010e10          0x30c         780   
.text.SYS_TMR_Tasks     0x9d01111c          0x308         776   
.text.TCPIP_IPV4_Packet 0x9d011424          0x2e8         744   
.text.CommandHelp       0x9d01170c          0x2dc         732   
.text._DNS_ProcessPacke 0x9d0119e8          0x2dc         732   
.text.TCPIP_UDP_Options 0x9d011cc4          0x2cc         716   
.text.TCPIP_IPV4_Task   0x9d011f90          0x2c0         704   
.text.DRV_USART_BufferA 0x9d012250          0x2b0         688   
.text.TCPIP_IPV4_Packet 0x9d012500          0x2ac         684   
.text.TCPIP_ANNOUNCE_Se 0x9d0127ac          0x2a8         680   
.text._TCPIP_HEAP_Free  0x9d012a54          0x2a0         672   
.text.TCPIP_TCP_ArrayPu 0x9d012cf4          0x29c         668   
.text.malloc            0x9d012f90          0x28c         652   
.text.DRV_ETHMAC_PIC32M 0x9d01321c          0x288         648   
.text._Command_MacInfo  0x9d0134a4          0x284         644   
.text.DRV_USART_BufferA 0x9d013728          0x27c         636   
.rodata                 0x9d0139a4          0x264         612  Read-only const 
.text.DRV_USART_Read    0x9d013c08          0x260         608   
.text                   0x9d013e68          0x25c         604  App's exec code 
.text.DRV_ETHMAC_PIC32M 0x9d0140c4          0x24c         588   
.text._UDPOpen          0x9d014310          0x244         580   
.text._DHCPOptionHostNa 0x9d014554          0x244         580   
.text.TCPIP_DHCP_Initia 0x9d014798          0x244         580   
.text.TCPIP_DNS_EntryQu 0x9d0149dc          0x240         576   
.text.scale             0x9d014c1c          0x23c         572   
.text.TCPIP_UDP_Bind    0x9d014e58          0x22c         556   
.text.DRV_ETHMAC_LibRxB 0x9d015084          0x21c         540   
.rodata                 0x9d0152a0          0x218         536  Read-only const 
.text._Command_AddressS 0x9d0154b8          0x218         536   
.text._DRV_USART_Buffer 0x9d0156d0          0x210         528   
.text._Command_StackOnO 0x9d0158e0          0x208         520   
.text._Command_NetworkO 0x9d015ae8          0x1fc         508   
.text._LoadNetworkConfi 0x9d015ce4          0x1fc         508   
.text._DRV_USART_Hardwa 0x9d015ee0          0x1ec         492   
.text._Command_IPAddres 0x9d0160cc          0x1e0         480   
.text._DNS_IsNameResolv 0x9d0162ac          0x1dc         476   
.text.TCPIP_ANNOUNCE_In 0x9d016488          0x1dc         476   
.text._DNS_RESPONSE_Has 0x9d016664          0x1d8         472   
.text.DRV_ETHMAC_PIC32M 0x9d01683c          0x1d4         468   
.text.strtoul           0x9d016a10          0x1d4         468   
.text._DRV_ETHMAC_AddRx 0x9d016be4          0x1d0         464   
.text.TCPIP_DNS_ClientT 0x9d016db4          0x1d0         464   
.text.TCPIP_Helper_Stri 0x9d016f84          0x1cc         460   
.text.fround            0x9d017150          0x1cc         460   
.text.TCPIP_UDP_Options 0x9d01731c          0x1c8         456   
.text.TCPIP_ARP_EntryRe 0x9d0174e4          0x1c8         456   
.rodata                 0x9d0176ac          0x1c4         452  Read-only const 
.text._DRV_MIIM_ClientD 0x9d017870          0x1c4         452   
.text.DRV_USART_Initial 0x9d017a34          0x1c0         448   
.text._EthAckPacket     0x9d017bf4          0x1bc         444   
.text._DRV_ETHPHY_Setup 0x9d017db0          0x1bc         444   
.text._DNS_Resolve      0x9d017f6c          0x1b0         432   
.text.SYS_Initialize    0x9d01811c          0x1ac         428   
.text._DRV_MIIM_StartOp 0x9d0182c8          0x1ac         428   
.text.TCPIP_UDP_ArrayGe 0x9d018474          0x1ac         428   
.text.DRV_TMR_Initializ 0x9d018620          0x1a4         420   
.text._DNS_GetAddresses 0x9d0187c4          0x1a4         420   
.text                   0x9d018968          0x1a0         416  App's exec code 
.text.strtol            0x9d018b08          0x19c         412   
.text.DRV_EXTPHY_MDIXCo 0x9d018ca4          0x198         408   
.text.TCPIP_TCP_Options 0x9d018e3c          0x198         408   
.text.TCPIP_UDP_Deiniti 0x9d018fd4          0x198         408   
.text._ARPProbeAddress  0x9d01916c          0x198         408   
.text.DRV_ETHMAC_LibRxG 0x9d019304          0x194         404   
.text._TCPIP_HEAP_Mallo 0x9d019498          0x194         404   
.text._sbrk_init        0x9d01962c          0x194         404   
.text._SYS_TMR_ClientCr 0x9d0197c0          0x18c         396   
.text.TCPIP_TCP_ArrayGe 0x9d01994c          0x18c         396   
.text.DRV_USART_Open    0x9d019ad8          0x188         392   
.text.DRV_MIIM_Setup    0x9d019c60          0x184         388   
.text._CommandMiimOp    0x9d019de4          0x184         388   
.text._DRV_PHY_SMITrans 0x9d019f68          0x178         376   
.text._ZeroconfARPPktNo 0x9d01a0e0          0x178         376   
.text.DRV_ETHMAC_LibRxA 0x9d01a258          0x174         372   
.text._DRV_USART_Buffer 0x9d01a3cc          0x174         372   
.text.TCPIP_TCP_Initial 0x9d01a540          0x174         372   
.text._DRV_ETHPHY_NegRe 0x9d01a6b4          0x170         368   
.text                   0x9d01a824          0x2d0         720  App's exec code 
.text.TCPIP_HEAP_Create 0x9d01aaf4          0x164         356   
.text._DHCPStartOperati 0x9d01ac58          0x164         356   
.text._DHCPProcessRecei 0x9d01adbc          0x164         356   
.text.TCPIP_Helper_IPv6 0x9d01af20          0x164         356   
.text.TCPIP_IPV4_Select 0x9d01b084          0x160         352   
.rodata                 0x9d01b1e8          0x160         352  Read-only const 
.text.TCPIP_TCP_Options 0x9d01b348          0x15c         348   
.text.DRV_ETHMAC_PIC32M 0x9d01b4a4          0x158         344   
.text.DRV_ETHMAC_LibTxS 0x9d01b5fc          0x158         344   
.text.NET_PRES_Tasks    0x9d01b754          0x158         344   
.text.TCPIP_TCP_Bind    0x9d01b8ac          0x158         344   
.rodata                 0x9d01ba04          0x154         340  Read-only const 
.text._ARPSendIfPkt     0x9d01bb58          0x154         340   
.text._IntHandlerDrvUsa 0x9d01bcac          0x150         336   
.text._MACDeinit        0x9d01bdfc          0x150         336   
.text._TcpDisconnect    0x9d01bf4c          0x150         336   
.text.TCPIP_UDP_Initial 0x9d01c09c          0x150         336   
.text.TCPIP_UDP_OpenSer 0x9d01c1ec          0x14c         332   
.text.DRV_ETHMAC_PIC32M 0x9d01c338          0x148         328   
.text._EthAppendBusyLis 0x9d01c480          0x148         328   
.text.DRV_ETHPHY_Setup  0x9d01c5c8          0x148         328   
.text.DRV_MIIM_Operatio 0x9d01c710          0x148         328   
.text._TcpCloseSocket   0x9d01c858          0x148         328   
.text.fputc             0x9d01c9a0          0x144         324   
.rodata                 0x9d01cae4          0x140         320  Read-only const 
.text._DRV_ETHPHY_Setup 0x9d01cc24          0x140         320   
.text.DisplayNodeMsg    0x9d01cd64          0x140         320   
.text._UDPv4TxAckFnc    0x9d01cea4          0x140         320   
.text.TCPIP_ICMP_Task   0x9d01cfe4          0x140         320   
.text.IntHandlerDrvTmrI 0x9d01d124          0x134         308   
.text._Command_GatewayA 0x9d01d258          0x134         308   
.text.TCPIP_Helper_Stri 0x9d01d38c          0x134         308   
.text.TCPIP_STACK_NetUp 0x9d01d4c0          0x134         308   
.text._IntHandler_ETHMA 0x9d01d5f4          0x130         304   
.text._ARPDeleteResourc 0x9d01d724          0x130         304   
.text._Command_MACAddre 0x9d01d854          0x130         304   
.text.DRV_ETHMAC_LibDes 0x9d01d984          0x12c         300   
.text.DRV_TMR_AlarmRegi 0x9d01dab0          0x12c         300   
.text.TCPIP_STACK_KillS 0x9d01dbdc          0x12c         300   
.text._flsbuf           0x9d01dd08          0x12c         300   
.text.dpcmp             0x9d01de34          0x12c         300   
.text.DRV_MIIM_Open     0x9d01df60          0x128         296   
.rodata                 0x9d01e088          0x124         292  Read-only const 
.text._Tcpv4TxAckFnc    0x9d01e1ac          0x124         292   
.text._OAHashFindBkt    0x9d01e2d0          0x124         292   
.text.DRV_ETHMAC_PIC32M 0x9d01e3f4          0x120         288   
.text.TCPIP_Helper_Pack 0x9d01e514          0x120         288   
.text                   0x9d01e634          0x120         288  App's exec code 
.text.DRV_USART_BaudSet 0x9d01e754          0x11c         284   
.text.TCPIP_IPV4_ArpHan 0x9d01e870          0x11c         284   
.text._GetMaxSegSizeOpt 0x9d01e98c          0x11c         284   
.text.TCPIP_UDP_RemoteB 0x9d01eaa8          0x11c         284   
.text.TCPIP_ARP_IsResol 0x9d01ebc4          0x11c         284   
.text._DHCPSetLeaseTime 0x9d01ece0          0x118         280   
.text.DRV_ETHMAC_PIC32M 0x9d01edf8          0x114         276   
.text.TCPIP_ARP_EntryQu 0x9d01ef0c          0x114         276   
.text._Command_PrimaryD 0x9d01f020          0x114         276   
.text.TCPIP_Helper_Pack 0x9d01f134          0x114         276   
.text._DRV_ETHPHY_Setup 0x9d01f248          0x110         272   
.text._MacRxPacketAck   0x9d01f358          0x10c         268   
.text.SYS_CMD_ADDGRP    0x9d01f464          0x10c         268   
.text.TCPIP_DHCP_InfoGe 0x9d01f570          0x10c         268   
.text._UDPv4AllocateSkt 0x9d01f67c          0x108         264   
.text._TcpSocketSetIdle 0x9d01f784          0x104         260   
.text._DNS_ValidateIf   0x9d01f888          0x104         260   
.rodata                 0x9d01f98c          0x104         260  Read-only const 
.text.DRV_MIIM_Initiali 0x9d01fa90          0x100         256   
.text.TCPIP_TCP_ServerO 0x9d01fb90          0x100         256   
.text._DHCPEnable       0x9d01fc90          0x100         256   
.text.DRV_ETHMAC_Tasks_ 0x9d01fd90           0xf8         248   
.text._DRV_ETHPHY_Setup 0x9d01fe88           0xf8         248   
.text.Console_UART_Writ 0x9d01ff80           0xf8         248   
.text._UDPsetPacketInfo 0x9d020078           0xf8         248   
.text._TCPIP_StackSyncF 0x9d020170           0xf8         248   
.text.DRV_ETHMAC_LibMAC 0x9d020268           0xf0         240   
.text.TCPIP_UDP_Disconn 0x9d020358           0xf0         240   
.text._DHCPClientClose  0x9d020448           0xf0         240   
.text._Command_TcpInfo  0x9d020538           0xf0         240   
.text.DRV_ETHMAC_PIC32M 0x9d020628           0xec         236   
.text._DRV_ETHPHY_Setup 0x9d020714           0xec         236   
.text.SYS_TMR_SystemCou 0x9d020800           0xec         236   
.text.TCPIP_IPV4_DeInit 0x9d0208ec           0xec         236   
.text._DRV_TMR_ClockSou 0x9d0209d8           0xe8         232   
.text._SYS_TMR_ClientPa 0x9d020ac0           0xe8         232   
.text._DHCPPacketFilter 0x9d020ba8           0xe8         232   
.text.__fixdfdi         0x9d020c90           0xe8         232   
.text.TCPIP_IPV4_MacPac 0x9d020d78           0xe4         228   
.text.TCPIP_TCP_ArrayPe 0x9d020e5c           0xe4         228   
.text.TCPIP_NBNS_Initia 0x9d020f40           0xe4         228   
.text.SYS_DEVCON_Perfor 0x9d021024           0xe0         224   
.text._APP_ParseUrl     0x9d021104           0xe0         224   
.text.DRV_ETHMAC_LibIni 0x9d0211e4           0xe0         224   
.text._DRV_ETHPHY_NegCo 0x9d0212c4           0xe0         224   
.text._TcpAbort         0x9d0213a4           0xe0         224   
.text.TCPIP_OAHASH_Entr 0x9d021484           0xe0         224   
.text.TCPIP_STACK_Addre 0x9d021564           0xe0         224   
.text.TCPIP_STACK_Bring 0x9d021644           0xe0         224   
.text.SYS_CMD_DELETE    0x9d021724           0xdc         220   
.text.TCPIP_TCP_SocketI 0x9d021800           0xdc         220   
.text.TCPIP_ARP_CacheEn 0x9d0218dc           0xdc         220   
.text.TCPIP_DHCP_Connec 0x9d0219b8           0xdc         220   
.text._Command_BIOSName 0x9d021a94           0xdc         220   
.text._Command_DefaultI 0x9d021b70           0xdc         220   
.text._TCPIP_PKT_Packet 0x9d021c4c           0xdc         220   
.text.general_exception 0x9d021d28           0xdc         220   
.text.DRV_TMR_CounterFr 0x9d021e04           0xd8         216   
.text.SYS_CMD_Initializ 0x9d021edc           0xd8         216   
.text.TCPIP_TCP_Deiniti 0x9d021fb4           0xd8         216   
.text._TCPIP_HEAP_MaxSi 0x9d02208c           0xd8         216   
.text._ARPUpdateEntry   0x9d022164           0xd8         216   
.text._Command_UdpInfo  0x9d02223c           0xd8         216   
.text.TCPIP_Commands_In 0x9d022314           0xd8         216   
.text._MacTxPendingPack 0x9d0223ec           0xd4         212   
.text._DRV_USART_Buffer 0x9d0224c0           0xd4         212   
.text.TCPIP_HEAP_Calloc 0x9d022594           0xd4         212   
.text.TCPIP_ZCLL_Initia 0x9d022668           0xd4         212   
.text._mon_putc         0x9d02273c           0xd4         212   
.text._DRV_ETHMAC_LinkS 0x9d022810           0xd0         208   
.text.DRV_ETHPHY_Open   0x9d0228e0           0xd0         208   
.text.TCPIP_HEAP_Malloc 0x9d0229b0           0xd0         208   
.rodata                 0x9d022a80           0xd0         208  Read-only const 
.text._DRV_ETHPHY_Reset 0x9d022b50           0xcc         204   
.text.TCPIP_ARP_EntryRe 0x9d022c1c           0xcc         204   
.text._DRV_TMR_ClockPre 0x9d022ce8           0xc8         200   
.text.DRV_TMR_Tasks     0x9d022db0           0xc8         200   
.text.TCPIP_OAHASH_Entr 0x9d022e78           0xc8         200   
.text._TCPIPStackModule 0x9d022f40           0xc8         200   
.text._sbrk             0x9d023008           0xc8         200   
.text._DRV_ETHPHY_NegCo 0x9d0230d0           0xc4         196   
.text.TCPIP_UDP_SocketI 0x9d023194           0xc4         196   
.text._DHCPOptionWriteS 0x9d023258           0xc4         196   
.text._DRV_MIIM_Release 0x9d02331c           0xc0         192   
.text.SYS_CMD_PRINT     0x9d0233dc           0xc0         192   
.text.SYS_TMR_Initializ 0x9d02349c           0xc0         192   
.text.TCPIP_IPV4_MacPac 0x9d02355c           0xc0         192   
.text._DHCPOptionProces 0x9d02361c           0xc0         192   
.text.TCPIP_ANNOUNCE_Ta 0x9d0236dc           0xc0         192   
.text.SendCommandPrint  0x9d02379c           0xbc         188   
.text.SYS_CMDIO_ADD     0x9d023858           0xbc         188   
.text.TCPIP_UDP_ArrayPu 0x9d023914           0xbc         188   
.text._DHCPOptionWriteI 0x9d0239d0           0xbc         188   
.text.TCPIP_DNS_Disable 0x9d023a8c           0xbc         188   
.text._DRV_ETHPHY_NegRe 0x9d023b48           0xb8         184   
.text.TCPIP_DNS_OAHASH_ 0x9d023c00           0xb8         184   
.text.TCPIP_DNS_GetIPAd 0x9d023cb8           0xb8         184   
.text.TCPIP_PKT_DataSeg 0x9d023d70           0xb8         184   
.text._EthTxSchedBuffer 0x9d023e28           0xb4         180   
.text.Console_UART_Read 0x9d023edc           0xb4         180   
.text.TCPIP_UDP_BcastIP 0x9d023f90           0xb4         180   
.text._TCPIP_HEAP_Delet 0x9d024044           0xb4         180   
.text._ARPNotifyClients 0x9d0240f8           0xb4         180   
.text.TCPIP_DHCP_Disabl 0x9d0241ac           0xb4         180   
.text.TCPIP_STACK_NetDo 0x9d024260           0xb4         180   
.text.DRV_ETHMAC_LibTxA 0x9d024314           0xb0         176   
.text.DRV_MIIM_Operatio 0x9d0243c4           0xb0         176   
.text.DRV_USART_LineCon 0x9d024474           0xb0         176   
.text._SYS_TMR_ClientCh 0x9d024524           0xb0         176   
.text._DNS_AddSelection 0x9d0245d4           0xb0         176   
.text._DRV_ETHMAC_LinkS 0x9d024684           0xac         172   
.text.TCPIP_TCP_RemoteB 0x9d024730           0xac         172   
.text._DNS_Enable       0x9d0247dc           0xac         172   
.text._TCPIPStackInsert 0x9d024888           0xac         172   
.text.fptodp            0x9d024934           0xac         172   
.text.DRV_ETHMAC_PIC32M 0x9d0249e0           0xa8         168   
.text.DRV_ETHPHY_Vendor 0x9d024a88           0xa8         168   
.text.DRV_ETHPHY_Vendor 0x9d024b30           0xa8         168   
.text._DRV_ETHPHY_Reset 0x9d024bd8           0xa8         168   
.text.TCPIP_PKT_PacketM 0x9d024c80           0xa8         168   
.text                   0x9d024d28           0xa8         168  App's exec code 
.text.atoi              0x9d024dd0           0xa8         168   
.text.libm              0x9d024e78           0xa8         168   
.text.DRV_ETHPHY_Initia 0x9d024f20           0xa4         164   
.text.DRV_USART_TasksRe 0x9d024fc4           0xa4         164   
.text.DRV_USART_TasksTr 0x9d025068           0xa4         164   
.text.DRV_USART_TasksEr 0x9d02510c           0xa4         164   
.text.TCPIP_IPV4_Initia 0x9d0251b0           0xa4         164   
.text.Console_UART_Stat 0x9d025254           0xa0         160   
.text._TcpClientSocketC 0x9d0252f4           0xa0         160   
.text._TCPSendWinIncUpd 0x9d025394           0xa0         160   
.text.TCPIP_UDP_PutIsRe 0x9d025434           0xa0         160   
.rodata                 0x9d0254d4           0xa0         160  Read-only const 
.text.TCPIP_DNS_RemoveA 0x9d025574           0xa0         160   
.text.TCPIP_Helper_Sing 0x9d025614           0xa0         160   
.text._TCPIP_PKT_Packet 0x9d0256b4           0xa0         160   
.rodata                 0x9d025754           0x9c         156  Read-only const 
.text._DRV_ETHMAC_LinkS 0x9d0257f0           0x9c         156   
.text.Helper_SingleList 0x9d02588c           0x9c         156   
.text._DRV_USART_ErrorC 0x9d025928           0x9c         156   
.text.TCPIP_ARP_Probe   0x9d0259c4           0x9c         156   
.text._DNSDeleteCacheEn 0x9d025a60           0x9c         156   
.text.TCPIP_STACK_Strin 0x9d025afc           0x9c         156   
.text.write             0x9d025b98           0x9c         156   
.text.DRV_ETHMAC_PIC32M 0x9d025c34           0x98         152   
.text._EthTxSchedList   0x9d025ccc           0x98         152   
.text.DRV_ETHMAC_LibDes 0x9d025d64           0x98         152   
.text._DRV_ETHPHY_LinkS 0x9d025dfc           0x98         152   
.text._DRV_ETHPHY_Setup 0x9d025e94           0x98         152   
.text._DRV_MIIM_GetClie 0x9d025f2c           0x98         152   
.text._TcpCleanup       0x9d025fc4           0x98         152   
.text.TCPIP_TCP_Destina 0x9d02605c           0x98         152   
.text._UDPSetNewRxPacke 0x9d0260f4           0x98         152   
.text.TCPIP_Helper_IPAd 0x9d02618c           0x98         152   
.text.TCPIP_Helper_Form 0x9d026224           0x98         152   
.text                   0x9d0262bc           0x98         152  App's exec code 
.text._DRV_MIIM_GetObje 0x9d026354           0x94         148   
.text.DRV_MIIM_Register 0x9d0263e8           0x94         148   
.text.TCPIP_UDP_Destina 0x9d02647c           0x94         148   
.text.TCPIP_ARP_Deiniti 0x9d026510           0x94         148   
.text._DNS_CleanCacheEn 0x9d0265a4           0x94         148   
.text.TCPIP_Helper_Prot 0x9d026638           0x94         148   
.text.SYS_PORTS_Initial 0x9d0266cc           0x90         144   
.text._DRV_ETHMAC_LinkS 0x9d02675c           0x90         144   
.text.SYS_CONSOLE_Statu 0x9d0267ec           0x90         144   
.text.TCPIP_ARP_EntryGe 0x9d02687c           0x90         144   
.text._DHCPOptionClient 0x9d02690c           0x90         144   
.text.TCPIP_DNS_ClientD 0x9d02699c           0x90         144   
.text.TCPIP_Helper_Prot 0x9d026a2c           0x90         144   
.text.TCPIP_Helper_Prot 0x9d026abc           0x90         144   
.text._TCPIPStackIpAddF 0x9d026b4c           0x90         144   
.text.strstr            0x9d026bdc           0x90         144   
.text.TCPIP_UDP_TxOffse 0x9d026c6c           0x8c         140   
.text._DHCPCleanup      0x9d026cf8           0x8c         140   
.text._DHCPNotifyClient 0x9d026d84           0x8c         140   
.text._DNSDiscardName   0x9d026e10           0x8c         140   
.text._TCPIP_AnnounceCl 0x9d026e9c           0x8c         140   
.text.TCPIP_STACK_NetAl 0x9d026f28           0x8c         140   
.text.TCPIP_STACK_NetBi 0x9d026fb4           0x8c         140   
.text.rand              0x9d027040           0x8c         140   
.text.dptoul            0x9d0270cc           0x8c         140   
.text.__orderdf2        0x9d027158           0x8c         140   
.text.DRV_ETHMAC_LibClo 0x9d0271e4           0x88         136   
.text.SYS_CONSOLE_Write 0x9d02726c           0x88         136   
.text.hexatob           0x9d0272f4           0x88         136   
.text.TCPIP_UDP_Close   0x9d02737c           0x88         136   
.rodata                 0x9d027404           0x88         136  Read-only const 
.text.TCPIP_Helper_Prot 0x9d02748c           0x88         136   
.text._TCPIPStackModule 0x9d027514           0x88         136   
.text.DRV_ETHPHY_Vendor 0x9d02759c           0x84         132   
.text._DRV_MIIM_GetOpDc 0x9d027620           0x84         132   
.text._DRV_TMR_ModuleOb 0x9d0276a4           0x84         132   
.text.TCPIP_UDP_RxOffse 0x9d027728           0x84         132   
.text.TCPIP_UDP_SourceI 0x9d0277ac           0x84         132   
.text.zgzc_wait_for     0x9d027830           0x84         132   
.text._FieldSetMacName  0x9d0278b4           0x84         132   
.text.TCPIP_STACK_NetHa 0x9d027938           0x84         132   
.text._DRV_ETHPHY_NegCo 0x9d0279bc           0x80         128   
.text.ReadCommandCharac 0x9d027a3c           0x80         128   
.text.TCPIP_HEAP_Create 0x9d027abc           0x80         128   
.text.TCPIP_DNS_OAHASH_ 0x9d027b3c           0x80         128   
.text.TCPIP_ICMP_Initia 0x9d027bbc           0x80         128   
.text._ZCLLEnable       0x9d027c3c           0x80         128   
.text._FieldSetHostName 0x9d027cbc           0x80         128   
.text.TCPIP_Helper_MACA 0x9d027d3c           0x80         128   
.rodata                 0x9d027dc0           0x80         128  Read-only const 
.text.__fixunsdfdi      0x9d027e40           0x80         128   
.text.CommandCleanup    0x9d027ec0           0x7c         124   
.text.SYS_CONSOLE_Read  0x9d027f3c           0x7c         124   
.text._TCP_EphemeralPor 0x9d027fb8           0x7c         124   
.text._UDPAllocateEphem 0x9d028034           0x7c         124   
.text.TCPIP_ARP_Handler 0x9d0280b0           0x7c         124   
.text.TCPIP_PKT_Initial 0x9d02812c           0x7c         124   
.text.DRV_TMR_CounterVa 0x9d0281a8           0x78         120   
.rodata                 0x9d028220           0x78         120  Read-only const 
.text.TCPIP_TCP_Close   0x9d028298           0x78         120   
.text._DHCPOptionProces 0x9d028310           0x78         120   
.text.TCPIP_DHCP_IsEnab 0x9d028388           0x78         120   
.text.TCPIP_DHCP_Handle 0x9d028400           0x78         120   
.text._DNSClientCleanup 0x9d028478           0x78         120   
.text.TCPIP_ANNOUNCE_De 0x9d0284f0           0x78         120   
.text.TCPIP_Helper_Prot 0x9d028568           0x78         120   
.text._TCPIP_MacEventCB 0x9d0285e0           0x78         120   
.text.litodp            0x9d028658           0x78         120   
.text.DRV_ETHMAC_PIC32M 0x9d0286d0           0x74         116   
.text._MacRxFreeCallbac 0x9d028744           0x74         116   
.text._DRV_ETHPHY_Setup 0x9d0287b8           0x74         116   
.text.SYS_CONSOLE_Initi 0x9d02882c           0x74         116   
.text._TcpSocketSetSour 0x9d0288a0           0x74         116   
.text._TcpSwapHeader    0x9d028914           0x74         116   
.text._DHCPOptionProces 0x9d028988           0x74         116   
.text.TCPIP_Helper_Stri 0x9d0289fc           0x74         116   
.text._TCPIPStackAnyNet 0x9d028a70           0x74         116   
.text._TCPIPStackSignal 0x9d028ae4           0x74         116   
.text.strncpy           0x9d028b58           0x74         116   
.text._EnetPoolFreeDcpt 0x9d028bcc           0x70         112   
.text.DRV_MIIM_Deregist 0x9d028c3c           0x70         112   
.text.CommandQuit       0x9d028cac           0x70         112   
.rodata                 0x9d028d1c           0x70         112  Read-only const 
.text._UDPFreeTxResourc 0x9d028d8c           0x70         112   
.text._UDPClose         0x9d028dfc           0x70         112   
.text._ARPSetEntry      0x9d028e6c           0x70         112   
.text._ARPRemoveEntry   0x9d028edc           0x70         112   
.text.ANNOUNCE_Notify   0x9d028f4c           0x70         112   
.text._MiimOpen         0x9d028fbc           0x70         112   
.text._TCPIP_PKT_Packet 0x9d02902c           0x70         112   
.text.strncmp           0x9d02909c           0x70         112   
.text._MacTxFreeCallbac 0x9d02910c           0x6c         108   
.text._DRV_ETHPHY_Setup 0x9d029178           0x6c         108   
.text._TcpSocketKill    0x9d0291e4           0x6c         108   
.text.TCPIP_UDP_OpenCli 0x9d029250           0x6c         108   
.text.TCPIP_UDP_SocketN 0x9d0292bc           0x6c         108   
.text._DNSGetData       0x9d029328           0x6c         108   
.text._TCPIP_PKT_Socket 0x9d029394           0x6c         108   
.text._DRV_ETHPHY_NegRe 0x9d029400           0x68         104   
.text._DRV_ETHPHY_Setup 0x9d029468           0x68         104   
.text._DRV_TMR_Resume   0x9d0294d0           0x68         104   
.text.Console_UART_Flus 0x9d029538           0x68         104   
.text.SYS_RANDOM_Initia 0x9d0295a0           0x68         104   
.text.TCPIP_ARP_HashEnt 0x9d029608           0x68         104   
.text._DHCPSetRunFail   0x9d029670           0x68         104   
.text._DHCPSetTimeout   0x9d0296d8           0x68         104   
.text.TCPIP_DNS_RemoveE 0x9d029740           0x68         104   
.text.TCPIP_ZCLL_Enable 0x9d0297a8           0x68         104   
.text.TCPIP_STACK_IsBca 0x9d029810           0x68         104   
.text._TCPIPStackModule 0x9d029878           0x68         104   
.text._sprintf_cdnopsux 0x9d0298e0           0x68         104   
.text._APP_PumpDNS      0x9d029948           0x64         100   
.text._DRV_ETHPHY_NegCo 0x9d0299ac           0x64         100   
.text._DRV_ETHPHY_LinkS 0x9d029a10           0x64         100   
.text.DRV_MIIM_Deinitia 0x9d029a74           0x64         100   
.text.DRV_TMR_Start     0x9d029ad8           0x64         100   
.text.SendCommandCharac 0x9d029b3c           0x64         100   
.text.TCPIP_IPV4_Cleanu 0x9d029ba0           0x64         100   
.text.TCPIP_TCP_FifoTxF 0x9d029c04           0x64         100   
.text.TCPIP_TCP_SignalH 0x9d029c68           0x64         100   
.text.TCPIP_UDP_SignalH 0x9d029ccc           0x64         100   
.text.TCPIP_DHCP_Deinit 0x9d029d30           0x64         100   
.text.TCPIP_DNS_ClientI 0x9d029d94           0x64         100   
.text.TCPIP_ZCLL_Disabl 0x9d029df8           0x64         100   
.text.SYS_Tasks         0x9d029e5c           0x60          96   
.text.APP_Commands_Init 0x9d029ebc           0x60          96   
.text.IPv4RegisterFilte 0x9d029f1c           0x60          96   
.text.TCPIP_TCP_Connect 0x9d029f7c           0x60          96   
.text.TCPIP_TCP_Discard 0x9d029fdc           0x60          96   
.text.TCPIP_UDP_GetIsRe 0x9d02a03c           0x60          96   
.text.TCPIP_ARP_Callbac 0x9d02a09c           0x60          96   
.text._DHCPOptionProces 0x9d02a0fc           0x60          96   
.rodata                 0x9d02a15c           0x60          96  Read-only const 
.text.TCPIP_OAHASH_Entr 0x9d02a1bc           0x60          96   
.rodata                 0x9d02a21c           0x60          96  Read-only const 
.text._general_exceptio 0x9d02a27c           0x5c          92   
.text._MacTxDiscardQueu 0x9d02a2d8           0x5c          92   
.text.DRV_ETHPHY_LinkSt 0x9d02a334           0x5c          92   
.text.DRV_ETHPHY_Negoti 0x9d02a390           0x5c          92   
.text.DRV_TMR_AlarmEnab 0x9d02a3ec           0x5c          92   
.text._TCPSocketTxFreeS 0x9d02a448           0x5c          92   
.text.TCPIP_UDP_IsConne 0x9d02a4a4           0x5c          92   
.text._DNS_NetIsValid   0x9d02a500           0x5c          92   
.text._FieldSetMacAddr  0x9d02a55c           0x5c          92   
.text.fnv_32_hash       0x9d02a5b8           0x5c          92   
.text.TCPIP_Helper_Prot 0x9d02a614           0x5c          92   
.text.TCPIP_STACK_MACId 0x9d02a670           0x5c          92   
.text._vsnprintf_cdnops 0x9d02a6cc           0x5c          92   
.text.vsnprintf         0x9d02a728           0x5c          92   
.text.SYS_DEVCON_System 0x9d02a784           0x58          88   
.text.TCPIP_STACK_Init  0x9d02a7dc           0x58          88   
.text.DRV_ETHMAC_PIC32M 0x9d02a834           0x58          88   
.text.DRV_TMR_Open      0x9d02a88c           0x58          88   
.text.SendCommandMessag 0x9d02a8e4           0x58          88   
.text.TCPIP_IPV4_CheckP 0x9d02a93c           0x58          88   
.text._TCP_PortIsAvaila 0x9d02a994           0x58          88   
.text._DHCPOptionProces 0x9d02a9ec           0x58          88   
.text._DHCPOptionProces 0x9d02aa44           0x58          88   
.text._DHCPOptionProces 0x9d02aa9c           0x58          88   
.text.TCPIP_ZCLL_Deinit 0x9d02aaf4           0x58          88   
.text.TCPIP_STACK_Initi 0x9d02ab4c           0x58          88   
.text.TCPIP_STACK_NetBy 0x9d02aba4           0x58          88   
.text.TCPIP_Notificatio 0x9d02abfc           0x58          88   
.text.main_entry        0x9d02ac54           0x54          84   
.text.DRV_ETHMAC_PIC32M 0x9d02aca8           0x54          84   
.text._DRV_ETHMAC_LinkS 0x9d02acfc           0x54          84   
.text._EnetDescriptorsC 0x9d02ad50           0x54          84   
.text.SYS_INT_SourceDis 0x9d02ada4           0x54          84   
.text.TCPIP_ZCLL_Servic 0x9d02adf8           0x54          84   
.text._TCPIP_Helper_Sec 0x9d02ae4c           0x54          84   
.text.TCPIP_STACK_Addre 0x9d02aea0           0x54          84   
.text.TCPIP_Notificatio 0x9d02aef4           0x54          84   
.text._XtlEventsTcp2Eth 0x9d02af48           0x50          80   
.text.DRV_ETHPHY_HWConf 0x9d02af98           0x50          80   
.text._DRV_ETHPHY_NegRe 0x9d02afe8           0x50          80   
.text._DRV_ETHPHY_NegRe 0x9d02b038           0x50          80   
.text.DRV_MIIM_Close    0x9d02b088           0x50          80   
.rodata                 0x9d02b0d8           0x50          80  Read-only const 
.text._DRV_TMR_Suspend  0x9d02b128           0x50          80   
.text.SYS_TMR_ObjectDel 0x9d02b178           0x50          80   
.text._TCPSetSourceAddr 0x9d02b1c8           0x50          80   
.text._TCPSetHalfFlushF 0x9d02b218           0x50          80   
.text._TcpFlush         0x9d02b268           0x50          80   
.rodata                 0x9d02b2b8           0x50          80  Read-only const 
.text._TCPIP_HEAP_FreeS 0x9d02b308           0x50          80   
.text._DHCPOptionWriteP 0x9d02b358           0x50          80   
.text._DHCPOptionProces 0x9d02b3a8           0x50          80   
.text.TCPIP_DNS_OAHASH_ 0x9d02b3f8           0x50          80   
.text.TCPIP_NBNS_Deinit 0x9d02b448           0x50          80   
.text._ZCLLDisable      0x9d02b498           0x50          80   
.text.TCPIP_Helper_Prot 0x9d02b4e8           0x50          80   
.text.TCPIP_Helper_Prot 0x9d02b538           0x50          80   
.text.TCPIP_STACK_NetMA 0x9d02b588           0x50          80   
.text.TCPIP_STACK_NetMA 0x9d02b5d8           0x50          80   
.text._TCPIPStackModule 0x9d02b628           0x50          80   
.text.sbrk              0x9d02b678           0x50          80   
.text.SYS_RESET_Softwar 0x9d02b6c8           0x4c          76   
.text._MACTxPacketAckCa 0x9d02b714           0x4c          76   
.text.DRV_ETHPHY_Close  0x9d02b760           0x4c          76   
.text._DRV_ETHPHY_Clien 0x9d02b7ac           0x4c          76   
.text._DRV_ETHPHY_Clien 0x9d02b7f8           0x4c          76   
.text._DRV_ETHPHY_Clien 0x9d02b844           0x4c          76   
.text._DRV_ETHPHY_Clien 0x9d02b890           0x4c          76   
.text._DRV_PHY_NegCompl 0x9d02b8dc           0x4c          76   
.text._DRV_ETHPHY_Clien 0x9d02b928           0x4c          76   
.text._DRV_ETHPHY_Clien 0x9d02b974           0x4c          76   
.text._DRV_ETHPHY_Setup 0x9d02b9c0           0x4c          76   
.text.DRV_ETHPHY_Reset  0x9d02ba0c           0x4c          76   
.text.DRV_ETHPHY_Negoti 0x9d02ba58           0x4c          76   
.text._DRV_ETHPHY_Clien 0x9d02baa4           0x4c          76   
.text._DRV_ETHPHY_Setup 0x9d02baf0           0x4c          76   
.text.SYS_CONSOLE_Tasks 0x9d02bb3c           0x4c          76   
.text.UARTDeviceEventHa 0x9d02bb88           0x4c          76   
.text.SYS_TMR_TickCount 0x9d02bbd4           0x4c          76   
.text.TCPIP_TCP_Flush   0x9d02bc20           0x4c          76   
.text.TCPIP_UDP_Discard 0x9d02bc6c           0x4c          76   
.text._TCPIP_HEAP_Callo 0x9d02bcb8           0x4c          76   
.text._ARPRemoveCacheEn 0x9d02bd04           0x4c          76   
.text.TCPIP_NBNS_Cleanu 0x9d02bd50           0x4c          76   
.text.TCPIP_STACK_NetAd 0x9d02bd9c           0x4c          76   
.text.TCPIP_STACK_MACId 0x9d02bde8           0x4c          76   
.text.TCPIP_STACK_DNSSe 0x9d02be34           0x4c          76   
.text._TCPIPStackSignal 0x9d02be80           0x4c          76   
.text.TCPIP_Notificatio 0x9d02becc           0x4c          76   
.text.calloc            0x9d02bf18           0x4c          76   
.text.SYS_CLK_Secondary 0x9d02bf64           0x48          72   
.text.SYS_DEVCON_System 0x9d02bfac           0x48          72   
.text.DRV_ETHPHY_Tasks  0x9d02bff4           0x48          72   
.text.DRV_ETHPHY_Restar 0x9d02c03c           0x48          72   
.text.DRV_ETHPHY_Reinit 0x9d02c084           0x48          72   
.text.DRV_TMR_Close     0x9d02c0cc           0x48          72   
.text.TCPIP_TCP_WasRese 0x9d02c114           0x48          72   
.text.TCPIP_TCP_SignalH 0x9d02c15c           0x48          72   
.text._UDPIsAvailablePo 0x9d02c1a4           0x48          72   
.text.TCPIP_UDP_Destina 0x9d02c1ec           0x48          72   
.text.TCPIP_UDP_SignalH 0x9d02c234           0x48          72   
.text._TCPIP_HEAP_Size  0x9d02c27c           0x48          72   
.text._TCPIP_HEAP_LastE 0x9d02c2c4           0x48          72   
.text.TCPIP_ARP_Handler 0x9d02c30c           0x48          72   
.text._DHCPOptionWriteM 0x9d02c354           0x48          72   
.text.TCPIP_Helper_Sing 0x9d02c39c           0x48          72   
.text.TCPIP_STACK_IPAdd 0x9d02c3e4           0x48          72   
.text.TCPIP_STACK_Netwo 0x9d02c42c           0x48          72   
.text.TCPIP_STACK_NetAd 0x9d02c474           0x48          72   
.text._bootstrap_except 0x9d02c4bc           0x48          72   
.vector_default         0x9d02c504           0x48          72   
.text.SYS_CLK_Initializ 0x9d02c54c           0x44          68   
.text.IsCommandReady    0x9d02c590           0x44          68   
.text.Ipv4DeRegisterFil 0x9d02c5d4           0x44          68   
.text.TCPIP_TCP_IsConne 0x9d02c618           0x44          68   
.rodata                 0x9d02c65c           0x44          68  Read-only const 
.text.TCPIP_UDP_TxPoint 0x9d02c6a0           0x44          68   
.text._SwapARPPacket    0x9d02c6e4           0x44          68   
.text.TCPIP_DHCP_Handle 0x9d02c728           0x44          68   
.text._TCPIP_STACK_Tick 0x9d02c76c           0x44          68   
.text.TCPIP_STACK_NetMa 0x9d02c7b0           0x44          68   
.text.TCPIP_STACK_NetIs 0x9d02c7f4           0x44          68   
.text.TCPIP_STACK_NetIs 0x9d02c838           0x44          68   
.text.TCPIP_STACK_NetAd 0x9d02c87c           0x44          68   
.text                   0x9d02c8c0           0x88         136  App's exec code 
.text._APP_Commands_Cha 0x9d02c948           0x40          64   
.text._DRV_PHY_SetOperD 0x9d02c988           0x40          64   
.text._DRV_ETHPHY_NegCo 0x9d02c9c8           0x40          64   
.text.TCPIP_TCP_ClientO 0x9d02ca08           0x40          64   
.text.TCPIP_TCP_PutIsRe 0x9d02ca48           0x40          64   
.text._UDPFreeRxQueue   0x9d02ca88           0x40          64   
.text.TCPIP_ICMP_Deinit 0x9d02cac8           0x40          64   
.text._ZCLLCleanup      0x9d02cb08           0x40          64   
.text.TCPIP_Commands_De 0x9d02cb48           0x40          64   
.text._MacCallocCallbac 0x9d02cb88           0x3c          60   
.text._DRV_ETHMAC_LinkS 0x9d02cbc4           0x3c          60   
.text.DRV_ETHMAC_Single 0x9d02cc00           0x3c          60   
.text._DRV_ETHPHY_Clien 0x9d02cc3c           0x3c          60   
.text._DRV_ETHPHY_NegRe 0x9d02cc78           0x3c          60   
.text.DRV_MIIM_Status   0x9d02ccb4           0x3c          60   
.text.Helper_SingleList 0x9d02ccf0           0x3c          60   
.text.DRV_USART_ClientS 0x9d02cd2c           0x3c          60   
.text.Console_UART_Read 0x9d02cd68           0x3c          60   
.text.SYS_DEBUG_Message 0x9d02cda4           0x3c          60   
.text._TCPIsGetReady    0x9d02cde0           0x3c          60   
.text.TCPIP_TCP_Disconn 0x9d02ce1c           0x3c          60   
.text._UDPTxPktValid    0x9d02ce58           0x3c          60   
.rodata                 0x9d02ce94           0x3c          60  Read-only const 
.text._ARPTxAckFnc      0x9d02ced0           0x3c          60   
.text.TCPIP_ARP_HashKey 0x9d02cf0c           0x3c          60   
.text.TCPIP_DNS_IsResol 0x9d02cf48           0x3c          60   
.text.TCPIP_OAHASH_Init 0x9d02cf84           0x3c          60   
.text.TCPIP_Helper_Sing 0x9d02cfc0           0x3c          60   
.text._TCPIPSignalEntry 0x9d02cffc           0x3c          60   
.text.TCPIP_STACK_Index 0x9d02d038           0x3c          60   
.text._TCPIPStackSetCon 0x9d02d074           0x3c          60   
.text.TCPIP_STACK_Deini 0x9d02d0b0           0x3c          60   
.text._TCPIPStackPacket 0x9d02d0ec           0x3c          60   
.text.DRV_ETHMAC_LibDes 0x9d02d128           0x38          56   
.text.DRV_ETHMAC_LibRxP 0x9d02d160           0x38          56   
.text.DRV_ETHMAC_LibRxS 0x9d02d198           0x38          56   
.text.DRV_ETHMAC_LibTxP 0x9d02d1d0           0x38          56   
.text._DRV_PHY_SMIReadS 0x9d02d208           0x38          56   
.text._DRV_PHY_SMIWrite 0x9d02d240           0x38          56   
.text._DRV_ETHPHY_Reset 0x9d02d278           0x38          56   
.text.CommandReset      0x9d02d2b0           0x38          56   
.text._TcpSocketChk     0x9d02d2e8           0x38          56   
.text._UDPSocketDcpt    0x9d02d320           0x38          56   
.text._ARPAllocateTxPac 0x9d02d358           0x38          56   
.text.TCPIP_ARP_Callbac 0x9d02d390           0x38          56   
.text.TCPIP_DHCP_Enable 0x9d02d3c8           0x38          56   
.text.TCPIP_DHCP_Renew  0x9d02d400           0x38          56   
.text.TCPIP_DHCP_Reques 0x9d02d438           0x38          56   
.text._FieldSetIpv4Addr 0x9d02d470           0x38          56   
.text.TCPIP_STACK_Addre 0x9d02d4a8           0x38          56   
.text.TCPIP_PKT_Payload 0x9d02d4e0           0x38          56   
.text.DRV_ETHPHY_PhyAdd 0x9d02d518           0x34          52   
.text.DRV_ETHPHY_Client 0x9d02d54c           0x34          52   
.text._DRV_ETHPHY_NegRe 0x9d02d580           0x34          52   
.text._DRV_ETHPHY_NegRe 0x9d02d5b4           0x34          52   
.text._DRV_ETHPHY_NegCo 0x9d02d5e8           0x34          52   
.text._DRV_ETHPHY_LinkS 0x9d02d61c           0x34          52   
.text.TCPIP_TCP_GetIsRe 0x9d02d650           0x34          52   
.text._UDPUpdatePacketL 0x9d02d684           0x34          52   
.text.TCPIP_STACK_NetAd 0x9d02d6b8           0x34          52   
.text.TCPIP_STACK_DNSSe 0x9d02d6ec           0x34          52   
.text.TCPIP_STACK_NetAd 0x9d02d720           0x34          52   
.text._TCPIPStackHandle 0x9d02d754           0x34          52   
.text.TCPIP_STACK_NetIs 0x9d02d788           0x34          52   
.text.SYS_INT_SourceRes 0x9d02d7bc           0x30          48   
.text.DRV_ETHMAC_PIC32M 0x9d02d7ec           0x30          48   
.text.DRV_ETHMAC_Single 0x9d02d81c           0x30          48   
.text.DRV_ETHPHY_Vendor 0x9d02d84c           0x30          48   
.text.Helper_SingleList 0x9d02d87c           0x30          48   
.text.DRV_MIIM_Read     0x9d02d8ac           0x30          48   
.text.DRV_MIIM_Write    0x9d02d8dc           0x30          48   
.text.DRV_MIIM_Scan     0x9d02d90c           0x30          48   
.text.SYS_CMDIO_GET_HAN 0x9d02d93c           0x30          48   
.text.popQueue          0x9d02d96c           0x30          48   
.text.SYS_DEBUG_Initial 0x9d02d99c           0x30          48   
.text._DHCPSocketRxSign 0x9d02d9cc           0x30          48   
.text.TCPIP_DHCP_IsActi 0x9d02d9fc           0x30          48   
.text._DNSSocketRxSigna 0x9d02da2c           0x30          48   
.text.TCPIP_ICMP_Cleanu 0x9d02da5c           0x30          48   
.text.NBNSSocketRxSigna 0x9d02da8c           0x30          48   
.text._TCPIP_AnnounceSo 0x9d02dabc           0x30          48   
.text.TCPIP_OAHASH_Entr 0x9d02daec           0x30          48   
.text.TCPIP_Helper_Sing 0x9d02db1c           0x30          48   
.text.TCPIP_STACK_NetAd 0x9d02db4c           0x30          48   
.text.TCPIP_STACK_NetAd 0x9d02db7c           0x30          48   
.text.TCPIP_STACK_NetMa 0x9d02dbac           0x30          48   
.text.TCPIP_STACK_Netwo 0x9d02dbdc           0x30          48   
.text._TCPIPStackModule 0x9d02dc0c           0x30          48   
.text.free              0x9d02dc3c           0x30          48   
.text._APP_Commands_Ope 0x9d02dc6c           0x2c          44   
.text.DRV_USART_BufferE 0x9d02dc98           0x2c          44   
.text._SYS_TMR_AlarmCal 0x9d02dcc4           0x2c          44   
.text.TCPIP_IPV4_MaxDat 0x9d02dcf0           0x2c          44   
.text.TCPIP_OAHASH_Entr 0x9d02dd1c           0x2c          44   
.text.TCPIP_Helper_TCPS 0x9d02dd48           0x2c          44   
.text.TCPIP_Helper_UDPS 0x9d02dd74           0x2c          44   
.text.TCPIP_STACK_NetDe 0x9d02dda0           0x2c          44   
.text.TCPIP_STACK_NetNa 0x9d02ddcc           0x2c          44   
.text.TCPIP_STACK_NetAd 0x9d02ddf8           0x2c          44   
.text.TCPIP_Notificatio 0x9d02de24           0x2c          44   
.text.strchr            0x9d02de50           0x2c          44   
.text._stub_sbd_memlayo 0x9d02de7c           0x2c          44   
.text.DRV_MIIM_ClientSt 0x9d02dea8           0x28          40   
.text._DRV_USART_Driver 0x9d02ded0           0x28          40   
.text.Console_UART_Regi 0x9d02def8           0x28          40   
.text.SYS_TMR_TickCount 0x9d02df20           0x28          40   
.text._FieldSetTruncate 0x9d02df48           0x28          40   
.text.TCPIP_STACK_NetAd 0x9d02df70           0x28          40   
.text.TCPIP_STACK_NetAd 0x9d02df98           0x28          40   
.text.TCPIP_STACK_NetMA 0x9d02dfc0           0x28          40   
.text._TCPIPStackSignal 0x9d02dfe8           0x28          40   
.text._snprintf_cdnopsu 0x9d02e010           0x28          40   
.text.DRV_ETHMAC_PIC32M 0x9d02e038           0x24          36   
.text.SYS_TMR_TickCount 0x9d02e05c           0x24          36   
.text.SYS_TMR_SystemCou 0x9d02e080           0x24          36   
.text._TCP_TxPktValid   0x9d02e0a4           0x24          36   
.rodata                 0x9d02e0c8           0x24          36  Read-only const 
.text._DHCPOptionWriteE 0x9d02e0ec           0x24          36   
.text.TCPIP_ZCLL_IsEnab 0x9d02e110           0x24          36   
.text._TCPIPSignalEntry 0x9d02e134           0x24          36   
.text.toupper           0x9d02e158           0x24          36   
.text.APP_Initialize    0x9d02e17c           0x20          32   
.text.main              0x9d02e19c           0x20          32   
.text.DRV_ETHMAC_PIC32M 0x9d02e1bc           0x20          32   
.text.SYS_CMD_MESSAGE   0x9d02e1dc           0x20          32   
.text._TCPIP_HEAP_FindD 0x9d02e1fc           0x20          32   
.text.TCPIP_HEAP_FreeDe 0x9d02e21c           0x20          32   
.rodata                 0x9d02e23c           0x20          32  Read-only const 
.text.TCPIP_DNS_OAHASH_ 0x9d02e25c           0x20          32   
.text.TCPIP_DNS_GetIPv4 0x9d02e27c           0x20          32   
.text.TCPIP_DNS_GetIPv6 0x9d02e29c           0x20          32   
.text.TCPIP_DNS_Enable  0x9d02e2bc           0x20          32   
.text.TCPIP_STACK_Statu 0x9d02e2dc           0x20          32   
.text.TCPIP_STACK_NetIs 0x9d02e2fc           0x20          32   
.text.TCPIP_STACK_Addre 0x9d02e31c           0x20          32   
.text.TCPIP_STACK_HeapH 0x9d02e33c           0x20          32   
.rodata                 0x9d02e35c           0x20          32  Read-only const 
.text.DRV_ETHPHY_Deinit 0x9d02e37c           0x1c          28   
.text.DRV_ETHPHY_Vendor 0x9d02e398           0x1c          28   
.text._DRV_ETHPHY_Clien 0x9d02e3b4           0x1c          28   
.rodata                 0x9d02e3d0           0x1c          28  Read-only const 
.text.SYS_INT_StatusGet 0x9d02e3ec           0x1c          28   
.text.SYS_INT_StatusRes 0x9d02e408           0x1c          28   
.text.SYS_RANDOM_Pseudo 0x9d02e424           0x1c          28   
.text.SYS_TMR_CallbackS 0x9d02e440           0x1c          28   
.text.SYS_TMR_CallbackP 0x9d02e45c           0x1c          28   
.text.btohexa_high      0x9d02e478           0x1c          28   
.text.btohexa_low       0x9d02e494           0x1c          28   
.text.TCPIP_UDP_ServerO 0x9d02e4b0           0x1c          28   
.text.TCPIP_UDP_ClientO 0x9d02e4cc           0x1c          28   
.text.TCPIP_UDP_TxPutIs 0x9d02e4e8           0x1c          28   
.text.TCPIP_UDP_Get     0x9d02e504           0x1c          28   
.text._TCPIP_HEAP_Alloc 0x9d02e520           0x1c          28   
.text.TCPIP_DNS_Resolve 0x9d02e53c           0x1c          28   
.rodata                 0x9d02e558           0x1c          28  Read-only const 
.text._Command_ZcllOnOf 0x9d02e574           0x1c          28   
.text._Command_DHCPSOnO 0x9d02e590           0x1c          28   
.text.TCPIP_Helper_Chec 0x9d02e5ac           0x1c          28   
.text.TCPIP_Notificatio 0x9d02e5c8           0x1c          28   
.text.srand             0x9d02e5e4           0x1c          28   
.text.SYS_DEVCON_JTAGDi 0x9d02e600           0x18          24   
.text.DRV_ETHPHY_Status 0x9d02e618           0x18          24   
.text.DRV_ETHPHY_Client 0x9d02e630           0x18          24   
.text.DRV_ETHPHY_Client 0x9d02e648           0x18          24   
.text.SYS_TMR_ModuleSta 0x9d02e660           0x18          24   
.text.TCPIP_ARP_HashKey 0x9d02e678           0x18          24   
.text.TCPIP_STACK_NetIn 0x9d02e690           0x18          24   
.text.TCPIP_STACK_NetIx 0x9d02e6a8           0x18          24   
.text.TCPIP_STACK_Gatew 0x9d02e6c0           0x18          24   
.text.TCPIP_STACK_Prima 0x9d02e6d8           0x18          24   
.text.TCPIP_STACK_Secon 0x9d02e6f0           0x18          24   
.text                   0x9d02e708           0x18          24  App's exec code 
.text.SYS_DEVCON_Initia 0x9d02e720           0x14          20   
.text.SYS_INT_Initializ 0x9d02e734           0x14          20   
.text.DRV_EXTPHY_MIICon 0x9d02e748           0x10          16   
.rodata                 0x9d02e758           0x10          16  Read-only const 
.text.TCPIP_ARP_HashKey 0x9d02e768           0x10          16   
.text._FieldSetUserStar 0x9d02e778           0x10          16   
.text.TCPIP_Helper_Sing 0x9d02e788           0x10          16   
.text.__exception_handl 0x9d02e798            0xc          12   
.text.SYS_CLK_SystemFre 0x9d02e7a4            0xc          12   
.text.SYS_CLK_Periphera 0x9d02e7b0            0xc          12   
.text.DRV_ETHMAC_PIC32M 0x9d02e7bc            0xc          12   
.text._DRV_ETHMAC_GetFr 0x9d02e7c8            0xc          12   
.text._DRV_ETHMAC_GetFr 0x9d02e7d4            0xc          12   
.text._DRV_ETHMAC_GetFr 0x9d02e7e0            0xc          12   
.text._DRV_ETHMAC_GetFr 0x9d02e7ec            0xc          12   
.text._DRV_ETHMAC_GetFr 0x9d02e7f8            0xc          12   
.text._DRV_ETHMAC_GetAl 0x9d02e804            0xc          12   
.text._DRV_ETHMAC_GetSC 0x9d02e810            0xc          12   
.text._DRV_ETHMAC_GetMC 0x9d02e81c            0xc          12   
.text.DRV_EXTPHY_SMIClo 0x9d02e828            0xc          12   
.text.TCPIP_STACK_Numbe 0x9d02e834            0xc          12   
.text.TCPIP_STACK_NetBI 0x9d02e840            0xc          12   
.text._TCPIPStackAddres 0x9d02e84c            0xc          12   
.text.AppPhyResetFuncti 0x9d02e858            0x8           8   
.text.DRV_ETHMAC_PIC32M 0x9d02e860            0x8           8   
.text.DRV_ETHMAC_PIC32M 0x9d02e868            0x8           8   
.text._DRV_ETHPHY_Clien 0x9d02e870            0x8           8   
.text.DRV_ETHPHY_SMIRea 0x9d02e878            0x8           8   
.text.DRV_ETHPHY_SMIWri 0x9d02e880            0x8           8   
.text.DRV_ETHPHY_SMISca 0x9d02e888            0x8           8   
.text.DRV_ETHPHY_SMISca 0x9d02e890            0x8           8   
.text.DRV_ETHPHY_SMISca 0x9d02e898            0x8           8   
.text.DRV_ETHPHY_SMISca 0x9d02e8a0            0x8           8   
.text.DRV_ETHPHY_SMISta 0x9d02e8a8            0x8           8   
.text.DRV_ETHPHY_SMIClo 0x9d02e8b0            0x8           8   
.text.DRV_MIIM_Reinitia 0x9d02e8b8            0x8           8   
.text.GetCommandCharact 0x9d02e8c0            0x8           8   
.text.SYS_DEBUG_ErrorLe 0x9d02e8c8            0x8           8   
.text.TCPIP_IPV4_IsFrag 0x9d02e8d0            0x8           8   
.text.TCPIP_TCP_Sockets 0x9d02e8d8            0x8           8   
.text.TCPIP_UDP_Sockets 0x9d02e8e0            0x8           8   
.text._TCPIP_HEAP_Buffe 0x9d02e8e8            0x8           8   
.text.TCPIP_HEAP_TraceG 0x9d02e8f0            0x8           8   
.text.TCPIP_HEAP_TraceG 0x9d02e8f8            0x8           8   
.text.TCPIP_HEAP_DistGe 0x9d02e900            0x8           8   
.text.TCPIP_HEAP_DistGe 0x9d02e908            0x8           8   
.text._DHCPOptionProces 0x9d02e910            0x8           8   
.text._FieldSetNone     0x9d02e918            0x8           8   
.text.TCPIP_STACK_NetDe 0x9d02e920            0x8           8   
.text.TCPIP_STACK_NetGe 0x9d02e928            0x8           8   
.text.TCPIP_PKT_Deiniti 0x9d02e930            0x8           8   
.text._on_reset         0x9d02e938            0x8           8   
.text._on_bootstrap     0x9d02e940            0x8           8   
.rodata                 0x9d02e948            0x8           8  Read-only const 
      Total kseg0_program_mem used  :     0x2e948      190792  36.4% of 0x80000

kseg0 Boot-Memory Usage
section                    address  length [bytes]      (dec)  Description
-------                 ----------  -------------------------  -----------
         Total kseg0_boot_mem used  :           0           0  <1% of 0x970

Exception-Memory Usage 
section                    address  length [bytes]      (dec)  Description
-------                 ----------  -------------------------  -----------
.app_excpt              0x9fc01180           0x10          16  General-Exception 
.vector_0               0x9fc01200            0x8           8  Interrupt Vector 0 
.vector_1               0x9fc01220            0x8           8  Interrupt Vector 1 
.vector_2               0x9fc01240            0x8           8  Interrupt Vector 2 
.vector_3               0x9fc01260            0x8           8  Interrupt Vector 3 
.vector_4               0x9fc01280            0x8           8  Interrupt Vector 4 
.vector_5               0x9fc012a0            0x8           8  Interrupt Vector 5 
.vector_6               0x9fc012c0            0x8           8  Interrupt Vector 6 
.vector_7               0x9fc012e0            0x8           8  Interrupt Vector 7 
.vector_8               0x9fc01300            0x8           8  Interrupt Vector 8 
.vector_9               0x9fc01320            0x8           8  Interrupt Vector 9 
.vector_10              0x9fc01340            0x8           8  Interrupt Vector 10 
.vector_11              0x9fc01360            0x8           8  Interrupt Vector 11 
.vector_12              0x9fc01380            0x8           8  Interrupt Vector 12 
.vector_13              0x9fc013a0            0x8           8  Interrupt Vector 13 
.vector_14              0x9fc013c0            0x8           8  Interrupt Vector 14 
.vector_15              0x9fc013e0            0x8           8  Interrupt Vector 15 
.vector_16              0x9fc01400            0x8           8  Interrupt Vector 16 
.vector_17              0x9fc01420            0x8           8  Interrupt Vector 17 
.vector_18              0x9fc01440            0x8           8  Interrupt Vector 18 
.vector_19              0x9fc01460            0x8           8  Interrupt Vector 19 
.vector_20              0x9fc01480            0x8           8  Interrupt Vector 20 
.vector_21              0x9fc014a0            0x8           8  Interrupt Vector 21 
.vector_22              0x9fc014c0            0x8           8  Interrupt Vector 22 
.vector_23              0x9fc014e0            0x8           8  Interrupt Vector 23 
.vector_24              0x9fc01500            0x8           8  Interrupt Vector 24 
.vector_25              0x9fc01520            0x8           8  Interrupt Vector 25 
.vector_26              0x9fc01540            0x8           8  Interrupt Vector 26 
.vector_27              0x9fc01560            0x8           8  Interrupt Vector 27 
.vector_28              0x9fc01580            0x8           8  Interrupt Vector 28 
.vector_29              0x9fc015a0            0x8           8  Interrupt Vector 29 
.vector_30              0x9fc015c0            0x8           8  Interrupt Vector 30 
.vector_31              0x9fc015e0            0x8           8  Interrupt Vector 31 
.vector_32              0x9fc01600            0x8           8  Interrupt Vector 32 
.vector_33              0x9fc01620            0x8           8  Interrupt Vector 33 
.vector_34              0x9fc01640            0x8           8  Interrupt Vector 34 
.vector_35              0x9fc01660            0x8           8  Interrupt Vector 35 
.vector_36              0x9fc01680            0x8           8  Interrupt Vector 36 
.vector_37              0x9fc016a0            0x8           8  Interrupt Vector 37 
.vector_38              0x9fc016c0            0x8           8  Interrupt Vector 38 
.vector_39              0x9fc016e0            0x8           8  Interrupt Vector 39 
.vector_40              0x9fc01700            0x8           8  Interrupt Vector 40 
.vector_41              0x9fc01720            0x8           8  Interrupt Vector 41 
.vector_42              0x9fc01740            0x8           8  Interrupt Vector 42 
.vector_43              0x9fc01760            0x8           8  Interrupt Vector 43 
.vector_44              0x9fc01780            0x8           8  Interrupt Vector 44 
.vector_45              0x9fc017a0            0x8           8  Interrupt Vector 45 
.vector_46              0x9fc017c0            0x8           8  Interrupt Vector 46 
.vector_47              0x9fc017e0            0x8           8  Interrupt Vector 47 
.vector_48              0x9fc01800            0x8           8  Interrupt Vector 48 
.vector_49              0x9fc01820            0x8           8  Interrupt Vector 49 
.vector_50              0x9fc01840            0x8           8  Interrupt Vector 50 
.vector_51              0x9fc01860            0x8           8  Interrupt Vector 51 
          Total exception_mem used  :       0x1b0         432  10.5% of 0x1000

kseg1 Boot-Memory Usage
section                    address  length [bytes]      (dec)  Description
-------                 ----------  -------------------------  -----------
.reset                  0xbfc00000          0x208         520  Reset handler 
.bev_excpt              0xbfc00380           0x10          16  BEV-Exception 
         Total kseg1_boot_mem used  :       0x218         536  45.9% of 0x490
        --------------------------------------------------------------------------
         Total Program Memory used  :     0x2ed10      191760  36.0% of 0x81e00
        --------------------------------------------------------------------------


kseg0 Data-Memory Usage
section                    address  length [bytes]      (dec)  Description
-------                 ----------  -------------------------  -----------
reserve_data_0_kseg0    0x80000000          0x200         512   
         Total kseg0_data_mem used  :       0x200         512  100.0% of 0x200

kseg1 Data-Memory Usage
section                    address  length [bytes]      (dec)  Description
-------                 ----------  -------------------------  -----------
reserve_data_0_kseg1    0xa0000000          0x200         512   
.sdata                  0xa0000200           0x34          52  Small init data 
.sbss                   0xa0000234          0x17c         380  Small uninit data 
.bss                    0xa00003b0          0x8cc        2252  Uninitialized data 
.bss                    0xa0000c7c          0x6c4        1732  Uninitialized data 
.bss                    0xa0001340          0x200         512  Uninitialized data 
.data                   0xa0001540          0x1b8         440  Initialized data 
.bss                    0xa00016f8          0x128         296  Uninitialized data 
.bss                    0xa0001820           0xc4         196  Uninitialized data 
.bss                    0xa00018e4           0x80         128  Uninitialized data 
.bss                    0xa0001964           0x5c          92  Uninitialized data 
.data                   0xa00019c0           0x28          40  Initialized data 
.bss                    0xa00019e8           0x44          68  Uninitialized data 
.bss                    0xa0001a2c           0x40          64  Uninitialized data 
.data                   0xa0001a6c           0x1c          28  Initialized data 
.bss                    0xa0001a88           0x30          48  Uninitialized data 
.bss                    0xa0001ab8           0x20          32  Uninitialized data 
.bss                    0xa0001ad8           0x1c          28  Uninitialized data 
.bss.errno              0xa0001af4            0x4           4   
         Total kseg1_data_mem used  :      0x1af8        6904  5.3% of 0x20000
        --------------------------------------------------------------------------
            Total Data Memory used  :      0x1cf8        7416  5.6% of 0x20200
        --------------------------------------------------------------------------


Dynamic Data-Memory Reservation
section                    address  length [bytes]      (dec)  Description
-------                 ----------  -------------------------  -----------
heap                    0xa0001b00         0xafa0       44960  Reserved for heap 
stack                   0xa000cab8        0x13540       79168  Reserved for stack 

        --------------------------------------------------------------------------

Discarded input sections

 .text          0x00000000        0x0 c:/program files (x86)/microchip/xc32/v1.43/bin/bin/../../lib/gcc/pic32mx/4.8.3/../../../../pic32mx/lib/./proc/32MX795F512H/crt0_mips32r2.o
 .data          0x00000000        0x0 c:/program files (x86)/microchip/xc32/v1.43/bin/bin/../../lib/gcc/pic32mx/4.8.3/../../../../pic32mx/lib/./proc/32MX795F512H/crt0_mips32r2.o
 .bss           0x00000000        0x0 c:/program files (x86)/microchip/xc32/v1.43/bin/bin/../../lib/gcc/pic32mx/4.8.3/../../../../pic32mx/lib/./proc/32MX795F512H/crt0_mips32r2.o
 .text          0x00000000        0x0 c:/program files (x86)/microchip/xc32/v1.43/bin/bin/../../lib/gcc/pic32mx/4.8.3/../../../../pic32mx/lib\software-debug-break.o
 .data          0x00000000        0x0 c:/program files (x86)/microchip/xc32/v1.43/bin/bin/../../lib/gcc/pic32mx/4.8.3/../../../../pic32mx/lib\software-debug-break.o
 .bss           0x00000000        0x0 c:/program files (x86)/microchip/xc32/v1.43/bin/bin/../../lib/gcc/pic32mx/4.8.3/../../../../pic32mx/lib\software-debug-break.o
 .reginfo       0x00000000       0x18 c:/program files (x86)/microchip/xc32/v1.43/bin/bin/../../lib/gcc/pic32mx/4.8.3/../../../../pic32mx/lib\software-debug-break.o
 .text          0x00000000        0x0 build/default/debug/_ext/1278673032/net_pres_enc_glue.o
 .data          0x00000000        0x0 build/default/debug/_ext/1278673032/net_pres_enc_glue.o
 .bss           0x00000000        0x0 build/default/debug/_ext/1278673032/net_pres_enc_glue.o
 .reginfo       0x00000000       0x18 build/default/debug/_ext/1278673032/net_pres_enc_glue.o
 .text          0x00000000        0x0 build/default/debug/_ext/639803181/sys_clk_pic32mx.o
 .data          0x00000000        0x0 build/default/debug/_ext/639803181/sys_clk_pic32mx.o
 .bss           0x00000000        0x0 build/default/debug/_ext/639803181/sys_clk_pic32mx.o
 .reginfo       0x00000000       0x18 build/default/debug/_ext/639803181/sys_clk_pic32mx.o
 .text.SYS_CLK_ReferenceFrequencyGet
                0x00000000        0x8 build/default/debug/_ext/639803181/sys_clk_pic32mx.o
 .text.SYS_CLK_SecondaryOscillatorDisable
                0x00000000       0x48 build/default/debug/_ext/639803181/sys_clk_pic32mx.o
 .text.SYS_CLK_SecondaryOscillatorIsEnabled
                0x00000000       0x10 build/default/debug/_ext/639803181/sys_clk_pic32mx.o
 .text          0x00000000        0x0 build/default/debug/_ext/340578644/sys_devcon.o
 .data          0x00000000        0x0 build/default/debug/_ext/340578644/sys_devcon.o
 .bss           0x00000000        0x0 build/default/debug/_ext/340578644/sys_devcon.o
 .reginfo       0x00000000       0x18 build/default/debug/_ext/340578644/sys_devcon.o
 .text.SYS_DEVCON_Reinitialize
                0x00000000       0x10 build/default/debug/_ext/340578644/sys_devcon.o
 .text.SYS_DEVCON_Deinitialize
                0x00000000        0x8 build/default/debug/_ext/340578644/sys_devcon.o
 .text.SYS_DEVCON_Status
                0x00000000        0x8 build/default/debug/_ext/340578644/sys_devcon.o
 .text.SYS_DEVCON_Tasks
                0x00000000        0x8 build/default/debug/_ext/340578644/sys_devcon.o
 .text.SYS_DEVCON_JTAGEnable
                0x00000000       0x18 build/default/debug/_ext/340578644/sys_devcon.o
 .text.SYS_DEVCON_TraceEnable
                0x00000000       0x1c build/default/debug/_ext/340578644/sys_devcon.o
 .text.SYS_DEVCON_TraceDisable
                0x00000000       0x18 build/default/debug/_ext/340578644/sys_devcon.o
 .text.SYS_DEVCON_PowerModeEnter
                0x00000000       0x44 build/default/debug/_ext/340578644/sys_devcon.o
 .text          0x00000000        0x0 build/default/debug/_ext/340578644/sys_devcon_pic32mx.o
 .data          0x00000000        0x0 build/default/debug/_ext/340578644/sys_devcon_pic32mx.o
 .bss           0x00000000        0x0 build/default/debug/_ext/340578644/sys_devcon_pic32mx.o
 .reginfo       0x00000000       0x18 build/default/debug/_ext/340578644/sys_devcon_pic32mx.o
 .text          0x00000000        0x0 build/default/debug/_ext/822048611/sys_ports_static.o
 .data          0x00000000        0x0 build/default/debug/_ext/822048611/sys_ports_static.o
 .bss           0x00000000        0x0 build/default/debug/_ext/822048611/sys_ports_static.o
 .reginfo       0x00000000       0x18 build/default/debug/_ext/822048611/sys_ports_static.o
 .text.SYS_PORTS_Read
                0x00000000       0x28 build/default/debug/_ext/822048611/sys_ports_static.o
 .text.SYS_PORTS_Write
                0x00000000       0x28 build/default/debug/_ext/822048611/sys_ports_static.o
 .text.SYS_PORTS_LatchedGet
                0x00000000        0x8 build/default/debug/_ext/822048611/sys_ports_static.o
 .text.SYS_PORTS_Set
                0x00000000       0x2c build/default/debug/_ext/822048611/sys_ports_static.o
 .text.SYS_PORTS_Clear
                0x00000000       0x28 build/default/debug/_ext/822048611/sys_ports_static.o
 .text.SYS_PORTS_DirectionSelect
                0x00000000       0x54 build/default/debug/_ext/822048611/sys_ports_static.o
 .text.SYS_PORTS_DirectionGet
                0x00000000       0x28 build/default/debug/_ext/822048611/sys_ports_static.o
 .text.SYS_PORTS_Toggle
                0x00000000       0x28 build/default/debug/_ext/822048611/sys_ports_static.o
 .text.SYS_PORTS_OpenDrainEnable
                0x00000000       0x28 build/default/debug/_ext/822048611/sys_ports_static.o
 .text.SYS_PORTS_OpenDrainDisable
                0x00000000       0x28 build/default/debug/_ext/822048611/sys_ports_static.o
 .text.SYS_PORTS_InterruptStatusGet
                0x00000000        0x8 build/default/debug/_ext/822048611/sys_ports_static.o
 .text.SYS_PORTS_ChangeNotificationGlobalEnable
                0x00000000       0x14 build/default/debug/_ext/822048611/sys_ports_static.o
 .text.SYS_PORTS_ChangeNotificationGlobalDisable
                0x00000000       0x14 build/default/debug/_ext/822048611/sys_ports_static.o
 .text.SYS_PORTS_GlobalChangeNotificationDisable
                0x00000000       0x14 build/default/debug/_ext/822048611/sys_ports_static.o
 .text.SYS_PORTS_ChangeNotificationEnable
                0x00000000       0x50 build/default/debug/_ext/822048611/sys_ports_static.o
 .text.SYS_PORTS_ChangeNotificationDisable
                0x00000000       0x18 build/default/debug/_ext/822048611/sys_ports_static.o
 .text.SYS_PORTS_ChangeNotificationInIdleModeEnable
                0x00000000       0x14 build/default/debug/_ext/822048611/sys_ports_static.o
 .text.SYS_PORTS_ChangeNotificationInIdleModeDisable
                0x00000000       0x14 build/default/debug/_ext/822048611/sys_ports_static.o
 .text.SYS_PORTS_ChangeNotificationPullUpEnable
                0x00000000       0x18 build/default/debug/_ext/822048611/sys_ports_static.o
 .text.SYS_PORTS_ChangeNotificationPullUpDisable
                0x00000000       0x18 build/default/debug/_ext/822048611/sys_ports_static.o
 .text.SYS_PORTS_PinModeSelect
                0x00000000       0x2c build/default/debug/_ext/822048611/sys_ports_static.o
 .text.SYS_PORTS_PinWrite
                0x00000000       0x60 build/default/debug/_ext/822048611/sys_ports_static.o
 .text.SYS_PORTS_PinLatchedGet
                0x00000000        0x8 build/default/debug/_ext/822048611/sys_ports_static.o
 .text.SYS_PORTS_PinRead
                0x00000000       0x2c build/default/debug/_ext/822048611/sys_ports_static.o
 .text.SYS_PORTS_PinToggle
                0x00000000       0x30 build/default/debug/_ext/822048611/sys_ports_static.o
 .text.SYS_PORTS_PinSet
                0x00000000       0x30 build/default/debug/_ext/822048611/sys_ports_static.o
 .text.SYS_PORTS_PinClear
                0x00000000       0x30 build/default/debug/_ext/822048611/sys_ports_static.o
 .text.SYS_PORTS_PinDirectionSelect
                0x00000000       0x60 build/default/debug/_ext/822048611/sys_ports_static.o
 .text.SYS_PORTS_PinOpenDrainEnable
                0x00000000       0x30 build/default/debug/_ext/822048611/sys_ports_static.o
 .text.SYS_PORTS_PinOpenDrainDisable
                0x00000000       0x30 build/default/debug/_ext/822048611/sys_ports_static.o
 .text.SYS_PORTS_PinPullUpEnable
                0x00000000        0x8 build/default/debug/_ext/822048611/sys_ports_static.o
 .text.SYS_PORTS_PinPullUpDisable
                0x00000000        0x8 build/default/debug/_ext/822048611/sys_ports_static.o
 .text.SYS_PORTS_PinPullDownEnable
                0x00000000        0x8 build/default/debug/_ext/822048611/sys_ports_static.o
 .text.SYS_PORTS_PinPullDownDisable
                0x00000000        0x8 build/default/debug/_ext/822048611/sys_ports_static.o
 .text.SYS_PORTS_InterruptEnable
                0x00000000        0x8 build/default/debug/_ext/822048611/sys_ports_static.o
 .text.SYS_PORTS_RemapInput
                0x00000000        0x8 build/default/debug/_ext/822048611/sys_ports_static.o
 .text.SYS_PORTS_RemapOutput
                0x00000000        0x8 build/default/debug/_ext/822048611/sys_ports_static.o
 .text          0x00000000        0x0 build/default/debug/_ext/68765530/sys_reset.o
 .data          0x00000000        0x0 build/default/debug/_ext/68765530/sys_reset.o
 .bss           0x00000000        0x0 build/default/debug/_ext/68765530/sys_reset.o
 .reginfo       0x00000000       0x18 build/default/debug/_ext/68765530/sys_reset.o
 .text.SYS_RESET_ReasonGet
                0x00000000       0x10 build/default/debug/_ext/68765530/sys_reset.o
 .text.SYS_RESET_ReasonClear
                0x00000000       0x10 build/default/debug/_ext/68765530/sys_reset.o
 .text.SYS_RESET_NMIDelayCountSet
                0x00000000       0x34 build/default/debug/_ext/68765530/sys_reset.o
 .text          0x00000000        0x0 build/default/debug/_ext/1688732426/system_init.o
 .reginfo       0x00000000       0x18 build/default/debug/_ext/1688732426/system_init.o
 .text          0x00000000        0x0 build/default/debug/_ext/1688732426/system_interrupt.o
 .data          0x00000000        0x0 build/default/debug/_ext/1688732426/system_interrupt.o
 .bss           0x00000000        0x0 build/default/debug/_ext/1688732426/system_interrupt.o
 .reginfo       0x00000000       0x18 build/default/debug/_ext/1688732426/system_interrupt.o
 .text          0x00000000        0x0 build/default/debug/_ext/1688732426/system_exceptions.o
 .data          0x00000000        0x0 build/default/debug/_ext/1688732426/system_exceptions.o
 .bss           0x00000000        0x0 build/default/debug/_ext/1688732426/system_exceptions.o
 .reginfo       0x00000000       0x18 build/default/debug/_ext/1688732426/system_exceptions.o
 .text          0x00000000        0x0 build/default/debug/_ext/1688732426/system_tasks.o
 .data          0x00000000        0x0 build/default/debug/_ext/1688732426/system_tasks.o
 .bss           0x00000000        0x0 build/default/debug/_ext/1688732426/system_tasks.o
 .reginfo       0x00000000       0x18 build/default/debug/_ext/1688732426/system_tasks.o
 .text          0x00000000        0x0 build/default/debug/_ext/1360937237/app.o
 .data          0x00000000        0x0 build/default/debug/_ext/1360937237/app.o
 .bss           0x00000000        0x0 build/default/debug/_ext/1360937237/app.o
 .reginfo       0x00000000       0x18 build/default/debug/_ext/1360937237/app.o
 .text.App_SendInfo
                0x00000000       0x2c build/default/debug/_ext/1360937237/app.o
 .text          0x00000000        0x0 build/default/debug/_ext/1360937237/main.o
 .data          0x00000000        0x0 build/default/debug/_ext/1360937237/main.o
 .bss           0x00000000        0x0 build/default/debug/_ext/1360937237/main.o
 .reginfo       0x00000000       0x18 build/default/debug/_ext/1360937237/main.o
 .text          0x00000000        0x0 build/default/debug/_ext/1360937237/app_command.o
 .data          0x00000000        0x0 build/default/debug/_ext/1360937237/app_command.o
 .bss           0x00000000        0x0 build/default/debug/_ext/1360937237/app_command.o
 .reginfo       0x00000000       0x18 build/default/debug/_ext/1360937237/app_command.o
 .text          0x00000000        0x0 build/default/debug/_ext/1749672254/drv_ethmac.o
 .bss           0x00000000        0x0 build/default/debug/_ext/1749672254/drv_ethmac.o
 .reginfo       0x00000000       0x18 build/default/debug/_ext/1749672254/drv_ethmac.o
 .text          0x00000000        0x0 build/default/debug/_ext/1749672254/drv_ethmac_lib.o
 .data          0x00000000        0x0 build/default/debug/_ext/1749672254/drv_ethmac_lib.o
 .bss           0x00000000        0x0 build/default/debug/_ext/1749672254/drv_ethmac_lib.o
 .reginfo       0x00000000       0x18 build/default/debug/_ext/1749672254/drv_ethmac_lib.o
 .text.DRV_ETHMAC_LibDescriptorsPoolRemove
                0x00000000       0xc4 build/default/debug/_ext/1749672254/drv_ethmac_lib.o
 .text.DRV_ETHMAC_LibTxSendBuffer
                0x00000000       0xc4 build/default/debug/_ext/1749672254/drv_ethmac_lib.o
 .text.DRV_ETHMAC_LibTxGetBufferStatus
                0x00000000       0x84 build/default/debug/_ext/1749672254/drv_ethmac_lib.o
 .text.DRV_ETHMAC_LibRxGetBuffer
                0x00000000       0x3c build/default/debug/_ext/1749672254/drv_ethmac_lib.o
 .text          0x00000000        0x0 build/default/debug/_ext/573518448/drv_ethphy.o
 .data          0x00000000        0x0 build/default/debug/_ext/573518448/drv_ethphy.o
 .reginfo       0x00000000       0x18 build/default/debug/_ext/573518448/drv_ethphy.o
 .text          0x00000000        0x0 build/default/debug/_ext/573518448/drv_extphy_smsc8720.o
 .data          0x00000000        0x0 build/default/debug/_ext/573518448/drv_extphy_smsc8720.o
 .bss           0x00000000        0x0 build/default/debug/_ext/573518448/drv_extphy_smsc8720.o
 .reginfo       0x00000000       0x18 build/default/debug/_ext/573518448/drv_extphy_smsc8720.o
 .text          0x00000000        0x0 build/default/debug/_ext/1568515672/drv_miim.o
 .data          0x00000000        0x0 build/default/debug/_ext/1568515672/drv_miim.o
 .reginfo       0x00000000       0x18 build/default/debug/_ext/1568515672/drv_miim.o
 .text.PLIB_ETH_ClearDataValid
                0x00000000       0x10 build/default/debug/_ext/1568515672/drv_miim.o
 .text.Helper_SingleListInitialize
                0x00000000       0x10 build/default/debug/_ext/1568515672/drv_miim.o
 .text          0x00000000        0x0 build/default/debug/_ext/528688037/drv_tmr.o
 .data          0x00000000        0x0 build/default/debug/_ext/528688037/drv_tmr.o
 .reginfo       0x00000000       0x18 build/default/debug/_ext/528688037/drv_tmr.o
 .text.DRV_TMR_Deinitialize
                0x00000000       0x54 build/default/debug/_ext/528688037/drv_tmr.o
 .text.DRV_TMR_Status
                0x00000000       0x28 build/default/debug/_ext/528688037/drv_tmr.o
 .text.DRV_TMR_ClientStatus
                0x00000000       0x44 build/default/debug/_ext/528688037/drv_tmr.o
 .text.DRV_TMR_CounterValueSet
                0x00000000       0x60 build/default/debug/_ext/528688037/drv_tmr.o
 .text.DRV_TMR_CounterClear
                0x00000000       0x58 build/default/debug/_ext/528688037/drv_tmr.o
 .text.DRV_TMR_AlarmDisable
                0x00000000       0x64 build/default/debug/_ext/528688037/drv_tmr.o
 .text.DRV_TMR_AlarmPeriodSet
                0x00000000       0xa0 build/default/debug/_ext/528688037/drv_tmr.o
 .text.DRV_TMR_AlarmPeriodGet
                0x00000000       0x3c build/default/debug/_ext/528688037/drv_tmr.o
 .text.DRV_TMR_AlarmDeregister
                0x00000000       0x60 build/default/debug/_ext/528688037/drv_tmr.o
 .text.DRV_TMR_Stop
                0x00000000       0x7c build/default/debug/_ext/528688037/drv_tmr.o
 .text.DRV_TMR_AlarmHasElapsed
                0x00000000       0x3c build/default/debug/_ext/528688037/drv_tmr.o
 .text.DRV_TMR_OperationModeGet
                0x00000000       0x3c build/default/debug/_ext/528688037/drv_tmr.o
 .text.DRV_TMR_DividerRangeGet
                0x00000000       0x74 build/default/debug/_ext/528688037/drv_tmr.o
 .text.DRV_TMR_GateModeSet
                0x00000000       0x6c build/default/debug/_ext/528688037/drv_tmr.o
 .text.DRV_TMR_GateModeClear
                0x00000000       0x6c build/default/debug/_ext/528688037/drv_tmr.o
 .text.DRV_TMR_ClockSet
                0x00000000       0xa4 build/default/debug/_ext/528688037/drv_tmr.o
 .text.DRV_TMR_PrescalerGet
                0x00000000      0x134 build/default/debug/_ext/528688037/drv_tmr.o
 .text          0x00000000        0x0 build/default/debug/_ext/427015431/drv_usart.o
 .data          0x00000000        0x0 build/default/debug/_ext/427015431/drv_usart.o
 .bss           0x00000000        0x0 build/default/debug/_ext/427015431/drv_usart.o
 .reginfo       0x00000000       0x18 build/default/debug/_ext/427015431/drv_usart.o
 .text.DRV_USART_Deinitialize
                0x00000000       0xfc build/default/debug/_ext/427015431/drv_usart.o
 .text.DRV_USART_Status
                0x00000000       0x78 build/default/debug/_ext/427015431/drv_usart.o
 .text.DRV_USART_ByteTransmitCallbackSet
                0x00000000       0x3c build/default/debug/_ext/427015431/drv_usart.o
 .text.DRV_USART_ByteReceiveCallbackSet
                0x00000000       0x3c build/default/debug/_ext/427015431/drv_usart.o
 .text.DRV_USART_ByteErrorCallbackSet
                0x00000000       0x3c build/default/debug/_ext/427015431/drv_usart.o
 .text.DRV_USART_ErrorGet
                0x00000000       0x48 build/default/debug/_ext/427015431/drv_usart.o
 .text.DRV_USART_TransferStatus
                0x00000000       0x84 build/default/debug/_ext/427015431/drv_usart.o
 .text._DRV_USART_ClientBufferQueueObjectsRemove
                0x00000000      0x210 build/default/debug/_ext/427015431/drv_usart.o
 .text.DRV_USART_Close
                0x00000000       0x94 build/default/debug/_ext/427015431/drv_usart.o
 .text._DRV_USART_ByteTransmitTasks
                0x00000000       0x88 build/default/debug/_ext/427015431/drv_usart.o
 .text._DRV_USART_ByteReceiveTasks
                0x00000000       0x70 build/default/debug/_ext/427015431/drv_usart.o
 .text._DRV_USART_ByteErrorTasks
                0x00000000       0x88 build/default/debug/_ext/427015431/drv_usart.o
 .text          0x00000000        0x0 build/default/debug/_ext/427015431/drv_usart_buffer_queue.o
 .data          0x00000000        0x0 build/default/debug/_ext/427015431/drv_usart_buffer_queue.o
 .bss           0x00000000        0x0 build/default/debug/_ext/427015431/drv_usart_buffer_queue.o
 .reginfo       0x00000000       0x18 build/default/debug/_ext/427015431/drv_usart_buffer_queue.o
 .text.DRV_USART_AddressedBufferAddWrite
                0x00000000      0x2b4 build/default/debug/_ext/427015431/drv_usart_buffer_queue.o
 .text.DRV_USART_BufferProcessedSizeGet
                0x00000000       0x50 build/default/debug/_ext/427015431/drv_usart_buffer_queue.o
 .text.DRV_USART_BufferCompletedBytesGet
                0x00000000       0x4c build/default/debug/_ext/427015431/drv_usart_buffer_queue.o
 .text.DRV_USART_BufferRemove
                0x00000000      0x1a8 build/default/debug/_ext/427015431/drv_usart_buffer_queue.o
 .text          0x00000000        0x0 build/default/debug/_ext/427015431/drv_usart_read_write.o
 .data          0x00000000        0x0 build/default/debug/_ext/427015431/drv_usart_read_write.o
 .bss           0x00000000        0x0 build/default/debug/_ext/427015431/drv_usart_read_write.o
 .reginfo       0x00000000       0x18 build/default/debug/_ext/427015431/drv_usart_read_write.o
 .text.DRV_USART_Write
                0x00000000      0x258 build/default/debug/_ext/427015431/drv_usart_read_write.o
 .text          0x00000000        0x0 build/default/debug/_ext/2146114523/net_pres.o
 .data          0x00000000        0x0 build/default/debug/_ext/2146114523/net_pres.o
 .bss           0x00000000        0x0 build/default/debug/_ext/2146114523/net_pres.o
 .reginfo       0x00000000       0x18 build/default/debug/_ext/2146114523/net_pres.o
 .text.NET_PRES_Deinitialize
                0x00000000      0x138 build/default/debug/_ext/2146114523/net_pres.o
 .text.NET_PRES_Reinitialize
                0x00000000       0x30 build/default/debug/_ext/2146114523/net_pres.o
 .text.NET_PRES_SocketOpen
                0x00000000      0x358 build/default/debug/_ext/2146114523/net_pres.o
 .text.NET_PRES_SocketBind
                0x00000000       0x8c build/default/debug/_ext/2146114523/net_pres.o
 .text.NET_PRES_SocketRemoteBind
                0x00000000       0x8c build/default/debug/_ext/2146114523/net_pres.o
 .text.NET_PRES_SocketOptionsSet
                0x00000000       0x8c build/default/debug/_ext/2146114523/net_pres.o
 .text.NET_PRES_SocketOptionsGet
                0x00000000       0x8c build/default/debug/_ext/2146114523/net_pres.o
 .text.NET_PRES_SocketIsConnected
                0x00000000       0x8c build/default/debug/_ext/2146114523/net_pres.o
 .text.NET_PRES_SocketWasReset
                0x00000000       0x8c build/default/debug/_ext/2146114523/net_pres.o
 .text.NET_PRES_SocketDisconnect
                0x00000000       0xdc build/default/debug/_ext/2146114523/net_pres.o
 .text.NET_PRES_SocketConnect
                0x00000000       0x8c build/default/debug/_ext/2146114523/net_pres.o
 .text.NET_PRES_SocketClose
                0x00000000       0xf0 build/default/debug/_ext/2146114523/net_pres.o
 .text.NET_PRES_SocketInfoGet
                0x00000000       0x8c build/default/debug/_ext/2146114523/net_pres.o
 .text.NET_PRES_SocketWriteIsReady
                0x00000000      0x198 build/default/debug/_ext/2146114523/net_pres.o
 .text.NET_PRES_SocketReadIsReady
                0x00000000       0xd8 build/default/debug/_ext/2146114523/net_pres.o
 .text.NET_PRES_SocketWrite
                0x00000000       0xd0 build/default/debug/_ext/2146114523/net_pres.o
 .text.NET_PRES_SocketFlush
                0x00000000       0x94 build/default/debug/_ext/2146114523/net_pres.o
 .text.NET_PRES_SocketRead
                0x00000000       0xd0 build/default/debug/_ext/2146114523/net_pres.o
 .text.NET_PRES_SocketPeek
                0x00000000       0xd0 build/default/debug/_ext/2146114523/net_pres.o
 .text.NET_PRES_SocketDiscard
                0x00000000       0x94 build/default/debug/_ext/2146114523/net_pres.o
 .text.NET_PRES_SocketSignalHandlerRegister
                0x00000000       0x94 build/default/debug/_ext/2146114523/net_pres.o
 .text.NET_PRES_SocketSignalHandlerDeregister
                0x00000000       0x8c build/default/debug/_ext/2146114523/net_pres.o
 .text.NET_PRES_SocketIsNegotiatingEncryption
                0x00000000       0x64 build/default/debug/_ext/2146114523/net_pres.o
 .text.NET_PRES_SocketIsSecure
                0x00000000       0x64 build/default/debug/_ext/2146114523/net_pres.o
 .text.NET_PRES_SocketEncryptSocket
                0x00000000       0x84 build/default/debug/_ext/2146114523/net_pres.o
 .text.NET_PRES_SocketIsOpenModeSupported
                0x00000000      0x144 build/default/debug/_ext/2146114523/net_pres.o
 .text.NET_PRES_Status
                0x00000000       0x2c build/default/debug/_ext/2146114523/net_pres.o
 .text.NET_PRES_SocketLastError
                0x00000000       0x68 build/default/debug/_ext/2146114523/net_pres.o
 .text.NET_PRES_SocketGetTransportHandle
                0x00000000       0x68 build/default/debug/_ext/2146114523/net_pres.o
 .text          0x00000000        0x0 build/default/debug/_ext/1167192164/sys_command.o
 .data          0x00000000        0x0 build/default/debug/_ext/1167192164/sys_command.o
 .reginfo       0x00000000       0x18 build/default/debug/_ext/1167192164/sys_command.o
 .text.SYS_CMD_RegisterCallback
                0x00000000       0x5c build/default/debug/_ext/1167192164/sys_command.o
 .text.SYS_CMD_READY_TO_WRITE
                0x00000000       0x88 build/default/debug/_ext/1167192164/sys_command.o
 .text.SYS_CMD_READY_TO_READ
                0x00000000       0xf8 build/default/debug/_ext/1167192164/sys_command.o
 .text          0x00000000        0x0 build/default/debug/_ext/710479984/sys_console.o
 .data          0x00000000        0x0 build/default/debug/_ext/710479984/sys_console.o
 .reginfo       0x00000000       0x18 build/default/debug/_ext/710479984/sys_console.o
 .text.SYS_CONSOLE_Deinitialize
                0x00000000       0x44 build/default/debug/_ext/710479984/sys_console.o
 .text.SYS_CONSOLE_Reinitialize
                0x00000000       0x64 build/default/debug/_ext/710479984/sys_console.o
 .text.SYS_CONSOLE_RegisterCallback
                0x00000000       0x48 build/default/debug/_ext/710479984/sys_console.o
 .text.SYS_CONSOLE_Flush
                0x00000000       0x48 build/default/debug/_ext/710479984/sys_console.o
 .text          0x00000000        0x0 build/default/debug/_ext/710479984/sys_console_uart.o
 .reginfo       0x00000000       0x18 build/default/debug/_ext/710479984/sys_console_uart.o
 .text          0x00000000        0x0 build/default/debug/_ext/429005716/sys_debug.o
 .data          0x00000000        0x0 build/default/debug/_ext/429005716/sys_debug.o
 .bss           0x00000000      0x400 build/default/debug/_ext/429005716/sys_debug.o
 .reginfo       0x00000000       0x18 build/default/debug/_ext/429005716/sys_debug.o
 .text.SYS_DEBUG_Reinitialize
                0x00000000       0x2c build/default/debug/_ext/429005716/sys_debug.o
 .text.SYS_DEBUG_Deinitialize
                0x00000000       0x1c build/default/debug/_ext/429005716/sys_debug.o
 .text.SYS_DEBUG_Tasks
                0x00000000        0x8 build/default/debug/_ext/429005716/sys_debug.o
 .text.SYS_DEBUG_Status
                0x00000000        0xc build/default/debug/_ext/429005716/sys_debug.o
 .text.SYS_DEBUG_Print
                0x00000000       0xf8 build/default/debug/_ext/429005716/sys_debug.o
 .text.SYS_DEBUG_ErrorLevelSet
                0x00000000        0x8 build/default/debug/_ext/429005716/sys_debug.o
 .text          0x00000000        0x0 build/default/debug/_ext/1670183176/sys_int_pic32.o
 .data          0x00000000        0x0 build/default/debug/_ext/1670183176/sys_int_pic32.o
 .bss           0x00000000        0x0 build/default/debug/_ext/1670183176/sys_int_pic32.o
 .reginfo       0x00000000       0x18 build/default/debug/_ext/1670183176/sys_int_pic32.o
 .text.SYS_INT_Disable
                0x00000000       0x20 build/default/debug/_ext/1670183176/sys_int_pic32.o
 .text.SYS_INT_ExternalInterruptTriggerSet
                0x00000000       0x28 build/default/debug/_ext/1670183176/sys_int_pic32.o
 .text          0x00000000        0x0 build/default/debug/_ext/1584847572/sys_random.o
 .data          0x00000000        0x0 build/default/debug/_ext/1584847572/sys_random.o
 .reginfo       0x00000000       0x18 build/default/debug/_ext/1584847572/sys_random.o
 .text.SYS_RANDOM_Deinitialize
                0x00000000        0xc build/default/debug/_ext/1584847572/sys_random.o
 .text.SYS_RANDOM_PseudoSeedSet
                0x00000000       0x1c build/default/debug/_ext/1584847572/sys_random.o
 COMMON         0x00000000      0x108 build/default/debug/_ext/1584847572/sys_random.o
 .text          0x00000000        0x0 build/default/debug/_ext/1482654414/sys_tmr.o
 .data          0x00000000        0x0 build/default/debug/_ext/1482654414/sys_tmr.o
 .reginfo       0x00000000       0x18 build/default/debug/_ext/1482654414/sys_tmr.o
 .text.SYS_TMR_Deinitialize
                0x00000000       0xd0 build/default/debug/_ext/1482654414/sys_tmr.o
 .text.SYS_TMR_Status
                0x00000000       0x20 build/default/debug/_ext/1482654414/sys_tmr.o
 .text.SYS_TMR_ObjectCreate
                0x00000000       0x1c build/default/debug/_ext/1482654414/sys_tmr.o
 .text.SYS_TMR_ObjectReload
                0x00000000       0xb4 build/default/debug/_ext/1482654414/sys_tmr.o
 .text.SYS_TMR_ObjectCountGet
                0x00000000       0xe4 build/default/debug/_ext/1482654414/sys_tmr.o
 .text.SYS_TMR_CallbackSingle
                0x00000000       0x1c build/default/debug/_ext/1482654414/sys_tmr.o
 .text.SYS_TMR_DelayMS
                0x00000000       0x24 build/default/debug/_ext/1482654414/sys_tmr.o
 .text.SYS_TMR_DelayStatusGet
                0x00000000       0x20 build/default/debug/_ext/1482654414/sys_tmr.o
 .text          0x00000000        0x0 build/default/debug/_ext/157393855/helpers.o
 .data          0x00000000        0x0 build/default/debug/_ext/157393855/helpers.o
 .bss           0x00000000        0x0 build/default/debug/_ext/157393855/helpers.o
 .reginfo       0x00000000       0x18 build/default/debug/_ext/157393855/helpers.o
 .text.uitoa    0x00000000       0x90 build/default/debug/_ext/157393855/helpers.o
 .text.strncpy_m
                0x00000000       0xd8 build/default/debug/_ext/157393855/helpers.o
 .text          0x00000000        0x0 build/default/debug/_ext/1836803193/ipv4.o
 .data          0x00000000        0x0 build/default/debug/_ext/1836803193/ipv4.o
 .reginfo       0x00000000       0x18 build/default/debug/_ext/1836803193/ipv4.o
 .text.TCPIP_IPV4_PacketFilterSet
                0x00000000       0x10 build/default/debug/_ext/1836803193/ipv4.o
 .text.TCPIP_IPV4_PacketFilterClear
                0x00000000       0x14 build/default/debug/_ext/1836803193/ipv4.o
 .text.TCPIP_IPV4_PacketAlloc
                0x00000000       0xc4 build/default/debug/_ext/1836803193/ipv4.o
 .text.TCPIP_IPV4_PacketOptionFieldSet
                0x00000000       0x40 build/default/debug/_ext/1836803193/ipv4.o
 .text.TCPIP_IPV4_PacketOptionListGet
                0x00000000       0x90 build/default/debug/_ext/1836803193/ipv4.o
 .text.TCPIP_IPV4_PacketOptionGet
                0x00000000       0xd8 build/default/debug/_ext/1836803193/ipv4.o
 .text          0x00000000        0x0 build/default/debug/_ext/1836803193/tcp.o
 .data          0x00000000        0x0 build/default/debug/_ext/1836803193/tcp.o
 .bss           0x00000000        0x0 build/default/debug/_ext/1836803193/tcp.o
 .reginfo       0x00000000       0x18 build/default/debug/_ext/1836803193/tcp.o
 .text.TCPIP_TCP_SocketTraceSet
                0x00000000        0x8 build/default/debug/_ext/1836803193/tcp.o
 .text.TCPIP_TCP_Abort
                0x00000000       0x38 build/default/debug/_ext/1836803193/tcp.o
 .text.TCPIP_TCP_Put
                0x00000000       0x24 build/default/debug/_ext/1836803193/tcp.o
 .text.TCPIP_TCP_StringPut
                0x00000000       0x48 build/default/debug/_ext/1836803193/tcp.o
 .text.TCPIP_TCP_FifoTxFreeGet
                0x00000000       0x50 build/default/debug/_ext/1836803193/tcp.o
 .text.TCPIP_TCP_Get
                0x00000000       0x1c build/default/debug/_ext/1836803193/tcp.o
 .text.TCPIP_TCP_FifoRxFreeGet
                0x00000000       0x4c build/default/debug/_ext/1836803193/tcp.o
 .text.TCPIP_TCP_Peek
                0x00000000       0x28 build/default/debug/_ext/1836803193/tcp.o
 .text.TCPIP_TCP_ArrayFind
                0x00000000      0x398 build/default/debug/_ext/1836803193/tcp.o
 .text.TCPIP_TCP_Find
                0x00000000       0x38 build/default/debug/_ext/1836803193/tcp.o
 .text.TCPIP_TCP_SocketNetSet
                0x00000000       0x48 build/default/debug/_ext/1836803193/tcp.o
 .text.TCPIP_TCP_SocketNetGet
                0x00000000       0x28 build/default/debug/_ext/1836803193/tcp.o
 .text.TCPIP_TCP_SourceIPAddressSet
                0x00000000       0x78 build/default/debug/_ext/1836803193/tcp.o
 .text.TCPIP_TCP_IsReady
                0x00000000        0x8 build/default/debug/_ext/1836803193/tcp.o
 .text          0x00000000        0x0 build/default/debug/_ext/1836803193/udp.o
 .data          0x00000000        0x0 build/default/debug/_ext/1836803193/udp.o
 .bss           0x00000000        0x0 build/default/debug/_ext/1836803193/udp.o
 .reginfo       0x00000000       0x18 build/default/debug/_ext/1836803193/udp.o
 .text.TCPIP_UDP_Put
                0x00000000       0x24 build/default/debug/_ext/1836803193/udp.o
 .text.TCPIP_UDP_StringPut
                0x00000000       0x60 build/default/debug/_ext/1836803193/udp.o
 .text.TCPIP_UDP_TxCountGet
                0x00000000       0x54 build/default/debug/_ext/1836803193/udp.o
 .text.TCPIP_UDP_SocketNetGet
                0x00000000       0x28 build/default/debug/_ext/1836803193/udp.o
 .text.TCPIP_UDP_SetSplitPayload
                0x00000000       0xc0 build/default/debug/_ext/1836803193/udp.o
 .text          0x00000000        0x0 build/default/debug/_ext/1836803193/tcpip_heap_alloc.o
 .data          0x00000000        0x0 build/default/debug/_ext/1836803193/tcpip_heap_alloc.o
 .reginfo       0x00000000       0x18 build/default/debug/_ext/1836803193/tcpip_heap_alloc.o
 .text._TCPIP_HEAP_PointerMapCached
                0x00000000        0x8 build/default/debug/_ext/1836803193/tcpip_heap_alloc.o
 .text.TCPIP_HEAP_SetNoMemHandler
                0x00000000       0x34 build/default/debug/_ext/1836803193/tcpip_heap_alloc.o
 .text          0x00000000        0x0 build/default/debug/_ext/1836803193/tcpip_heap_internal.o
 .data          0x00000000        0x0 build/default/debug/_ext/1836803193/tcpip_heap_internal.o
 .bss           0x00000000        0x0 build/default/debug/_ext/1836803193/tcpip_heap_internal.o
 .reginfo       0x00000000       0x18 build/default/debug/_ext/1836803193/tcpip_heap_internal.o
 .text          0x00000000        0x0 build/default/debug/_ext/1836803193/arp.o
 .data          0x00000000        0x0 build/default/debug/_ext/1836803193/arp.o
 .reginfo       0x00000000       0x18 build/default/debug/_ext/1836803193/arp.o
 .text.TCPIP_ARP_Resolve
                0x00000000       0x78 build/default/debug/_ext/1836803193/arp.o
 .text.TCPIP_ARP_EntrySet
                0x00000000      0x174 build/default/debug/_ext/1836803193/arp.o
 .text.TCPIP_ARP_EntryRemoveAll
                0x00000000       0xe8 build/default/debug/_ext/1836803193/arp.o
 .text.TCPIP_ARP_CacheThresholdSet
                0x00000000       0xa8 build/default/debug/_ext/1836803193/arp.o
 .text          0x00000000        0x0 build/default/debug/_ext/1836803193/dhcp.o
 .data          0x00000000        0x0 build/default/debug/_ext/1836803193/dhcp.o
 .reginfo       0x00000000       0x18 build/default/debug/_ext/1836803193/dhcp.o
 .text.TCPIP_DHCP_IsBound
                0x00000000       0x78 build/default/debug/_ext/1836803193/dhcp.o
 .text.TCPIP_DHCP_IsServerDetected
                0x00000000       0x78 build/default/debug/_ext/1836803193/dhcp.o
 .text.TCPIP_DHCP_RequestTimeoutSet
                0x00000000       0xa4 build/default/debug/_ext/1836803193/dhcp.o
 .text.TCPIP_DHCP_HostNameCallbackRegister
                0x00000000       0xa0 build/default/debug/_ext/1836803193/dhcp.o
 .text          0x00000000        0x0 build/default/debug/_ext/1836803193/dns.o
 .data          0x00000000        0x0 build/default/debug/_ext/1836803193/dns.o
 .reginfo       0x00000000       0x18 build/default/debug/_ext/1836803193/dns.o
 .text.TCPIP_DNS_Send_Query
                0x00000000       0x1c build/default/debug/_ext/1836803193/dns.o
 .text.TCPIP_DNS_IsNameResolved
                0x00000000       0x1c build/default/debug/_ext/1836803193/dns.o
 .text.TCPIP_DNS_IsEnabled
                0x00000000       0x24 build/default/debug/_ext/1836803193/dns.o
 .text          0x00000000        0x0 build/default/debug/_ext/1836803193/icmp.o
 .data          0x00000000        0x0 build/default/debug/_ext/1836803193/icmp.o
 .bss           0x00000000        0x0 build/default/debug/_ext/1836803193/icmp.o
 .reginfo       0x00000000       0x18 build/default/debug/_ext/1836803193/icmp.o
 .text          0x00000000        0x0 build/default/debug/_ext/1836803193/nbns.o
 .data          0x00000000        0x0 build/default/debug/_ext/1836803193/nbns.o
 .bss           0x00000000        0x0 build/default/debug/_ext/1836803193/nbns.o
 .reginfo       0x00000000       0x18 build/default/debug/_ext/1836803193/nbns.o
 .text          0x00000000        0x0 build/default/debug/_ext/1836803193/zero_conf_helper.o
 .data          0x00000000        0x0 build/default/debug/_ext/1836803193/zero_conf_helper.o
 .bss           0x00000000        0x0 build/default/debug/_ext/1836803193/zero_conf_helper.o
 .reginfo       0x00000000       0x18 build/default/debug/_ext/1836803193/zero_conf_helper.o
 .text          0x00000000        0x0 build/default/debug/_ext/1836803193/zero_conf_link_local.o
 .data          0x00000000        0x0 build/default/debug/_ext/1836803193/zero_conf_link_local.o
 .bss           0x00000000        0x0 build/default/debug/_ext/1836803193/zero_conf_link_local.o
 .reginfo       0x00000000       0x18 build/default/debug/_ext/1836803193/zero_conf_link_local.o
 .text.TCPIP_ZCLL_ARPAction
                0x00000000       0x24 build/default/debug/_ext/1836803193/zero_conf_link_local.o
 .text          0x00000000        0x0 build/default/debug/_ext/1836803193/tcpip_announce.o
 .data          0x00000000        0x0 build/default/debug/_ext/1836803193/tcpip_announce.o
 .reginfo       0x00000000       0x18 build/default/debug/_ext/1836803193/tcpip_announce.o
 .text.TCPIP_ANNOUNCE_MessageRequest
                0x00000000       0xb4 build/default/debug/_ext/1836803193/tcpip_announce.o
 .text.TCPIP_ANNOUNCE_CallbackRegister
                0x00000000       0x24 build/default/debug/_ext/1836803193/tcpip_announce.o
 .text          0x00000000        0x0 build/default/debug/_ext/1836803193/tcpip_commands.o
 .data          0x00000000        0x0 build/default/debug/_ext/1836803193/tcpip_commands.o
 .reginfo       0x00000000       0x18 build/default/debug/_ext/1836803193/tcpip_commands.o
 .text          0x00000000        0x0 build/default/debug/_ext/1836803193/hash_fnv.o
 .data          0x00000000        0x0 build/default/debug/_ext/1836803193/hash_fnv.o
 .bss           0x00000000        0x0 build/default/debug/_ext/1836803193/hash_fnv.o
 .reginfo       0x00000000       0x18 build/default/debug/_ext/1836803193/hash_fnv.o
 .text.fnv_32a_hash
                0x00000000       0x5c build/default/debug/_ext/1836803193/hash_fnv.o
 .text          0x00000000        0x0 build/default/debug/_ext/1836803193/oahash.o
 .data          0x00000000        0x0 build/default/debug/_ext/1836803193/oahash.o
 .bss           0x00000000        0x0 build/default/debug/_ext/1836803193/oahash.o
 .reginfo       0x00000000       0x18 build/default/debug/_ext/1836803193/oahash.o
 .text          0x00000000        0x0 build/default/debug/_ext/1836803193/tcpip_helpers.o
 .bss           0x00000000        0x0 build/default/debug/_ext/1836803193/tcpip_helpers.o
 .reginfo       0x00000000       0x18 build/default/debug/_ext/1836803193/tcpip_helpers.o
 .text.TCPIP_Helper_IsPrivateAddress
                0x00000000       0x3c build/default/debug/_ext/1836803193/tcpip_helpers.o
 .text.TCPIP_Helper_PowerModeToString
                0x00000000       0x28 build/default/debug/_ext/1836803193/tcpip_helpers.o
 .text.TCPIP_Helper_Base64Decode
                0x00000000      0x1a4 build/default/debug/_ext/1836803193/tcpip_helpers.o
 .text.TCPIP_Helper_Base64Encode
                0x00000000      0x190 build/default/debug/_ext/1836803193/tcpip_helpers.o
 .text.TCPIP_Helper_FindCommonPrefix
                0x00000000       0xa0 build/default/debug/_ext/1836803193/tcpip_helpers.o
 .text.TCPIP_Helper_SingleListHeadAdd
                0x00000000       0x28 build/default/debug/_ext/1836803193/tcpip_helpers.o
 .text.TCPIP_Helper_SingleListMidAdd
                0x00000000       0x1c build/default/debug/_ext/1836803193/tcpip_helpers.o
 .text.TCPIP_Helper_SingleListNextRemove
                0x00000000       0x58 build/default/debug/_ext/1836803193/tcpip_helpers.o
 .text.TCPIP_Helper_SingleListFind
                0x00000000       0x48 build/default/debug/_ext/1836803193/tcpip_helpers.o
 .text.TCPIP_Helper_ProtectedSingleListHeadAdd
                0x00000000       0x88 build/default/debug/_ext/1836803193/tcpip_helpers.o
 .text.TCPIP_Helper_ProtectedSingleListMidAdd
                0x00000000       0x9c build/default/debug/_ext/1836803193/tcpip_helpers.o
 .text.TCPIP_Helper_ProtectedSingleListNextRemove
                0x00000000       0x94 build/default/debug/_ext/1836803193/tcpip_helpers.o
 .text.TCPIP_Helper_ProtectedSingleListAppend
                0x00000000       0x88 build/default/debug/_ext/1836803193/tcpip_helpers.o
 .text.TCPIP_Helper_DoubleListInitialize
                0x00000000       0x10 build/default/debug/_ext/1836803193/tcpip_helpers.o
 .text.TCPIP_Helper_DoubleListHeadAdd
                0x00000000       0x40 build/default/debug/_ext/1836803193/tcpip_helpers.o
 .text.TCPIP_Helper_DoubleListTailAdd
                0x00000000       0x44 build/default/debug/_ext/1836803193/tcpip_helpers.o
 .text.TCPIP_Helper_DoubleListMidAdd
                0x00000000       0x28 build/default/debug/_ext/1836803193/tcpip_helpers.o
 .text.TCPIP_Helper_DoubleListHeadRemove
                0x00000000       0x40 build/default/debug/_ext/1836803193/tcpip_helpers.o
 .text.TCPIP_Helper_DoubleListTailRemove
                0x00000000       0x40 build/default/debug/_ext/1836803193/tcpip_helpers.o
 .text.TCPIP_Helper_DoubleListMidRemove
                0x00000000       0x28 build/default/debug/_ext/1836803193/tcpip_helpers.o
 .text.TCPIP_Helper_DoubleListNodeRemove
                0x00000000       0x50 build/default/debug/_ext/1836803193/tcpip_helpers.o
 .text.TCPIP_Helper_DoubleListFind
                0x00000000       0x48 build/default/debug/_ext/1836803193/tcpip_helpers.o
 .text.TCPIP_Helper_ProtectedDoubleListInitialize
                0x00000000       0x50 build/default/debug/_ext/1836803193/tcpip_helpers.o
 .text.TCPIP_Helper_ProtectedDoubleListDeinitialize
                0x00000000       0x78 build/default/debug/_ext/1836803193/tcpip_helpers.o
 .text.TCPIP_Helper_ProtectedDoubleListHeadAdd
                0x00000000       0x88 build/default/debug/_ext/1836803193/tcpip_helpers.o
 .text.TCPIP_Helper_ProtectedDoubleListTailAdd
                0x00000000       0x88 build/default/debug/_ext/1836803193/tcpip_helpers.o
 .text.TCPIP_Helper_ProtectedDoubleListMidAdd
                0x00000000       0x98 build/default/debug/_ext/1836803193/tcpip_helpers.o
 .text.TCPIP_Helper_ProtectedDoubleListHeadRemove
                0x00000000       0x90 build/default/debug/_ext/1836803193/tcpip_helpers.o
 .text.TCPIP_Helper_ProtectedDoubleListTailRemove
                0x00000000       0x90 build/default/debug/_ext/1836803193/tcpip_helpers.o
 .text.TCPIP_Helper_ProtectedDoubleListMidRemove
                0x00000000       0x88 build/default/debug/_ext/1836803193/tcpip_helpers.o
 .text.TCPIP_Helper_ProtectedDoubleListNodeRemove
                0x00000000       0x88 build/default/debug/_ext/1836803193/tcpip_helpers.o
 .text.TCPIP_Helper_ProtectedDoubleListRemoveAll
                0x00000000       0x90 build/default/debug/_ext/1836803193/tcpip_helpers.o
 .text.TCPIP_Helper_ProtectedDoubleListLock
                0x00000000       0x58 build/default/debug/_ext/1836803193/tcpip_helpers.o
 .text.TCPIP_Helper_ProtectedDoubleListUnlock
                0x00000000       0x44 build/default/debug/_ext/1836803193/tcpip_helpers.o
 .text.TCPIP_Helper_SecurePortGetByIndex
                0x00000000       0x60 build/default/debug/_ext/1836803193/tcpip_helpers.o
 .text.TCPIP_Helper_SecurePortSet
                0x00000000       0xc0 build/default/debug/_ext/1836803193/tcpip_helpers.o
 .data          0x00000000        0x0 build/default/debug/_ext/1836803193/tcpip_helper_c32.o
 .bss           0x00000000        0x0 build/default/debug/_ext/1836803193/tcpip_helper_c32.o
 .reginfo       0x00000000       0x18 build/default/debug/_ext/1836803193/tcpip_helper_c32.o
 .text          0x00000000        0x0 build/default/debug/_ext/1836803193/tcpip_manager.o
 .data          0x00000000        0x0 build/default/debug/_ext/1836803193/tcpip_manager.o
 .reginfo       0x00000000       0x18 build/default/debug/_ext/1836803193/tcpip_manager.o
 .text._NetConfigStringToBuffer
                0x00000000       0xc8 build/default/debug/_ext/1836803193/tcpip_manager.o
 .text.TCPIP_STACK_NetMulticastGet
                0x00000000        0x8 build/default/debug/_ext/1836803193/tcpip_manager.o
 .text.TCPIP_STACK_NetMulticastSet
                0x00000000        0x8 build/default/debug/_ext/1836803193/tcpip_manager.o
 .text.TCPIP_STACK_MacToNet
                0x00000000       0x4c build/default/debug/_ext/1836803193/tcpip_manager.o
 .text.TCPIP_STACK_MacToNetIndex
                0x00000000       0x54 build/default/debug/_ext/1836803193/tcpip_manager.o
 .text.TCPIP_STACK_MACObjectGet
                0x00000000       0x18 build/default/debug/_ext/1836803193/tcpip_manager.o
 .text.TCPIP_STACK_NetAddressDnsSecond
                0x00000000       0x28 build/default/debug/_ext/1836803193/tcpip_manager.o
 .text.TCPIP_STACK_NetAddressDnsSecondSet
                0x00000000       0x30 build/default/debug/_ext/1836803193/tcpip_manager.o
 .text.TCPIP_STACK_NetMACIdGet
                0x00000000       0x28 build/default/debug/_ext/1836803193/tcpip_manager.o
 .text.TCPIP_STACK_ModuleConfigGet
                0x00000000       0x74 build/default/debug/_ext/1836803193/tcpip_manager.o
 .text.TCPIP_STACK_NetConfigGet
                0x00000000      0x104 build/default/debug/_ext/1836803193/tcpip_manager.o
 .text.TCPIP_STACK_NetConfigSet
                0x00000000      0x2dc build/default/debug/_ext/1836803193/tcpip_manager.o
 .text.TCPIP_STACK_EventsPendingGet
                0x00000000       0x4c build/default/debug/_ext/1836803193/tcpip_manager.o
 .text.TCPIP_STACK_NetStaticIPv6AddressGet
                0x00000000        0x8 build/default/debug/_ext/1836803193/tcpip_manager.o
 .text.TCPIP_STACK_NetDefaultIPv6GatewayGet
                0x00000000        0x8 build/default/debug/_ext/1836803193/tcpip_manager.o
 .text.TCPIP_STACK_AddressIsOfNetUp
                0x00000000       0x54 build/default/debug/_ext/1836803193/tcpip_manager.o
 .text.TCPIP_STACK_NetMACId
                0x00000000       0x18 build/default/debug/_ext/1836803193/tcpip_manager.o
 .text.TCPIP_STACK_NetToMAC
                0x00000000       0x18 build/default/debug/_ext/1836803193/tcpip_manager.o
 .text.TCPIP_STACK_VersionGet
                0x00000000        0xc build/default/debug/_ext/1836803193/tcpip_manager.o
 .text.TCPIP_STACK_VersionStrGet
                0x00000000        0xc build/default/debug/_ext/1836803193/tcpip_manager.o
 .text.TCPIP_MODULE_SignalFunctionRegister
                0x00000000       0x50 build/default/debug/_ext/1836803193/tcpip_manager.o
 .text.TCPIP_MODULE_SignalFunctionDeregister
                0x00000000       0x1c build/default/debug/_ext/1836803193/tcpip_manager.o
 .text.TCPIP_MODULE_SignalGet
                0x00000000       0x50 build/default/debug/_ext/1836803193/tcpip_manager.o
 .text.TCPIP_STACK_HEAP_Size
                0x00000000       0x34 build/default/debug/_ext/1836803193/tcpip_manager.o
 .text.TCPIP_STACK_HEAP_MaxSize
                0x00000000       0x34 build/default/debug/_ext/1836803193/tcpip_manager.o
 .text.TCPIP_STACK_HEAP_FreeSize
                0x00000000       0x34 build/default/debug/_ext/1836803193/tcpip_manager.o
 .text.TCPIP_STACK_HEAP_LastError
                0x00000000       0x34 build/default/debug/_ext/1836803193/tcpip_manager.o
 .text._TCPIPStackHeapConfig
                0x00000000        0xc build/default/debug/_ext/1836803193/tcpip_manager.o
 .text          0x00000000        0x0 build/default/debug/_ext/1836803193/tcpip_notify.o
 .data          0x00000000        0x0 build/default/debug/_ext/1836803193/tcpip_notify.o
 .bss           0x00000000        0x0 build/default/debug/_ext/1836803193/tcpip_notify.o
 .reginfo       0x00000000       0x18 build/default/debug/_ext/1836803193/tcpip_notify.o
 .text          0x00000000        0x0 build/default/debug/_ext/1836803193/tcpip_packet.o
 .data          0x00000000        0x0 build/default/debug/_ext/1836803193/tcpip_packet.o
 .bss           0x00000000        0x0 build/default/debug/_ext/1836803193/tcpip_packet.o
 .reginfo       0x00000000       0x18 build/default/debug/_ext/1836803193/tcpip_packet.o
 .text.TCPIP_PKT_SegmentAlloc
                0x00000000       0xb0 build/default/debug/_ext/1836803193/tcpip_packet.o
 .text.TCPIP_PKT_SegmentAppend
                0x00000000       0x30 build/default/debug/_ext/1836803193/tcpip_packet.o
 .text.TCPIP_PKT_SegmentFree
                0x00000000       0x4c build/default/debug/_ext/1836803193/tcpip_packet.o
 .text          0x00000000        0x0 c:/program files (x86)/microchip/xc32/v1.43/bin/bin/../../lib/gcc/pic32mx/4.8.3/../../../../pic32mx/lib/./proc/32MX795F512H\default_isr_vectors.o
 .data          0x00000000        0x0 c:/program files (x86)/microchip/xc32/v1.43/bin/bin/../../lib/gcc/pic32mx/4.8.3/../../../../pic32mx/lib/./proc/32MX795F512H\default_isr_vectors.o
 .bss           0x00000000        0x0 c:/program files (x86)/microchip/xc32/v1.43/bin/bin/../../lib/gcc/pic32mx/4.8.3/../../../../pic32mx/lib/./proc/32MX795F512H\default_isr_vectors.o
 .reginfo       0x00000000       0x18 c:/program files (x86)/microchip/xc32/v1.43/bin/bin/../../lib/gcc/pic32mx/4.8.3/../../../../pic32mx/lib/./proc/32MX795F512H\default_isr_vectors.o
 .discard       0x00000000       0xd0 c:/program files (x86)/microchip/xc32/v1.43/bin/bin/../../lib/gcc/pic32mx/4.8.3/../../../../pic32mx/lib/./proc/32MX795F512H\default_isr_vectors.o
 .data          0x00000000        0x0 c:/program files (x86)/microchip/xc32/v1.43/bin/bin/../../lib/gcc/pic32mx/4.8.3/../../../../pic32mx/lib\pic32_software_reset.o
 .bss           0x00000000        0x0 c:/program files (x86)/microchip/xc32/v1.43/bin/bin/../../lib/gcc/pic32mx/4.8.3/../../../../pic32mx/lib\pic32_software_reset.o
 .reginfo       0x00000000       0x18 c:/program files (x86)/microchip/xc32/v1.43/bin/bin/../../lib/gcc/pic32mx/4.8.3/../../../../pic32mx/lib\pic32_software_reset.o
 .text          0x00000000        0x0 c:/program files (x86)/microchip/xc32/v1.43/bin/bin/../../lib/gcc/pic32mx/4.8.3/../../../../pic32mx/lib/./proc/32MX795F512H\processor.o
 .data          0x00000000        0x0 c:/program files (x86)/microchip/xc32/v1.43/bin/bin/../../lib/gcc/pic32mx/4.8.3/../../../../pic32mx/lib/./proc/32MX795F512H\processor.o
 .bss           0x00000000        0x0 c:/program files (x86)/microchip/xc32/v1.43/bin/bin/../../lib/gcc/pic32mx/4.8.3/../../../../pic32mx/lib/./proc/32MX795F512H\processor.o
 .reginfo       0x00000000       0x18 c:/program files (x86)/microchip/xc32/v1.43/bin/bin/../../lib/gcc/pic32mx/4.8.3/../../../../pic32mx/lib/./proc/32MX795F512H\processor.o
 .data          0x00000000        0x0 c:/program files (x86)/microchip/xc32/v1.43/bin/bin/../../lib/gcc/pic32mx/4.8.3\libgcc.a(_udivdi3.o)
 .bss           0x00000000        0x0 c:/program files (x86)/microchip/xc32/v1.43/bin/bin/../../lib/gcc/pic32mx/4.8.3\libgcc.a(_udivdi3.o)
 .reginfo       0x00000000       0x18 c:/program files (x86)/microchip/xc32/v1.43/bin/bin/../../lib/gcc/pic32mx/4.8.3\libgcc.a(_udivdi3.o)
 .data          0x00000000        0x0 c:/program files (x86)/microchip/xc32/v1.43/bin/bin/../../lib/gcc/pic32mx/4.8.3/../../../../pic32mx/lib\libpic32.a(memcmp.o)
 .bss           0x00000000        0x0 c:/program files (x86)/microchip/xc32/v1.43/bin/bin/../../lib/gcc/pic32mx/4.8.3/../../../../pic32mx/lib\libpic32.a(memcmp.o)
 .reginfo       0x00000000       0x18 c:/program files (x86)/microchip/xc32/v1.43/bin/bin/../../lib/gcc/pic32mx/4.8.3/../../../../pic32mx/lib\libpic32.a(memcmp.o)
 .data          0x00000000        0x0 c:/program files (x86)/microchip/xc32/v1.43/bin/bin/../../lib/gcc/pic32mx/4.8.3/../../../../pic32mx/lib\libpic32.a(memcpy.o)
 .bss           0x00000000        0x0 c:/program files (x86)/microchip/xc32/v1.43/bin/bin/../../lib/gcc/pic32mx/4.8.3/../../../../pic32mx/lib\libpic32.a(memcpy.o)
 .reginfo       0x00000000       0x18 c:/program files (x86)/microchip/xc32/v1.43/bin/bin/../../lib/gcc/pic32mx/4.8.3/../../../../pic32mx/lib\libpic32.a(memcpy.o)
 .data          0x00000000        0x0 c:/program files (x86)/microchip/xc32/v1.43/bin/bin/../../lib/gcc/pic32mx/4.8.3/../../../../pic32mx/lib\libpic32.a(memset.o)
 .bss           0x00000000        0x0 c:/program files (x86)/microchip/xc32/v1.43/bin/bin/../../lib/gcc/pic32mx/4.8.3/../../../../pic32mx/lib\libpic32.a(memset.o)
 .reginfo       0x00000000       0x18 c:/program files (x86)/microchip/xc32/v1.43/bin/bin/../../lib/gcc/pic32mx/4.8.3/../../../../pic32mx/lib\libpic32.a(memset.o)
 .data          0x00000000        0x0 c:/program files (x86)/microchip/xc32/v1.43/bin/bin/../../lib/gcc/pic32mx/4.8.3/../../../../pic32mx/lib\libpic32.a(strcmp.o)
 .bss           0x00000000        0x0 c:/program files (x86)/microchip/xc32/v1.43/bin/bin/../../lib/gcc/pic32mx/4.8.3/../../../../pic32mx/lib\libpic32.a(strcmp.o)
 .reginfo       0x00000000       0x18 c:/program files (x86)/microchip/xc32/v1.43/bin/bin/../../lib/gcc/pic32mx/4.8.3/../../../../pic32mx/lib\libpic32.a(strcmp.o)
 .data          0x00000000        0x0 c:/program files (x86)/microchip/xc32/v1.43/bin/bin/../../lib/gcc/pic32mx/4.8.3/../../../../pic32mx/lib\libpic32.a(strcpy.o)
 .bss           0x00000000        0x0 c:/program files (x86)/microchip/xc32/v1.43/bin/bin/../../lib/gcc/pic32mx/4.8.3/../../../../pic32mx/lib\libpic32.a(strcpy.o)
 .reginfo       0x00000000       0x18 c:/program files (x86)/microchip/xc32/v1.43/bin/bin/../../lib/gcc/pic32mx/4.8.3/../../../../pic32mx/lib\libpic32.a(strcpy.o)
 .data          0x00000000        0x0 c:/program files (x86)/microchip/xc32/v1.43/bin/bin/../../lib/gcc/pic32mx/4.8.3/../../../../pic32mx/lib\libpic32.a(strlen.o)
 .bss           0x00000000        0x0 c:/program files (x86)/microchip/xc32/v1.43/bin/bin/../../lib/gcc/pic32mx/4.8.3/../../../../pic32mx/lib\libpic32.a(strlen.o)
 .reginfo       0x00000000       0x18 c:/program files (x86)/microchip/xc32/v1.43/bin/bin/../../lib/gcc/pic32mx/4.8.3/../../../../pic32mx/lib\libpic32.a(strlen.o)
 .text          0x00000000        0x0 c:/program files (x86)/microchip/xc32/v1.43/bin/bin/../../lib/gcc/pic32mx/4.8.3/../../../../pic32mx/lib\libpic32.a(default-bootstrap-exception-handler.o)
 .data          0x00000000        0x0 c:/program files (x86)/microchip/xc32/v1.43/bin/bin/../../lib/gcc/pic32mx/4.8.3/../../../../pic32mx/lib\libpic32.a(default-bootstrap-exception-handler.o)
 .bss           0x00000000        0x0 c:/program files (x86)/microchip/xc32/v1.43/bin/bin/../../lib/gcc/pic32mx/4.8.3/../../../../pic32mx/lib\libpic32.a(default-bootstrap-exception-handler.o)
 .reginfo       0x00000000       0x18 c:/program files (x86)/microchip/xc32/v1.43/bin/bin/../../lib/gcc/pic32mx/4.8.3/../../../../pic32mx/lib\libpic32.a(default-bootstrap-exception-handler.o)
 .text          0x00000000        0x0 c:/program files (x86)/microchip/xc32/v1.43/bin/bin/../../lib/gcc/pic32mx/4.8.3/../../../../pic32mx/lib\libpic32.a(default-on-reset.o)
 .data          0x00000000        0x0 c:/program files (x86)/microchip/xc32/v1.43/bin/bin/../../lib/gcc/pic32mx/4.8.3/../../../../pic32mx/lib\libpic32.a(default-on-reset.o)
 .bss           0x00000000        0x0 c:/program files (x86)/microchip/xc32/v1.43/bin/bin/../../lib/gcc/pic32mx/4.8.3/../../../../pic32mx/lib\libpic32.a(default-on-reset.o)
 .reginfo       0x00000000       0x18 c:/program files (x86)/microchip/xc32/v1.43/bin/bin/../../lib/gcc/pic32mx/4.8.3/../../../../pic32mx/lib\libpic32.a(default-on-reset.o)
 .text          0x00000000        0x0 c:/program files (x86)/microchip/xc32/v1.43/bin/bin/../../lib/gcc/pic32mx/4.8.3/../../../../pic32mx/lib\libpic32.a(default-on-bootstrap.o)
 .data          0x00000000        0x0 c:/program files (x86)/microchip/xc32/v1.43/bin/bin/../../lib/gcc/pic32mx/4.8.3/../../../../pic32mx/lib\libpic32.a(default-on-bootstrap.o)
 .bss           0x00000000        0x0 c:/program files (x86)/microchip/xc32/v1.43/bin/bin/../../lib/gcc/pic32mx/4.8.3/../../../../pic32mx/lib\libpic32.a(default-on-bootstrap.o)
 .reginfo       0x00000000       0x18 c:/program files (x86)/microchip/xc32/v1.43/bin/bin/../../lib/gcc/pic32mx/4.8.3/../../../../pic32mx/lib\libpic32.a(default-on-bootstrap.o)
 .data          0x00000000        0x0 c:/program files (x86)/microchip/xc32/v1.43/bin/bin/../../lib/gcc/pic32mx/4.8.3/../../../../pic32mx/lib\libpic32.a(default-nmi-handler.o)
 .bss           0x00000000        0x0 c:/program files (x86)/microchip/xc32/v1.43/bin/bin/../../lib/gcc/pic32mx/4.8.3/../../../../pic32mx/lib\libpic32.a(default-nmi-handler.o)
 .reginfo       0x00000000       0x18 c:/program files (x86)/microchip/xc32/v1.43/bin/bin/../../lib/gcc/pic32mx/4.8.3/../../../../pic32mx/lib\libpic32.a(default-nmi-handler.o)
 .text          0x00000000        0x0 c:/program files (x86)/microchip/xc32/v1.43/bin/bin/../../lib/gcc/pic32mx/4.8.3/../../../../pic32mx/lib\libpic32.a(general-exception.o)
 .data          0x00000000        0x0 c:/program files (x86)/microchip/xc32/v1.43/bin/bin/../../lib/gcc/pic32mx/4.8.3/../../../../pic32mx/lib\libpic32.a(general-exception.o)
 .bss           0x00000000        0x0 c:/program files (x86)/microchip/xc32/v1.43/bin/bin/../../lib/gcc/pic32mx/4.8.3/../../../../pic32mx/lib\libpic32.a(general-exception.o)
 .reginfo       0x00000000       0x18 c:/program files (x86)/microchip/xc32/v1.43/bin/bin/../../lib/gcc/pic32mx/4.8.3/../../../../pic32mx/lib\libpic32.a(general-exception.o)
 .text          0x00000000        0x0 c:/program files (x86)/microchip/xc32/v1.43/bin/bin/../../lib/gcc/pic32mx/4.8.3/../../../../pic32mx/lib\libpic32.a(vector0.o)
 .data          0x00000000        0x0 c:/program files (x86)/microchip/xc32/v1.43/bin/bin/../../lib/gcc/pic32mx/4.8.3/../../../../pic32mx/lib\libpic32.a(vector0.o)
 .bss           0x00000000        0x0 c:/program files (x86)/microchip/xc32/v1.43/bin/bin/../../lib/gcc/pic32mx/4.8.3/../../../../pic32mx/lib\libpic32.a(vector0.o)
 .reginfo       0x00000000       0x18 c:/program files (x86)/microchip/xc32/v1.43/bin/bin/../../lib/gcc/pic32mx/4.8.3/../../../../pic32mx/lib\libpic32.a(vector0.o)
 .text          0x00000000        0x0 c:/program files (x86)/microchip/xc32/v1.43/bin/bin/../../lib/gcc/pic32mx/4.8.3/../../../../pic32mx/lib\libpic32.a(vector1.o)
 .data          0x00000000        0x0 c:/program files (x86)/microchip/xc32/v1.43/bin/bin/../../lib/gcc/pic32mx/4.8.3/../../../../pic32mx/lib\libpic32.a(vector1.o)
 .bss           0x00000000        0x0 c:/program files (x86)/microchip/xc32/v1.43/bin/bin/../../lib/gcc/pic32mx/4.8.3/../../../../pic32mx/lib\libpic32.a(vector1.o)
 .reginfo       0x00000000       0x18 c:/program files (x86)/microchip/xc32/v1.43/bin/bin/../../lib/gcc/pic32mx/4.8.3/../../../../pic32mx/lib\libpic32.a(vector1.o)
 .text          0x00000000        0x0 c:/program files (x86)/microchip/xc32/v1.43/bin/bin/../../lib/gcc/pic32mx/4.8.3/../../../../pic32mx/lib\libpic32.a(vector2.o)
 .data          0x00000000        0x0 c:/program files (x86)/microchip/xc32/v1.43/bin/bin/../../lib/gcc/pic32mx/4.8.3/../../../../pic32mx/lib\libpic32.a(vector2.o)
 .bss           0x00000000        0x0 c:/program files (x86)/microchip/xc32/v1.43/bin/bin/../../lib/gcc/pic32mx/4.8.3/../../../../pic32mx/lib\libpic32.a(vector2.o)
 .reginfo       0x00000000       0x18 c:/program files (x86)/microchip/xc32/v1.43/bin/bin/../../lib/gcc/pic32mx/4.8.3/../../../../pic32mx/lib\libpic32.a(vector2.o)
 .text          0x00000000        0x0 c:/program files (x86)/microchip/xc32/v1.43/bin/bin/../../lib/gcc/pic32mx/4.8.3/../../../../pic32mx/lib\libpic32.a(vector3.o)
 .data          0x00000000        0x0 c:/program files (x86)/microchip/xc32/v1.43/bin/bin/../../lib/gcc/pic32mx/4.8.3/../../../../pic32mx/lib\libpic32.a(vector3.o)
 .bss           0x00000000        0x0 c:/program files (x86)/microchip/xc32/v1.43/bin/bin/../../lib/gcc/pic32mx/4.8.3/../../../../pic32mx/lib\libpic32.a(vector3.o)
 .reginfo       0x00000000       0x18 c:/program files (x86)/microchip/xc32/v1.43/bin/bin/../../lib/gcc/pic32mx/4.8.3/../../../../pic32mx/lib\libpic32.a(vector3.o)
 .text          0x00000000        0x0 c:/program files (x86)/microchip/xc32/v1.43/bin/bin/../../lib/gcc/pic32mx/4.8.3/../../../../pic32mx/lib\libpic32.a(vector5.o)
 .data          0x00000000        0x0 c:/program files (x86)/microchip/xc32/v1.43/bin/bin/../../lib/gcc/pic32mx/4.8.3/../../../../pic32mx/lib\libpic32.a(vector5.o)
 .bss           0x00000000        0x0 c:/program files (x86)/microchip/xc32/v1.43/bin/bin/../../lib/gcc/pic32mx/4.8.3/../../../../pic32mx/lib\libpic32.a(vector5.o)
 .reginfo       0x00000000       0x18 c:/program files (x86)/microchip/xc32/v1.43/bin/bin/../../lib/gcc/pic32mx/4.8.3/../../../../pic32mx/lib\libpic32.a(vector5.o)
 .text          0x00000000        0x0 c:/program files (x86)/microchip/xc32/v1.43/bin/bin/../../lib/gcc/pic32mx/4.8.3/../../../../pic32mx/lib\libpic32.a(vector6.o)
 .data          0x00000000        0x0 c:/program files (x86)/microchip/xc32/v1.43/bin/bin/../../lib/gcc/pic32mx/4.8.3/../../../../pic32mx/lib\libpic32.a(vector6.o)
 .bss           0x00000000        0x0 c:/program files (x86)/microchip/xc32/v1.43/bin/bin/../../lib/gcc/pic32mx/4.8.3/../../../../pic32mx/lib\libpic32.a(vector6.o)
 .reginfo       0x00000000       0x18 c:/program files (x86)/microchip/xc32/v1.43/bin/bin/../../lib/gcc/pic32mx/4.8.3/../../../../pic32mx/lib\libpic32.a(vector6.o)
 .text          0x00000000        0x0 c:/program files (x86)/microchip/xc32/v1.43/bin/bin/../../lib/gcc/pic32mx/4.8.3/../../../../pic32mx/lib\libpic32.a(vector7.o)
 .data          0x00000000        0x0 c:/program files (x86)/microchip/xc32/v1.43/bin/bin/../../lib/gcc/pic32mx/4.8.3/../../../../pic32mx/lib\libpic32.a(vector7.o)
 .bss           0x00000000        0x0 c:/program files (x86)/microchip/xc32/v1.43/bin/bin/../../lib/gcc/pic32mx/4.8.3/../../../../pic32mx/lib\libpic32.a(vector7.o)
 .reginfo       0x00000000       0x18 c:/program files (x86)/microchip/xc32/v1.43/bin/bin/../../lib/gcc/pic32mx/4.8.3/../../../../pic32mx/lib\libpic32.a(vector7.o)
 .text          0x00000000        0x0 c:/program files (x86)/microchip/xc32/v1.43/bin/bin/../../lib/gcc/pic32mx/4.8.3/../../../../pic32mx/lib\libpic32.a(vector8.o)
 .data          0x00000000        0x0 c:/program files (x86)/microchip/xc32/v1.43/bin/bin/../../lib/gcc/pic32mx/4.8.3/../../../../pic32mx/lib\libpic32.a(vector8.o)
 .bss           0x00000000        0x0 c:/program files (x86)/microchip/xc32/v1.43/bin/bin/../../lib/gcc/pic32mx/4.8.3/../../../../pic32mx/lib\libpic32.a(vector8.o)
 .reginfo       0x00000000       0x18 c:/program files (x86)/microchip/xc32/v1.43/bin/bin/../../lib/gcc/pic32mx/4.8.3/../../../../pic32mx/lib\libpic32.a(vector8.o)
 .text          0x00000000        0x0 c:/program files (x86)/microchip/xc32/v1.43/bin/bin/../../lib/gcc/pic32mx/4.8.3/../../../../pic32mx/lib\libpic32.a(vector9.o)
 .data          0x00000000        0x0 c:/program files (x86)/microchip/xc32/v1.43/bin/bin/../../lib/gcc/pic32mx/4.8.3/../../../../pic32mx/lib\libpic32.a(vector9.o)
 .bss           0x00000000        0x0 c:/program files (x86)/microchip/xc32/v1.43/bin/bin/../../lib/gcc/pic32mx/4.8.3/../../../../pic32mx/lib\libpic32.a(vector9.o)
 .reginfo       0x00000000       0x18 c:/program files (x86)/microchip/xc32/v1.43/bin/bin/../../lib/gcc/pic32mx/4.8.3/../../../../pic32mx/lib\libpic32.a(vector9.o)
 .text          0x00000000        0x0 c:/program files (x86)/microchip/xc32/v1.43/bin/bin/../../lib/gcc/pic32mx/4.8.3/../../../../pic32mx/lib\libpic32.a(vector10.o)
 .data          0x00000000        0x0 c:/program files (x86)/microchip/xc32/v1.43/bin/bin/../../lib/gcc/pic32mx/4.8.3/../../../../pic32mx/lib\libpic32.a(vector10.o)
 .bss           0x00000000        0x0 c:/program files (x86)/microchip/xc32/v1.43/bin/bin/../../lib/gcc/pic32mx/4.8.3/../../../../pic32mx/lib\libpic32.a(vector10.o)
 .reginfo       0x00000000       0x18 c:/program files (x86)/microchip/xc32/v1.43/bin/bin/../../lib/gcc/pic32mx/4.8.3/../../../../pic32mx/lib\libpic32.a(vector10.o)
 .text          0x00000000        0x0 c:/program files (x86)/microchip/xc32/v1.43/bin/bin/../../lib/gcc/pic32mx/4.8.3/../../../../pic32mx/lib\libpic32.a(vector11.o)
 .data          0x00000000        0x0 c:/program files (x86)/microchip/xc32/v1.43/bin/bin/../../lib/gcc/pic32mx/4.8.3/../../../../pic32mx/lib\libpic32.a(vector11.o)
 .bss           0x00000000        0x0 c:/program files (x86)/microchip/xc32/v1.43/bin/bin/../../lib/gcc/pic32mx/4.8.3/../../../../pic32mx/lib\libpic32.a(vector11.o)
 .reginfo       0x00000000       0x18 c:/program files (x86)/microchip/xc32/v1.43/bin/bin/../../lib/gcc/pic32mx/4.8.3/../../../../pic32mx/lib\libpic32.a(vector11.o)
 .text          0x00000000        0x0 c:/program files (x86)/microchip/xc32/v1.43/bin/bin/../../lib/gcc/pic32mx/4.8.3/../../../../pic32mx/lib\libpic32.a(vector12.o)
 .data          0x00000000        0x0 c:/program files (x86)/microchip/xc32/v1.43/bin/bin/../../lib/gcc/pic32mx/4.8.3/../../../../pic32mx/lib\libpic32.a(vector12.o)
 .bss           0x00000000        0x0 c:/program files (x86)/microchip/xc32/v1.43/bin/bin/../../lib/gcc/pic32mx/4.8.3/../../../../pic32mx/lib\libpic32.a(vector12.o)
 .reginfo       0x00000000       0x18 c:/program files (x86)/microchip/xc32/v1.43/bin/bin/../../lib/gcc/pic32mx/4.8.3/../../../../pic32mx/lib\libpic32.a(vector12.o)
 .text          0x00000000        0x0 c:/program files (x86)/microchip/xc32/v1.43/bin/bin/../../lib/gcc/pic32mx/4.8.3/../../../../pic32mx/lib\libpic32.a(vector13.o)
 .data          0x00000000        0x0 c:/program files (x86)/microchip/xc32/v1.43/bin/bin/../../lib/gcc/pic32mx/4.8.3/../../../../pic32mx/lib\libpic32.a(vector13.o)
 .bss           0x00000000        0x0 c:/program files (x86)/microchip/xc32/v1.43/bin/bin/../../lib/gcc/pic32mx/4.8.3/../../../../pic32mx/lib\libpic32.a(vector13.o)
 .reginfo       0x00000000       0x18 c:/program files (x86)/microchip/xc32/v1.43/bin/bin/../../lib/gcc/pic32mx/4.8.3/../../../../pic32mx/lib\libpic32.a(vector13.o)
 .text          0x00000000        0x0 c:/program files (x86)/microchip/xc32/v1.43/bin/bin/../../lib/gcc/pic32mx/4.8.3/../../../../pic32mx/lib\libpic32.a(vector14.o)
 .data          0x00000000        0x0 c:/program files (x86)/microchip/xc32/v1.43/bin/bin/../../lib/gcc/pic32mx/4.8.3/../../../../pic32mx/lib\libpic32.a(vector14.o)
 .bss           0x00000000        0x0 c:/program files (x86)/microchip/xc32/v1.43/bin/bin/../../lib/gcc/pic32mx/4.8.3/../../../../pic32mx/lib\libpic32.a(vector14.o)
 .reginfo       0x00000000       0x18 c:/program files (x86)/microchip/xc32/v1.43/bin/bin/../../lib/gcc/pic32mx/4.8.3/../../../../pic32mx/lib\libpic32.a(vector14.o)
 .text          0x00000000        0x0 c:/program files (x86)/microchip/xc32/v1.43/bin/bin/../../lib/gcc/pic32mx/4.8.3/../../../../pic32mx/lib\libpic32.a(vector15.o)
 .data          0x00000000        0x0 c:/program files (x86)/microchip/xc32/v1.43/bin/bin/../../lib/gcc/pic32mx/4.8.3/../../../../pic32mx/lib\libpic32.a(vector15.o)
 .bss           0x00000000        0x0 c:/program files (x86)/microchip/xc32/v1.43/bin/bin/../../lib/gcc/pic32mx/4.8.3/../../../../pic32mx/lib\libpic32.a(vector15.o)
 .reginfo       0x00000000       0x18 c:/program files (x86)/microchip/xc32/v1.43/bin/bin/../../lib/gcc/pic32mx/4.8.3/../../../../pic32mx/lib\libpic32.a(vector15.o)
 .text          0x00000000        0x0 c:/program files (x86)/microchip/xc32/v1.43/bin/bin/../../lib/gcc/pic32mx/4.8.3/../../../../pic32mx/lib\libpic32.a(vector16.o)
 .data          0x00000000        0x0 c:/program files (x86)/microchip/xc32/v1.43/bin/bin/../../lib/gcc/pic32mx/4.8.3/../../../../pic32mx/lib\libpic32.a(vector16.o)
 .bss           0x00000000        0x0 c:/program files (x86)/microchip/xc32/v1.43/bin/bin/../../lib/gcc/pic32mx/4.8.3/../../../../pic32mx/lib\libpic32.a(vector16.o)
 .reginfo       0x00000000       0x18 c:/program files (x86)/microchip/xc32/v1.43/bin/bin/../../lib/gcc/pic32mx/4.8.3/../../../../pic32mx/lib\libpic32.a(vector16.o)
 .text          0x00000000        0x0 c:/program files (x86)/microchip/xc32/v1.43/bin/bin/../../lib/gcc/pic32mx/4.8.3/../../../../pic32mx/lib\libpic32.a(vector17.o)
 .data          0x00000000        0x0 c:/program files (x86)/microchip/xc32/v1.43/bin/bin/../../lib/gcc/pic32mx/4.8.3/../../../../pic32mx/lib\libpic32.a(vector17.o)
 .bss           0x00000000        0x0 c:/program files (x86)/microchip/xc32/v1.43/bin/bin/../../lib/gcc/pic32mx/4.8.3/../../../../pic32mx/lib\libpic32.a(vector17.o)
 .reginfo       0x00000000       0x18 c:/program files (x86)/microchip/xc32/v1.43/bin/bin/../../lib/gcc/pic32mx/4.8.3/../../../../pic32mx/lib\libpic32.a(vector17.o)
 .text          0x00000000        0x0 c:/program files (x86)/microchip/xc32/v1.43/bin/bin/../../lib/gcc/pic32mx/4.8.3/../../../../pic32mx/lib\libpic32.a(vector18.o)
 .data          0x00000000        0x0 c:/program files (x86)/microchip/xc32/v1.43/bin/bin/../../lib/gcc/pic32mx/4.8.3/../../../../pic32mx/lib\libpic32.a(vector18.o)
 .bss           0x00000000        0x0 c:/program files (x86)/microchip/xc32/v1.43/bin/bin/../../lib/gcc/pic32mx/4.8.3/../../../../pic32mx/lib\libpic32.a(vector18.o)
 .reginfo       0x00000000       0x18 c:/program files (x86)/microchip/xc32/v1.43/bin/bin/../../lib/gcc/pic32mx/4.8.3/../../../../pic32mx/lib\libpic32.a(vector18.o)
 .text          0x00000000        0x0 c:/program files (x86)/microchip/xc32/v1.43/bin/bin/../../lib/gcc/pic32mx/4.8.3/../../../../pic32mx/lib\libpic32.a(vector19.o)
 .data          0x00000000        0x0 c:/program files (x86)/microchip/xc32/v1.43/bin/bin/../../lib/gcc/pic32mx/4.8.3/../../../../pic32mx/lib\libpic32.a(vector19.o)
 .bss           0x00000000        0x0 c:/program files (x86)/microchip/xc32/v1.43/bin/bin/../../lib/gcc/pic32mx/4.8.3/../../../../pic32mx/lib\libpic32.a(vector19.o)
 .reginfo       0x00000000       0x18 c:/program files (x86)/microchip/xc32/v1.43/bin/bin/../../lib/gcc/pic32mx/4.8.3/../../../../pic32mx/lib\libpic32.a(vector19.o)
 .text          0x00000000        0x0 c:/program files (x86)/microchip/xc32/v1.43/bin/bin/../../lib/gcc/pic32mx/4.8.3/../../../../pic32mx/lib\libpic32.a(vector20.o)
 .data          0x00000000        0x0 c:/program files (x86)/microchip/xc32/v1.43/bin/bin/../../lib/gcc/pic32mx/4.8.3/../../../../pic32mx/lib\libpic32.a(vector20.o)
 .bss           0x00000000        0x0 c:/program files (x86)/microchip/xc32/v1.43/bin/bin/../../lib/gcc/pic32mx/4.8.3/../../../../pic32mx/lib\libpic32.a(vector20.o)
 .reginfo       0x00000000       0x18 c:/program files (x86)/microchip/xc32/v1.43/bin/bin/../../lib/gcc/pic32mx/4.8.3/../../../../pic32mx/lib\libpic32.a(vector20.o)
 .text          0x00000000        0x0 c:/program files (x86)/microchip/xc32/v1.43/bin/bin/../../lib/gcc/pic32mx/4.8.3/../../../../pic32mx/lib\libpic32.a(vector21.o)
 .data          0x00000000        0x0 c:/program files (x86)/microchip/xc32/v1.43/bin/bin/../../lib/gcc/pic32mx/4.8.3/../../../../pic32mx/lib\libpic32.a(vector21.o)
 .bss           0x00000000        0x0 c:/program files (x86)/microchip/xc32/v1.43/bin/bin/../../lib/gcc/pic32mx/4.8.3/../../../../pic32mx/lib\libpic32.a(vector21.o)
 .reginfo       0x00000000       0x18 c:/program files (x86)/microchip/xc32/v1.43/bin/bin/../../lib/gcc/pic32mx/4.8.3/../../../../pic32mx/lib\libpic32.a(vector21.o)
 .text          0x00000000        0x0 c:/program files (x86)/microchip/xc32/v1.43/bin/bin/../../lib/gcc/pic32mx/4.8.3/../../../../pic32mx/lib\libpic32.a(vector22.o)
 .data          0x00000000        0x0 c:/program files (x86)/microchip/xc32/v1.43/bin/bin/../../lib/gcc/pic32mx/4.8.3/../../../../pic32mx/lib\libpic32.a(vector22.o)
 .bss           0x00000000        0x0 c:/program files (x86)/microchip/xc32/v1.43/bin/bin/../../lib/gcc/pic32mx/4.8.3/../../../../pic32mx/lib\libpic32.a(vector22.o)
 .reginfo       0x00000000       0x18 c:/program files (x86)/microchip/xc32/v1.43/bin/bin/../../lib/gcc/pic32mx/4.8.3/../../../../pic32mx/lib\libpic32.a(vector22.o)
 .text          0x00000000        0x0 c:/program files (x86)/microchip/xc32/v1.43/bin/bin/../../lib/gcc/pic32mx/4.8.3/../../../../pic32mx/lib\libpic32.a(vector23.o)
 .data          0x00000000        0x0 c:/program files (x86)/microchip/xc32/v1.43/bin/bin/../../lib/gcc/pic32mx/4.8.3/../../../../pic32mx/lib\libpic32.a(vector23.o)
 .bss           0x00000000        0x0 c:/program files (x86)/microchip/xc32/v1.43/bin/bin/../../lib/gcc/pic32mx/4.8.3/../../../../pic32mx/lib\libpic32.a(vector23.o)
 .reginfo       0x00000000       0x18 c:/program files (x86)/microchip/xc32/v1.43/bin/bin/../../lib/gcc/pic32mx/4.8.3/../../../../pic32mx/lib\libpic32.a(vector23.o)
 .text          0x00000000        0x0 c:/program files (x86)/microchip/xc32/v1.43/bin/bin/../../lib/gcc/pic32mx/4.8.3/../../../../pic32mx/lib\libpic32.a(vector25.o)
 .data          0x00000000        0x0 c:/program files (x86)/microchip/xc32/v1.43/bin/bin/../../lib/gcc/pic32mx/4.8.3/../../../../pic32mx/lib\libpic32.a(vector25.o)
 .bss           0x00000000        0x0 c:/program files (x86)/microchip/xc32/v1.43/bin/bin/../../lib/gcc/pic32mx/4.8.3/../../../../pic32mx/lib\libpic32.a(vector25.o)
 .reginfo       0x00000000       0x18 c:/program files (x86)/microchip/xc32/v1.43/bin/bin/../../lib/gcc/pic32mx/4.8.3/../../../../pic32mx/lib\libpic32.a(vector25.o)
 .text          0x00000000        0x0 c:/program files (x86)/microchip/xc32/v1.43/bin/bin/../../lib/gcc/pic32mx/4.8.3/../../../../pic32mx/lib\libpic32.a(vector26.o)
 .data          0x00000000        0x0 c:/program files (x86)/microchip/xc32/v1.43/bin/bin/../../lib/gcc/pic32mx/4.8.3/../../../../pic32mx/lib\libpic32.a(vector26.o)
 .bss           0x00000000        0x0 c:/program files (x86)/microchip/xc32/v1.43/bin/bin/../../lib/gcc/pic32mx/4.8.3/../../../../pic32mx/lib\libpic32.a(vector26.o)
 .reginfo       0x00000000       0x18 c:/program files (x86)/microchip/xc32/v1.43/bin/bin/../../lib/gcc/pic32mx/4.8.3/../../../../pic32mx/lib\libpic32.a(vector26.o)
 .text          0x00000000        0x0 c:/program files (x86)/microchip/xc32/v1.43/bin/bin/../../lib/gcc/pic32mx/4.8.3/../../../../pic32mx/lib\libpic32.a(vector27.o)
 .data          0x00000000        0x0 c:/program files (x86)/microchip/xc32/v1.43/bin/bin/../../lib/gcc/pic32mx/4.8.3/../../../../pic32mx/lib\libpic32.a(vector27.o)
 .bss           0x00000000        0x0 c:/program files (x86)/microchip/xc32/v1.43/bin/bin/../../lib/gcc/pic32mx/4.8.3/../../../../pic32mx/lib\libpic32.a(vector27.o)
 .reginfo       0x00000000       0x18 c:/program files (x86)/microchip/xc32/v1.43/bin/bin/../../lib/gcc/pic32mx/4.8.3/../../../../pic32mx/lib\libpic32.a(vector27.o)
 .text          0x00000000        0x0 c:/program files (x86)/microchip/xc32/v1.43/bin/bin/../../lib/gcc/pic32mx/4.8.3/../../../../pic32mx/lib\libpic32.a(vector28.o)
 .data          0x00000000        0x0 c:/program files (x86)/microchip/xc32/v1.43/bin/bin/../../lib/gcc/pic32mx/4.8.3/../../../../pic32mx/lib\libpic32.a(vector28.o)
 .bss           0x00000000        0x0 c:/program files (x86)/microchip/xc32/v1.43/bin/bin/../../lib/gcc/pic32mx/4.8.3/../../../../pic32mx/lib\libpic32.a(vector28.o)
 .reginfo       0x00000000       0x18 c:/program files (x86)/microchip/xc32/v1.43/bin/bin/../../lib/gcc/pic32mx/4.8.3/../../../../pic32mx/lib\libpic32.a(vector28.o)
 .text          0x00000000        0x0 c:/program files (x86)/microchip/xc32/v1.43/bin/bin/../../lib/gcc/pic32mx/4.8.3/../../../../pic32mx/lib\libpic32.a(vector29.o)
 .data          0x00000000        0x0 c:/program files (x86)/microchip/xc32/v1.43/bin/bin/../../lib/gcc/pic32mx/4.8.3/../../../../pic32mx/lib\libpic32.a(vector29.o)
 .bss           0x00000000        0x0 c:/program files (x86)/microchip/xc32/v1.43/bin/bin/../../lib/gcc/pic32mx/4.8.3/../../../../pic32mx/lib\libpic32.a(vector29.o)
 .reginfo       0x00000000       0x18 c:/program files (x86)/microchip/xc32/v1.43/bin/bin/../../lib/gcc/pic32mx/4.8.3/../../../../pic32mx/lib\libpic32.a(vector29.o)
 .text          0x00000000        0x0 c:/program files (x86)/microchip/xc32/v1.43/bin/bin/../../lib/gcc/pic32mx/4.8.3/../../../../pic32mx/lib\libpic32.a(vector30.o)
 .data          0x00000000        0x0 c:/program files (x86)/microchip/xc32/v1.43/bin/bin/../../lib/gcc/pic32mx/4.8.3/../../../../pic32mx/lib\libpic32.a(vector30.o)
 .bss           0x00000000        0x0 c:/program files (x86)/microchip/xc32/v1.43/bin/bin/../../lib/gcc/pic32mx/4.8.3/../../../../pic32mx/lib\libpic32.a(vector30.o)
 .reginfo       0x00000000       0x18 c:/program files (x86)/microchip/xc32/v1.43/bin/bin/../../lib/gcc/pic32mx/4.8.3/../../../../pic32mx/lib\libpic32.a(vector30.o)
 .text          0x00000000        0x0 c:/program files (x86)/microchip/xc32/v1.43/bin/bin/../../lib/gcc/pic32mx/4.8.3/../../../../pic32mx/lib\libpic32.a(vector31.o)
 .data          0x00000000        0x0 c:/program files (x86)/microchip/xc32/v1.43/bin/bin/../../lib/gcc/pic32mx/4.8.3/../../../../pic32mx/lib\libpic32.a(vector31.o)
 .bss           0x00000000        0x0 c:/program files (x86)/microchip/xc32/v1.43/bin/bin/../../lib/gcc/pic32mx/4.8.3/../../../../pic32mx/lib\libpic32.a(vector31.o)
 .reginfo       0x00000000       0x18 c:/program files (x86)/microchip/xc32/v1.43/bin/bin/../../lib/gcc/pic32mx/4.8.3/../../../../pic32mx/lib\libpic32.a(vector31.o)
 .text          0x00000000        0x0 c:/program files (x86)/microchip/xc32/v1.43/bin/bin/../../lib/gcc/pic32mx/4.8.3/../../../../pic32mx/lib\libpic32.a(vector32.o)
 .data          0x00000000        0x0 c:/program files (x86)/microchip/xc32/v1.43/bin/bin/../../lib/gcc/pic32mx/4.8.3/../../../../pic32mx/lib\libpic32.a(vector32.o)
 .bss           0x00000000        0x0 c:/program files (x86)/microchip/xc32/v1.43/bin/bin/../../lib/gcc/pic32mx/4.8.3/../../../../pic32mx/lib\libpic32.a(vector32.o)
 .reginfo       0x00000000       0x18 c:/program files (x86)/microchip/xc32/v1.43/bin/bin/../../lib/gcc/pic32mx/4.8.3/../../../../pic32mx/lib\libpic32.a(vector32.o)
 .text          0x00000000        0x0 c:/program files (x86)/microchip/xc32/v1.43/bin/bin/../../lib/gcc/pic32mx/4.8.3/../../../../pic32mx/lib\libpic32.a(vector33.o)
 .data          0x00000000        0x0 c:/program files (x86)/microchip/xc32/v1.43/bin/bin/../../lib/gcc/pic32mx/4.8.3/../../../../pic32mx/lib\libpic32.a(vector33.o)
 .bss           0x00000000        0x0 c:/program files (x86)/microchip/xc32/v1.43/bin/bin/../../lib/gcc/pic32mx/4.8.3/../../../../pic32mx/lib\libpic32.a(vector33.o)
 .reginfo       0x00000000       0x18 c:/program files (x86)/microchip/xc32/v1.43/bin/bin/../../lib/gcc/pic32mx/4.8.3/../../../../pic32mx/lib\libpic32.a(vector33.o)
 .text          0x00000000        0x0 c:/program files (x86)/microchip/xc32/v1.43/bin/bin/../../lib/gcc/pic32mx/4.8.3/../../../../pic32mx/lib\libpic32.a(vector34.o)
 .data          0x00000000        0x0 c:/program files (x86)/microchip/xc32/v1.43/bin/bin/../../lib/gcc/pic32mx/4.8.3/../../../../pic32mx/lib\libpic32.a(vector34.o)
 .bss           0x00000000        0x0 c:/program files (x86)/microchip/xc32/v1.43/bin/bin/../../lib/gcc/pic32mx/4.8.3/../../../../pic32mx/lib\libpic32.a(vector34.o)
 .reginfo       0x00000000       0x18 c:/program files (x86)/microchip/xc32/v1.43/bin/bin/../../lib/gcc/pic32mx/4.8.3/../../../../pic32mx/lib\libpic32.a(vector34.o)
 .text          0x00000000        0x0 c:/program files (x86)/microchip/xc32/v1.43/bin/bin/../../lib/gcc/pic32mx/4.8.3/../../../../pic32mx/lib\libpic32.a(vector35.o)
 .data          0x00000000        0x0 c:/program files (x86)/microchip/xc32/v1.43/bin/bin/../../lib/gcc/pic32mx/4.8.3/../../../../pic32mx/lib\libpic32.a(vector35.o)
 .bss           0x00000000        0x0 c:/program files (x86)/microchip/xc32/v1.43/bin/bin/../../lib/gcc/pic32mx/4.8.3/../../../../pic32mx/lib\libpic32.a(vector35.o)
 .reginfo       0x00000000       0x18 c:/program files (x86)/microchip/xc32/v1.43/bin/bin/../../lib/gcc/pic32mx/4.8.3/../../../../pic32mx/lib\libpic32.a(vector35.o)
 .text          0x00000000        0x0 c:/program files (x86)/microchip/xc32/v1.43/bin/bin/../../lib/gcc/pic32mx/4.8.3/../../../../pic32mx/lib\libpic32.a(vector36.o)
 .data          0x00000000        0x0 c:/program files (x86)/microchip/xc32/v1.43/bin/bin/../../lib/gcc/pic32mx/4.8.3/../../../../pic32mx/lib\libpic32.a(vector36.o)
 .bss           0x00000000        0x0 c:/program files (x86)/microchip/xc32/v1.43/bin/bin/../../lib/gcc/pic32mx/4.8.3/../../../../pic32mx/lib\libpic32.a(vector36.o)
 .reginfo       0x00000000       0x18 c:/program files (x86)/microchip/xc32/v1.43/bin/bin/../../lib/gcc/pic32mx/4.8.3/../../../../pic32mx/lib\libpic32.a(vector36.o)
 .text          0x00000000        0x0 c:/program files (x86)/microchip/xc32/v1.43/bin/bin/../../lib/gcc/pic32mx/4.8.3/../../../../pic32mx/lib\libpic32.a(vector37.o)
 .data          0x00000000        0x0 c:/program files (x86)/microchip/xc32/v1.43/bin/bin/../../lib/gcc/pic32mx/4.8.3/../../../../pic32mx/lib\libpic32.a(vector37.o)
 .bss           0x00000000        0x0 c:/program files (x86)/microchip/xc32/v1.43/bin/bin/../../lib/gcc/pic32mx/4.8.3/../../../../pic32mx/lib\libpic32.a(vector37.o)
 .reginfo       0x00000000       0x18 c:/program files (x86)/microchip/xc32/v1.43/bin/bin/../../lib/gcc/pic32mx/4.8.3/../../../../pic32mx/lib\libpic32.a(vector37.o)
 .text          0x00000000        0x0 c:/program files (x86)/microchip/xc32/v1.43/bin/bin/../../lib/gcc/pic32mx/4.8.3/../../../../pic32mx/lib\libpic32.a(vector38.o)
 .data          0x00000000        0x0 c:/program files (x86)/microchip/xc32/v1.43/bin/bin/../../lib/gcc/pic32mx/4.8.3/../../../../pic32mx/lib\libpic32.a(vector38.o)
 .bss           0x00000000        0x0 c:/program files (x86)/microchip/xc32/v1.43/bin/bin/../../lib/gcc/pic32mx/4.8.3/../../../../pic32mx/lib\libpic32.a(vector38.o)
 .reginfo       0x00000000       0x18 c:/program files (x86)/microchip/xc32/v1.43/bin/bin/../../lib/gcc/pic32mx/4.8.3/../../../../pic32mx/lib\libpic32.a(vector38.o)
 .text          0x00000000        0x0 c:/program files (x86)/microchip/xc32/v1.43/bin/bin/../../lib/gcc/pic32mx/4.8.3/../../../../pic32mx/lib\libpic32.a(vector39.o)
 .data          0x00000000        0x0 c:/program files (x86)/microchip/xc32/v1.43/bin/bin/../../lib/gcc/pic32mx/4.8.3/../../../../pic32mx/lib\libpic32.a(vector39.o)
 .bss           0x00000000        0x0 c:/program files (x86)/microchip/xc32/v1.43/bin/bin/../../lib/gcc/pic32mx/4.8.3/../../../../pic32mx/lib\libpic32.a(vector39.o)
 .reginfo       0x00000000       0x18 c:/program files (x86)/microchip/xc32/v1.43/bin/bin/../../lib/gcc/pic32mx/4.8.3/../../../../pic32mx/lib\libpic32.a(vector39.o)
 .text          0x00000000        0x0 c:/program files (x86)/microchip/xc32/v1.43/bin/bin/../../lib/gcc/pic32mx/4.8.3/../../../../pic32mx/lib\libpic32.a(vector40.o)
 .data          0x00000000        0x0 c:/program files (x86)/microchip/xc32/v1.43/bin/bin/../../lib/gcc/pic32mx/4.8.3/../../../../pic32mx/lib\libpic32.a(vector40.o)
 .bss           0x00000000        0x0 c:/program files (x86)/microchip/xc32/v1.43/bin/bin/../../lib/gcc/pic32mx/4.8.3/../../../../pic32mx/lib\libpic32.a(vector40.o)
 .reginfo       0x00000000       0x18 c:/program files (x86)/microchip/xc32/v1.43/bin/bin/../../lib/gcc/pic32mx/4.8.3/../../../../pic32mx/lib\libpic32.a(vector40.o)
 .text          0x00000000        0x0 c:/program files (x86)/microchip/xc32/v1.43/bin/bin/../../lib/gcc/pic32mx/4.8.3/../../../../pic32mx/lib\libpic32.a(vector41.o)
 .data          0x00000000        0x0 c:/program files (x86)/microchip/xc32/v1.43/bin/bin/../../lib/gcc/pic32mx/4.8.3/../../../../pic32mx/lib\libpic32.a(vector41.o)
 .bss           0x00000000        0x0 c:/program files (x86)/microchip/xc32/v1.43/bin/bin/../../lib/gcc/pic32mx/4.8.3/../../../../pic32mx/lib\libpic32.a(vector41.o)
 .reginfo       0x00000000       0x18 c:/program files (x86)/microchip/xc32/v1.43/bin/bin/../../lib/gcc/pic32mx/4.8.3/../../../../pic32mx/lib\libpic32.a(vector41.o)
 .text          0x00000000        0x0 c:/program files (x86)/microchip/xc32/v1.43/bin/bin/../../lib/gcc/pic32mx/4.8.3/../../../../pic32mx/lib\libpic32.a(vector42.o)
 .data          0x00000000        0x0 c:/program files (x86)/microchip/xc32/v1.43/bin/bin/../../lib/gcc/pic32mx/4.8.3/../../../../pic32mx/lib\libpic32.a(vector42.o)
 .bss           0x00000000        0x0 c:/program files (x86)/microchip/xc32/v1.43/bin/bin/../../lib/gcc/pic32mx/4.8.3/../../../../pic32mx/lib\libpic32.a(vector42.o)
 .reginfo       0x00000000       0x18 c:/program files (x86)/microchip/xc32/v1.43/bin/bin/../../lib/gcc/pic32mx/4.8.3/../../../../pic32mx/lib\libpic32.a(vector42.o)
 .text          0x00000000        0x0 c:/program files (x86)/microchip/xc32/v1.43/bin/bin/../../lib/gcc/pic32mx/4.8.3/../../../../pic32mx/lib\libpic32.a(vector43.o)
 .data          0x00000000        0x0 c:/program files (x86)/microchip/xc32/v1.43/bin/bin/../../lib/gcc/pic32mx/4.8.3/../../../../pic32mx/lib\libpic32.a(vector43.o)
 .bss           0x00000000        0x0 c:/program files (x86)/microchip/xc32/v1.43/bin/bin/../../lib/gcc/pic32mx/4.8.3/../../../../pic32mx/lib\libpic32.a(vector43.o)
 .reginfo       0x00000000       0x18 c:/program files (x86)/microchip/xc32/v1.43/bin/bin/../../lib/gcc/pic32mx/4.8.3/../../../../pic32mx/lib\libpic32.a(vector43.o)
 .text          0x00000000        0x0 c:/program files (x86)/microchip/xc32/v1.43/bin/bin/../../lib/gcc/pic32mx/4.8.3/../../../../pic32mx/lib\libpic32.a(vector44.o)
 .data          0x00000000        0x0 c:/program files (x86)/microchip/xc32/v1.43/bin/bin/../../lib/gcc/pic32mx/4.8.3/../../../../pic32mx/lib\libpic32.a(vector44.o)
 .bss           0x00000000        0x0 c:/program files (x86)/microchip/xc32/v1.43/bin/bin/../../lib/gcc/pic32mx/4.8.3/../../../../pic32mx/lib\libpic32.a(vector44.o)
 .reginfo       0x00000000       0x18 c:/program files (x86)/microchip/xc32/v1.43/bin/bin/../../lib/gcc/pic32mx/4.8.3/../../../../pic32mx/lib\libpic32.a(vector44.o)
 .text          0x00000000        0x0 c:/program files (x86)/microchip/xc32/v1.43/bin/bin/../../lib/gcc/pic32mx/4.8.3/../../../../pic32mx/lib\libpic32.a(vector45.o)
 .data          0x00000000        0x0 c:/program files (x86)/microchip/xc32/v1.43/bin/bin/../../lib/gcc/pic32mx/4.8.3/../../../../pic32mx/lib\libpic32.a(vector45.o)
 .bss           0x00000000        0x0 c:/program files (x86)/microchip/xc32/v1.43/bin/bin/../../lib/gcc/pic32mx/4.8.3/../../../../pic32mx/lib\libpic32.a(vector45.o)
 .reginfo       0x00000000       0x18 c:/program files (x86)/microchip/xc32/v1.43/bin/bin/../../lib/gcc/pic32mx/4.8.3/../../../../pic32mx/lib\libpic32.a(vector45.o)
 .text          0x00000000        0x0 c:/program files (x86)/microchip/xc32/v1.43/bin/bin/../../lib/gcc/pic32mx/4.8.3/../../../../pic32mx/lib\libpic32.a(vector46.o)
 .data          0x00000000        0x0 c:/program files (x86)/microchip/xc32/v1.43/bin/bin/../../lib/gcc/pic32mx/4.8.3/../../../../pic32mx/lib\libpic32.a(vector46.o)
 .bss           0x00000000        0x0 c:/program files (x86)/microchip/xc32/v1.43/bin/bin/../../lib/gcc/pic32mx/4.8.3/../../../../pic32mx/lib\libpic32.a(vector46.o)
 .reginfo       0x00000000       0x18 c:/program files (x86)/microchip/xc32/v1.43/bin/bin/../../lib/gcc/pic32mx/4.8.3/../../../../pic32mx/lib\libpic32.a(vector46.o)
 .text          0x00000000        0x0 c:/program files (x86)/microchip/xc32/v1.43/bin/bin/../../lib/gcc/pic32mx/4.8.3/../../../../pic32mx/lib\libpic32.a(vector47.o)
 .data          0x00000000        0x0 c:/program files (x86)/microchip/xc32/v1.43/bin/bin/../../lib/gcc/pic32mx/4.8.3/../../../../pic32mx/lib\libpic32.a(vector47.o)
 .bss           0x00000000        0x0 c:/program files (x86)/microchip/xc32/v1.43/bin/bin/../../lib/gcc/pic32mx/4.8.3/../../../../pic32mx/lib\libpic32.a(vector47.o)
 .reginfo       0x00000000       0x18 c:/program files (x86)/microchip/xc32/v1.43/bin/bin/../../lib/gcc/pic32mx/4.8.3/../../../../pic32mx/lib\libpic32.a(vector47.o)
 .text          0x00000000        0x0 c:/program files (x86)/microchip/xc32/v1.43/bin/bin/../../lib/gcc/pic32mx/4.8.3/../../../../pic32mx/lib\libpic32.a(vector49.o)
 .data          0x00000000        0x0 c:/program files (x86)/microchip/xc32/v1.43/bin/bin/../../lib/gcc/pic32mx/4.8.3/../../../../pic32mx/lib\libpic32.a(vector49.o)
 .bss           0x00000000        0x0 c:/program files (x86)/microchip/xc32/v1.43/bin/bin/../../lib/gcc/pic32mx/4.8.3/../../../../pic32mx/lib\libpic32.a(vector49.o)
 .reginfo       0x00000000       0x18 c:/program files (x86)/microchip/xc32/v1.43/bin/bin/../../lib/gcc/pic32mx/4.8.3/../../../../pic32mx/lib\libpic32.a(vector49.o)
 .text          0x00000000        0x0 c:/program files (x86)/microchip/xc32/v1.43/bin/bin/../../lib/gcc/pic32mx/4.8.3/../../../../pic32mx/lib\libpic32.a(vector50.o)
 .data          0x00000000        0x0 c:/program files (x86)/microchip/xc32/v1.43/bin/bin/../../lib/gcc/pic32mx/4.8.3/../../../../pic32mx/lib\libpic32.a(vector50.o)
 .bss           0x00000000        0x0 c:/program files (x86)/microchip/xc32/v1.43/bin/bin/../../lib/gcc/pic32mx/4.8.3/../../../../pic32mx/lib\libpic32.a(vector50.o)
 .reginfo       0x00000000       0x18 c:/program files (x86)/microchip/xc32/v1.43/bin/bin/../../lib/gcc/pic32mx/4.8.3/../../../../pic32mx/lib\libpic32.a(vector50.o)
 .text          0x00000000        0x0 c:/program files (x86)/microchip/xc32/v1.43/bin/bin/../../lib/gcc/pic32mx/4.8.3/../../../../pic32mx/lib\libpic32.a(vector51.o)
 .data          0x00000000        0x0 c:/program files (x86)/microchip/xc32/v1.43/bin/bin/../../lib/gcc/pic32mx/4.8.3/../../../../pic32mx/lib\libpic32.a(vector51.o)
 .bss           0x00000000        0x0 c:/program files (x86)/microchip/xc32/v1.43/bin/bin/../../lib/gcc/pic32mx/4.8.3/../../../../pic32mx/lib\libpic32.a(vector51.o)
 .reginfo       0x00000000       0x18 c:/program files (x86)/microchip/xc32/v1.43/bin/bin/../../lib/gcc/pic32mx/4.8.3/../../../../pic32mx/lib\libpic32.a(vector51.o)
 .text          0x00000000        0x0 c:/program files (x86)/microchip/xc32/v1.43/bin/bin/../../lib/gcc/pic32mx/4.8.3/../../../../pic32mx/lib\libpic32.a(defaultinterrupt.o)
 .data          0x00000000        0x0 c:/program files (x86)/microchip/xc32/v1.43/bin/bin/../../lib/gcc/pic32mx/4.8.3/../../../../pic32mx/lib\libpic32.a(defaultinterrupt.o)
 .bss           0x00000000        0x0 c:/program files (x86)/microchip/xc32/v1.43/bin/bin/../../lib/gcc/pic32mx/4.8.3/../../../../pic32mx/lib\libpic32.a(defaultinterrupt.o)
 .reginfo       0x00000000       0x18 c:/program files (x86)/microchip/xc32/v1.43/bin/bin/../../lib/gcc/pic32mx/4.8.3/../../../../pic32mx/lib\libpic32.a(defaultinterrupt.o)
 .text          0x00000000        0x0 c:/program files (x86)/microchip/xc32/v1.43/bin/bin/../../lib/gcc/pic32mx/4.8.3/../../../../pic32mx/lib\libc.a(atoi.o)
 .data          0x00000000        0x0 c:/program files (x86)/microchip/xc32/v1.43/bin/bin/../../lib/gcc/pic32mx/4.8.3/../../../../pic32mx/lib\libc.a(atoi.o)
 .bss           0x00000000        0x0 c:/program files (x86)/microchip/xc32/v1.43/bin/bin/../../lib/gcc/pic32mx/4.8.3/../../../../pic32mx/lib\libc.a(atoi.o)
 .reginfo       0x00000000       0x18 c:/program files (x86)/microchip/xc32/v1.43/bin/bin/../../lib/gcc/pic32mx/4.8.3/../../../../pic32mx/lib\libc.a(atoi.o)
 .text          0x00000000        0x0 c:/program files (x86)/microchip/xc32/v1.43/bin/bin/../../lib/gcc/pic32mx/4.8.3/../../../../pic32mx/lib\libc.a(calloc.o)
 .data          0x00000000        0x0 c:/program files (x86)/microchip/xc32/v1.43/bin/bin/../../lib/gcc/pic32mx/4.8.3/../../../../pic32mx/lib\libc.a(calloc.o)
 .bss           0x00000000        0x0 c:/program files (x86)/microchip/xc32/v1.43/bin/bin/../../lib/gcc/pic32mx/4.8.3/../../../../pic32mx/lib\libc.a(calloc.o)
 .reginfo       0x00000000       0x18 c:/program files (x86)/microchip/xc32/v1.43/bin/bin/../../lib/gcc/pic32mx/4.8.3/../../../../pic32mx/lib\libc.a(calloc.o)
 .text          0x00000000        0x0 c:/program files (x86)/microchip/xc32/v1.43/bin/bin/../../lib/gcc/pic32mx/4.8.3/../../../../pic32mx/lib\libc.a(ctype.o)
 .data          0x00000000        0x0 c:/program files (x86)/microchip/xc32/v1.43/bin/bin/../../lib/gcc/pic32mx/4.8.3/../../../../pic32mx/lib\libc.a(ctype.o)
 .bss           0x00000000        0x0 c:/program files (x86)/microchip/xc32/v1.43/bin/bin/../../lib/gcc/pic32mx/4.8.3/../../../../pic32mx/lib\libc.a(ctype.o)
 .reginfo       0x00000000       0x18 c:/program files (x86)/microchip/xc32/v1.43/bin/bin/../../lib/gcc/pic32mx/4.8.3/../../../../pic32mx/lib\libc.a(ctype.o)
 .text          0x00000000        0x0 c:/program files (x86)/microchip/xc32/v1.43/bin/bin/../../lib/gcc/pic32mx/4.8.3/../../../../pic32mx/lib\libc.a(ctypef.o)
 .data          0x00000000        0x0 c:/program files (x86)/microchip/xc32/v1.43/bin/bin/../../lib/gcc/pic32mx/4.8.3/../../../../pic32mx/lib\libc.a(ctypef.o)
 .bss           0x00000000        0x0 c:/program files (x86)/microchip/xc32/v1.43/bin/bin/../../lib/gcc/pic32mx/4.8.3/../../../../pic32mx/lib\libc.a(ctypef.o)
 .reginfo       0x00000000       0x18 c:/program files (x86)/microchip/xc32/v1.43/bin/bin/../../lib/gcc/pic32mx/4.8.3/../../../../pic32mx/lib\libc.a(ctypef.o)
 .text.tolower  0x00000000       0x24 c:/program files (x86)/microchip/xc32/v1.43/bin/bin/../../lib/gcc/pic32mx/4.8.3/../../../../pic32mx/lib\libc.a(ctypef.o)
 .text.isalnum  0x00000000       0x18 c:/program files (x86)/microchip/xc32/v1.43/bin/bin/../../lib/gcc/pic32mx/4.8.3/../../../../pic32mx/lib\libc.a(ctypef.o)
 .text.isalpha  0x00000000       0x18 c:/program files (x86)/microchip/xc32/v1.43/bin/bin/../../lib/gcc/pic32mx/4.8.3/../../../../pic32mx/lib\libc.a(ctypef.o)
 .text.isascii  0x00000000        0x8 c:/program files (x86)/microchip/xc32/v1.43/bin/bin/../../lib/gcc/pic32mx/4.8.3/../../../../pic32mx/lib\libc.a(ctypef.o)
 .text.iscntrl  0x00000000       0x18 c:/program files (x86)/microchip/xc32/v1.43/bin/bin/../../lib/gcc/pic32mx/4.8.3/../../../../pic32mx/lib\libc.a(ctypef.o)
 .text.isdigit  0x00000000       0x18 c:/program files (x86)/microchip/xc32/v1.43/bin/bin/../../lib/gcc/pic32mx/4.8.3/../../../../pic32mx/lib\libc.a(ctypef.o)
 .text.isgraph  0x00000000       0x18 c:/program files (x86)/microchip/xc32/v1.43/bin/bin/../../lib/gcc/pic32mx/4.8.3/../../../../pic32mx/lib\libc.a(ctypef.o)
 .text.islower  0x00000000       0x18 c:/program files (x86)/microchip/xc32/v1.43/bin/bin/../../lib/gcc/pic32mx/4.8.3/../../../../pic32mx/lib\libc.a(ctypef.o)
 .text.isprint  0x00000000       0x18 c:/program files (x86)/microchip/xc32/v1.43/bin/bin/../../lib/gcc/pic32mx/4.8.3/../../../../pic32mx/lib\libc.a(ctypef.o)
 .text.ispunct  0x00000000       0x18 c:/program files (x86)/microchip/xc32/v1.43/bin/bin/../../lib/gcc/pic32mx/4.8.3/../../../../pic32mx/lib\libc.a(ctypef.o)
 .text.isspace  0x00000000       0x18 c:/program files (x86)/microchip/xc32/v1.43/bin/bin/../../lib/gcc/pic32mx/4.8.3/../../../../pic32mx/lib\libc.a(ctypef.o)
 .text.isupper  0x00000000       0x18 c:/program files (x86)/microchip/xc32/v1.43/bin/bin/../../lib/gcc/pic32mx/4.8.3/../../../../pic32mx/lib\libc.a(ctypef.o)
 .text.isxdigit
                0x00000000       0x18 c:/program files (x86)/microchip/xc32/v1.43/bin/bin/../../lib/gcc/pic32mx/4.8.3/../../../../pic32mx/lib\libc.a(ctypef.o)
 .text.toascii  0x00000000        0x8 c:/program files (x86)/microchip/xc32/v1.43/bin/bin/../../lib/gcc/pic32mx/4.8.3/../../../../pic32mx/lib\libc.a(ctypef.o)
 .text._tolower
                0x00000000        0x8 c:/program files (x86)/microchip/xc32/v1.43/bin/bin/../../lib/gcc/pic32mx/4.8.3/../../../../pic32mx/lib\libc.a(ctypef.o)
 .text._toupper
                0x00000000        0x8 c:/program files (x86)/microchip/xc32/v1.43/bin/bin/../../lib/gcc/pic32mx/4.8.3/../../../../pic32mx/lib\libc.a(ctypef.o)
 .text          0x00000000        0x0 c:/program files (x86)/microchip/xc32/v1.43/bin/bin/../../lib/gcc/pic32mx/4.8.3/../../../../pic32mx/lib\libc.a(malloc.o)
 .data          0x00000000        0x0 c:/program files (x86)/microchip/xc32/v1.43/bin/bin/../../lib/gcc/pic32mx/4.8.3/../../../../pic32mx/lib\libc.a(malloc.o)
 .reginfo       0x00000000       0x18 c:/program files (x86)/microchip/xc32/v1.43/bin/bin/../../lib/gcc/pic32mx/4.8.3/../../../../pic32mx/lib\libc.a(malloc.o)
 .text.realloc  0x00000000      0x148 c:/program files (x86)/microchip/xc32/v1.43/bin/bin/../../lib/gcc/pic32mx/4.8.3/../../../../pic32mx/lib\libc.a(malloc.o)
 .text          0x00000000        0x0 c:/program files (x86)/microchip/xc32/v1.43/bin/bin/../../lib/gcc/pic32mx/4.8.3/../../../../pic32mx/lib\libc.a(rand.o)
 .data          0x00000000        0x0 c:/program files (x86)/microchip/xc32/v1.43/bin/bin/../../lib/gcc/pic32mx/4.8.3/../../../../pic32mx/lib\libc.a(rand.o)
 .reginfo       0x00000000       0x18 c:/program files (x86)/microchip/xc32/v1.43/bin/bin/../../lib/gcc/pic32mx/4.8.3/../../../../pic32mx/lib\libc.a(rand.o)
 .text          0x00000000        0x0 c:/program files (x86)/microchip/xc32/v1.43/bin/bin/../../lib/gcc/pic32mx/4.8.3/../../../../pic32mx/lib\libc.a(strchr.o)
 .data          0x00000000        0x0 c:/program files (x86)/microchip/xc32/v1.43/bin/bin/../../lib/gcc/pic32mx/4.8.3/../../../../pic32mx/lib\libc.a(strchr.o)
 .bss           0x00000000        0x0 c:/program files (x86)/microchip/xc32/v1.43/bin/bin/../../lib/gcc/pic32mx/4.8.3/../../../../pic32mx/lib\libc.a(strchr.o)
 .reginfo       0x00000000       0x18 c:/program files (x86)/microchip/xc32/v1.43/bin/bin/../../lib/gcc/pic32mx/4.8.3/../../../../pic32mx/lib\libc.a(strchr.o)
 .text          0x00000000        0x0 c:/program files (x86)/microchip/xc32/v1.43/bin/bin/../../lib/gcc/pic32mx/4.8.3/../../../../pic32mx/lib\libc.a(strncpy.o)
 .data          0x00000000        0x0 c:/program files (x86)/microchip/xc32/v1.43/bin/bin/../../lib/gcc/pic32mx/4.8.3/../../../../pic32mx/lib\libc.a(strncpy.o)
 .bss           0x00000000        0x0 c:/program files (x86)/microchip/xc32/v1.43/bin/bin/../../lib/gcc/pic32mx/4.8.3/../../../../pic32mx/lib\libc.a(strncpy.o)
 .reginfo       0x00000000       0x18 c:/program files (x86)/microchip/xc32/v1.43/bin/bin/../../lib/gcc/pic32mx/4.8.3/../../../../pic32mx/lib\libc.a(strncpy.o)
 .text          0x00000000        0x0 c:/program files (x86)/microchip/xc32/v1.43/bin/bin/../../lib/gcc/pic32mx/4.8.3/../../../../pic32mx/lib\libc.a(strstr.o)
 .data          0x00000000        0x0 c:/program files (x86)/microchip/xc32/v1.43/bin/bin/../../lib/gcc/pic32mx/4.8.3/../../../../pic32mx/lib\libc.a(strstr.o)
 .bss           0x00000000        0x0 c:/program files (x86)/microchip/xc32/v1.43/bin/bin/../../lib/gcc/pic32mx/4.8.3/../../../../pic32mx/lib\libc.a(strstr.o)
 .reginfo       0x00000000       0x18 c:/program files (x86)/microchip/xc32/v1.43/bin/bin/../../lib/gcc/pic32mx/4.8.3/../../../../pic32mx/lib\libc.a(strstr.o)
 .text          0x00000000        0x0 c:/program files (x86)/microchip/xc32/v1.43/bin/bin/../../lib/gcc/pic32mx/4.8.3/../../../../pic32mx/lib\libc.a(strtol.o)
 .data          0x00000000        0x0 c:/program files (x86)/microchip/xc32/v1.43/bin/bin/../../lib/gcc/pic32mx/4.8.3/../../../../pic32mx/lib\libc.a(strtol.o)
 .bss           0x00000000        0x0 c:/program files (x86)/microchip/xc32/v1.43/bin/bin/../../lib/gcc/pic32mx/4.8.3/../../../../pic32mx/lib\libc.a(strtol.o)
 .reginfo       0x00000000       0x18 c:/program files (x86)/microchip/xc32/v1.43/bin/bin/../../lib/gcc/pic32mx/4.8.3/../../../../pic32mx/lib\libc.a(strtol.o)
 .text          0x00000000        0x0 c:/program files (x86)/microchip/xc32/v1.43/bin/bin/../../lib/gcc/pic32mx/4.8.3/../../../../pic32mx/lib\libc.a(snprintf_cdnopsuxX.eo)
 .data          0x00000000        0x0 c:/program files (x86)/microchip/xc32/v1.43/bin/bin/../../lib/gcc/pic32mx/4.8.3/../../../../pic32mx/lib\libc.a(snprintf_cdnopsuxX.eo)
 .bss           0x00000000        0x0 c:/program files (x86)/microchip/xc32/v1.43/bin/bin/../../lib/gcc/pic32mx/4.8.3/../../../../pic32mx/lib\libc.a(snprintf_cdnopsuxX.eo)
 .reginfo       0x00000000       0x18 c:/program files (x86)/microchip/xc32/v1.43/bin/bin/../../lib/gcc/pic32mx/4.8.3/../../../../pic32mx/lib\libc.a(snprintf_cdnopsuxX.eo)
 .text          0x00000000        0x0 c:/program files (x86)/microchip/xc32/v1.43/bin/bin/../../lib/gcc/pic32mx/4.8.3/../../../../pic32mx/lib\libc.a(sprintf_cdnopsuxX.eo)
 .data          0x00000000        0x0 c:/program files (x86)/microchip/xc32/v1.43/bin/bin/../../lib/gcc/pic32mx/4.8.3/../../../../pic32mx/lib\libc.a(sprintf_cdnopsuxX.eo)
 .bss           0x00000000        0x0 c:/program files (x86)/microchip/xc32/v1.43/bin/bin/../../lib/gcc/pic32mx/4.8.3/../../../../pic32mx/lib\libc.a(sprintf_cdnopsuxX.eo)
 .reginfo       0x00000000       0x18 c:/program files (x86)/microchip/xc32/v1.43/bin/bin/../../lib/gcc/pic32mx/4.8.3/../../../../pic32mx/lib\libc.a(sprintf_cdnopsuxX.eo)
 .text          0x00000000        0x0 c:/program files (x86)/microchip/xc32/v1.43/bin/bin/../../lib/gcc/pic32mx/4.8.3/../../../../pic32mx/lib\libc.a(vsnprintf_cdnopsuxX.eo)
 .data          0x00000000        0x0 c:/program files (x86)/microchip/xc32/v1.43/bin/bin/../../lib/gcc/pic32mx/4.8.3/../../../../pic32mx/lib\libc.a(vsnprintf_cdnopsuxX.eo)
 .bss           0x00000000        0x0 c:/program files (x86)/microchip/xc32/v1.43/bin/bin/../../lib/gcc/pic32mx/4.8.3/../../../../pic32mx/lib\libc.a(vsnprintf_cdnopsuxX.eo)
 .reginfo       0x00000000       0x18 c:/program files (x86)/microchip/xc32/v1.43/bin/bin/../../lib/gcc/pic32mx/4.8.3/../../../../pic32mx/lib\libc.a(vsnprintf_cdnopsuxX.eo)
 .text          0x00000000        0x0 c:/program files (x86)/microchip/xc32/v1.43/bin/bin/../../lib/gcc/pic32mx/4.8.3/../../../../pic32mx/lib\libc.a(vsnprintf.o)
 .data          0x00000000        0x0 c:/program files (x86)/microchip/xc32/v1.43/bin/bin/../../lib/gcc/pic32mx/4.8.3/../../../../pic32mx/lib\libc.a(vsnprintf.o)
 .bss           0x00000000        0x0 c:/program files (x86)/microchip/xc32/v1.43/bin/bin/../../lib/gcc/pic32mx/4.8.3/../../../../pic32mx/lib\libc.a(vsnprintf.o)
 .reginfo       0x00000000       0x18 c:/program files (x86)/microchip/xc32/v1.43/bin/bin/../../lib/gcc/pic32mx/4.8.3/../../../../pic32mx/lib\libc.a(vsnprintf.o)
 .text          0x00000000        0x0 c:/program files (x86)/microchip/xc32/v1.43/bin/bin/../../lib/gcc/pic32mx/4.8.3/../../../../pic32mx/lib\libc.a(errno.o)
 .data          0x00000000        0x0 c:/program files (x86)/microchip/xc32/v1.43/bin/bin/../../lib/gcc/pic32mx/4.8.3/../../../../pic32mx/lib\libc.a(errno.o)
 .bss           0x00000000        0x0 c:/program files (x86)/microchip/xc32/v1.43/bin/bin/../../lib/gcc/pic32mx/4.8.3/../../../../pic32mx/lib\libc.a(errno.o)
 .reginfo       0x00000000       0x18 c:/program files (x86)/microchip/xc32/v1.43/bin/bin/../../lib/gcc/pic32mx/4.8.3/../../../../pic32mx/lib\libc.a(errno.o)
 .text          0x00000000        0x0 c:/program files (x86)/microchip/xc32/v1.43/bin/bin/../../lib/gcc/pic32mx/4.8.3/../../../../pic32mx/lib\libc.a(strncmp.o)
 .data          0x00000000        0x0 c:/program files (x86)/microchip/xc32/v1.43/bin/bin/../../lib/gcc/pic32mx/4.8.3/../../../../pic32mx/lib\libc.a(strncmp.o)
 .bss           0x00000000        0x0 c:/program files (x86)/microchip/xc32/v1.43/bin/bin/../../lib/gcc/pic32mx/4.8.3/../../../../pic32mx/lib\libc.a(strncmp.o)
 .reginfo       0x00000000       0x18 c:/program files (x86)/microchip/xc32/v1.43/bin/bin/../../lib/gcc/pic32mx/4.8.3/../../../../pic32mx/lib\libc.a(strncmp.o)
 .text          0x00000000        0x0 c:/program files (x86)/microchip/xc32/v1.43/bin/bin/../../lib/gcc/pic32mx/4.8.3/../../../../pic32mx/lib\libc.a(doprnt_cdnopsuxX.eo)
 .data          0x00000000        0x0 c:/program files (x86)/microchip/xc32/v1.43/bin/bin/../../lib/gcc/pic32mx/4.8.3/../../../../pic32mx/lib\libc.a(doprnt_cdnopsuxX.eo)
 .bss           0x00000000        0x0 c:/program files (x86)/microchip/xc32/v1.43/bin/bin/../../lib/gcc/pic32mx/4.8.3/../../../../pic32mx/lib\libc.a(doprnt_cdnopsuxX.eo)
 .reginfo       0x00000000       0x18 c:/program files (x86)/microchip/xc32/v1.43/bin/bin/../../lib/gcc/pic32mx/4.8.3/../../../../pic32mx/lib\libc.a(doprnt_cdnopsuxX.eo)
 .text          0x00000000        0x0 c:/program files (x86)/microchip/xc32/v1.43/bin/bin/../../lib/gcc/pic32mx/4.8.3/../../../../pic32mx/lib\libc.a(doprnt.o)
 .data          0x00000000        0x0 c:/program files (x86)/microchip/xc32/v1.43/bin/bin/../../lib/gcc/pic32mx/4.8.3/../../../../pic32mx/lib\libc.a(doprnt.o)
 .bss           0x00000000        0x0 c:/program files (x86)/microchip/xc32/v1.43/bin/bin/../../lib/gcc/pic32mx/4.8.3/../../../../pic32mx/lib\libc.a(doprnt.o)
 .reginfo       0x00000000       0x18 c:/program files (x86)/microchip/xc32/v1.43/bin/bin/../../lib/gcc/pic32mx/4.8.3/../../../../pic32mx/lib\libc.a(doprnt.o)
 .text          0x00000000        0x0 c:/program files (x86)/microchip/xc32/v1.43/bin/bin/../../lib/gcc/pic32mx/4.8.3/../../../../pic32mx/lib\libc.a(_fputc_simple.o)
 .data          0x00000000        0x0 c:/program files (x86)/microchip/xc32/v1.43/bin/bin/../../lib/gcc/pic32mx/4.8.3/../../../../pic32mx/lib\libc.a(_fputc_simple.o)
 .bss           0x00000000        0x0 c:/program files (x86)/microchip/xc32/v1.43/bin/bin/../../lib/gcc/pic32mx/4.8.3/../../../../pic32mx/lib\libc.a(_fputc_simple.o)
 .reginfo       0x00000000       0x18 c:/program files (x86)/microchip/xc32/v1.43/bin/bin/../../lib/gcc/pic32mx/4.8.3/../../../../pic32mx/lib\libc.a(_fputc_simple.o)
 .text          0x00000000        0x0 c:/program files (x86)/microchip/xc32/v1.43/bin/bin/../../lib/gcc/pic32mx/4.8.3/../../../../pic32mx/lib\libc.a(ldpowers.o)
 .data          0x00000000        0x0 c:/program files (x86)/microchip/xc32/v1.43/bin/bin/../../lib/gcc/pic32mx/4.8.3/../../../../pic32mx/lib\libc.a(ldpowers.o)
 .bss           0x00000000        0x0 c:/program files (x86)/microchip/xc32/v1.43/bin/bin/../../lib/gcc/pic32mx/4.8.3/../../../../pic32mx/lib\libc.a(ldpowers.o)
 .reginfo       0x00000000       0x18 c:/program files (x86)/microchip/xc32/v1.43/bin/bin/../../lib/gcc/pic32mx/4.8.3/../../../../pic32mx/lib\libc.a(ldpowers.o)
 .text          0x00000000        0x0 c:/program files (x86)/microchip/xc32/v1.43/bin/bin/../../lib/gcc/pic32mx/4.8.3/../../../../pic32mx/lib\libc.a(_iob.o)
 .data          0x00000000       0xa4 c:/program files (x86)/microchip/xc32/v1.43/bin/bin/../../lib/gcc/pic32mx/4.8.3/../../../../pic32mx/lib\libc.a(_iob.o)
 .reginfo       0x00000000       0x18 c:/program files (x86)/microchip/xc32/v1.43/bin/bin/../../lib/gcc/pic32mx/4.8.3/../../../../pic32mx/lib\libc.a(_iob.o)
 .text          0x00000000        0x0 c:/program files (x86)/microchip/xc32/v1.43/bin/bin/../../lib/gcc/pic32mx/4.8.3/../../../../pic32mx/lib\libc.a(_flsbuf_simple.o)
 .data          0x00000000        0x0 c:/program files (x86)/microchip/xc32/v1.43/bin/bin/../../lib/gcc/pic32mx/4.8.3/../../../../pic32mx/lib\libc.a(_flsbuf_simple.o)
 .bss           0x00000000        0x0 c:/program files (x86)/microchip/xc32/v1.43/bin/bin/../../lib/gcc/pic32mx/4.8.3/../../../../pic32mx/lib\libc.a(_flsbuf_simple.o)
 .reginfo       0x00000000       0x18 c:/program files (x86)/microchip/xc32/v1.43/bin/bin/../../lib/gcc/pic32mx/4.8.3/../../../../pic32mx/lib\libc.a(_flsbuf_simple.o)
 .text          0x00000000        0x0 c:/program files (x86)/microchip/xc32/v1.43/bin/bin/../../lib/gcc/pic32mx/4.8.3/../../../../pic32mx/lib\libm.a(dpfrexp.o)
 .data          0x00000000        0x0 c:/program files (x86)/microchip/xc32/v1.43/bin/bin/../../lib/gcc/pic32mx/4.8.3/../../../../pic32mx/lib\libm.a(dpfrexp.o)
 .bss           0x00000000        0x0 c:/program files (x86)/microchip/xc32/v1.43/bin/bin/../../lib/gcc/pic32mx/4.8.3/../../../../pic32mx/lib\libm.a(dpfrexp.o)
 .reginfo       0x00000000       0x18 c:/program files (x86)/microchip/xc32/v1.43/bin/bin/../../lib/gcc/pic32mx/4.8.3/../../../../pic32mx/lib\libm.a(dpfrexp.o)
 .text          0x00000000        0x0 c:/program files (x86)/microchip/xc32/v1.43/bin/bin/../../lib/gcc/pic32mx/4.8.3/../../../../pic32mx/lib\libm.a(dp32div.o)
 .data          0x00000000        0x0 c:/program files (x86)/microchip/xc32/v1.43/bin/bin/../../lib/gcc/pic32mx/4.8.3/../../../../pic32mx/lib\libm.a(dp32div.o)
 .bss           0x00000000        0x0 c:/program files (x86)/microchip/xc32/v1.43/bin/bin/../../lib/gcc/pic32mx/4.8.3/../../../../pic32mx/lib\libm.a(dp32div.o)
 .reginfo       0x00000000       0x18 c:/program files (x86)/microchip/xc32/v1.43/bin/bin/../../lib/gcc/pic32mx/4.8.3/../../../../pic32mx/lib\libm.a(dp32div.o)
 .text          0x00000000        0x0 c:/program files (x86)/microchip/xc32/v1.43/bin/bin/../../lib/gcc/pic32mx/4.8.3/../../../../pic32mx/lib\libm.a(dp32mul.o)
 .data          0x00000000        0x0 c:/program files (x86)/microchip/xc32/v1.43/bin/bin/../../lib/gcc/pic32mx/4.8.3/../../../../pic32mx/lib\libm.a(dp32mul.o)
 .bss           0x00000000        0x0 c:/program files (x86)/microchip/xc32/v1.43/bin/bin/../../lib/gcc/pic32mx/4.8.3/../../../../pic32mx/lib\libm.a(dp32mul.o)
 .reginfo       0x00000000       0x18 c:/program files (x86)/microchip/xc32/v1.43/bin/bin/../../lib/gcc/pic32mx/4.8.3/../../../../pic32mx/lib\libm.a(dp32mul.o)
 .text          0x00000000        0x0 c:/program files (x86)/microchip/xc32/v1.43/bin/bin/../../lib/gcc/pic32mx/4.8.3/../../../../pic32mx/lib\libm.a(dp32subadd.o)
 .data          0x00000000        0x0 c:/program files (x86)/microchip/xc32/v1.43/bin/bin/../../lib/gcc/pic32mx/4.8.3/../../../../pic32mx/lib\libm.a(dp32subadd.o)
 .bss           0x00000000        0x0 c:/program files (x86)/microchip/xc32/v1.43/bin/bin/../../lib/gcc/pic32mx/4.8.3/../../../../pic32mx/lib\libm.a(dp32subadd.o)
 .reginfo       0x00000000       0x18 c:/program files (x86)/microchip/xc32/v1.43/bin/bin/../../lib/gcc/pic32mx/4.8.3/../../../../pic32mx/lib\libm.a(dp32subadd.o)
 .text          0x00000000        0x0 c:/program files (x86)/microchip/xc32/v1.43/bin/bin/../../lib/gcc/pic32mx/4.8.3/../../../../pic32mx/lib\libm.a(dpcmp.o)
 .data          0x00000000        0x0 c:/program files (x86)/microchip/xc32/v1.43/bin/bin/../../lib/gcc/pic32mx/4.8.3/../../../../pic32mx/lib\libm.a(dpcmp.o)
 .bss           0x00000000        0x0 c:/program files (x86)/microchip/xc32/v1.43/bin/bin/../../lib/gcc/pic32mx/4.8.3/../../../../pic32mx/lib\libm.a(dpcmp.o)
 .reginfo       0x00000000       0x18 c:/program files (x86)/microchip/xc32/v1.43/bin/bin/../../lib/gcc/pic32mx/4.8.3/../../../../pic32mx/lib\libm.a(dpcmp.o)
 .text          0x00000000        0x0 c:/program files (x86)/microchip/xc32/v1.43/bin/bin/../../lib/gcc/pic32mx/4.8.3/../../../../pic32mx/lib\libm.a(dptoul.o)
 .data          0x00000000        0x0 c:/program files (x86)/microchip/xc32/v1.43/bin/bin/../../lib/gcc/pic32mx/4.8.3/../../../../pic32mx/lib\libm.a(dptoul.o)
 .bss           0x00000000        0x0 c:/program files (x86)/microchip/xc32/v1.43/bin/bin/../../lib/gcc/pic32mx/4.8.3/../../../../pic32mx/lib\libm.a(dptoul.o)
 .reginfo       0x00000000       0x18 c:/program files (x86)/microchip/xc32/v1.43/bin/bin/../../lib/gcc/pic32mx/4.8.3/../../../../pic32mx/lib\libm.a(dptoul.o)
 .text          0x00000000        0x0 c:/program files (x86)/microchip/xc32/v1.43/bin/bin/../../lib/gcc/pic32mx/4.8.3/../../../../pic32mx/lib\libm.a(fptodp.o)
 .data          0x00000000        0x0 c:/program files (x86)/microchip/xc32/v1.43/bin/bin/../../lib/gcc/pic32mx/4.8.3/../../../../pic32mx/lib\libm.a(fptodp.o)
 .bss           0x00000000        0x0 c:/program files (x86)/microchip/xc32/v1.43/bin/bin/../../lib/gcc/pic32mx/4.8.3/../../../../pic32mx/lib\libm.a(fptodp.o)
 .reginfo       0x00000000       0x18 c:/program files (x86)/microchip/xc32/v1.43/bin/bin/../../lib/gcc/pic32mx/4.8.3/../../../../pic32mx/lib\libm.a(fptodp.o)
 .text          0x00000000        0x0 c:/program files (x86)/microchip/xc32/v1.43/bin/bin/../../lib/gcc/pic32mx/4.8.3/../../../../pic32mx/lib\libe.a(_fixunsdfdi.o)
 .data          0x00000000        0x0 c:/program files (x86)/microchip/xc32/v1.43/bin/bin/../../lib/gcc/pic32mx/4.8.3/../../../../pic32mx/lib\libe.a(_fixunsdfdi.o)
 .bss           0x00000000        0x0 c:/program files (x86)/microchip/xc32/v1.43/bin/bin/../../lib/gcc/pic32mx/4.8.3/../../../../pic32mx/lib\libe.a(_fixunsdfdi.o)
 .reginfo       0x00000000       0x18 c:/program files (x86)/microchip/xc32/v1.43/bin/bin/../../lib/gcc/pic32mx/4.8.3/../../../../pic32mx/lib\libe.a(_fixunsdfdi.o)
 .text          0x00000000        0x0 c:/program files (x86)/microchip/xc32/v1.43/bin/bin/../../lib/gcc/pic32mx/4.8.3/../../../../pic32mx/lib\libe.a(_orderdf2.o)
 .data          0x00000000        0x0 c:/program files (x86)/microchip/xc32/v1.43/bin/bin/../../lib/gcc/pic32mx/4.8.3/../../../../pic32mx/lib\libe.a(_orderdf2.o)
 .bss           0x00000000        0x0 c:/program files (x86)/microchip/xc32/v1.43/bin/bin/../../lib/gcc/pic32mx/4.8.3/../../../../pic32mx/lib\libe.a(_orderdf2.o)
 .reginfo       0x00000000       0x18 c:/program files (x86)/microchip/xc32/v1.43/bin/bin/../../lib/gcc/pic32mx/4.8.3/../../../../pic32mx/lib\libe.a(_orderdf2.o)
 .text          0x00000000        0x0 c:/program files (x86)/microchip/xc32/v1.43/bin/bin/../../lib/gcc/pic32mx/4.8.3/../../../../pic32mx/lib\libe.a(_fixdfdi.o)
 .data          0x00000000        0x0 c:/program files (x86)/microchip/xc32/v1.43/bin/bin/../../lib/gcc/pic32mx/4.8.3/../../../../pic32mx/lib\libe.a(_fixdfdi.o)
 .bss           0x00000000        0x0 c:/program files (x86)/microchip/xc32/v1.43/bin/bin/../../lib/gcc/pic32mx/4.8.3/../../../../pic32mx/lib\libe.a(_fixdfdi.o)
 .reginfo       0x00000000       0x18 c:/program files (x86)/microchip/xc32/v1.43/bin/bin/../../lib/gcc/pic32mx/4.8.3/../../../../pic32mx/lib\libe.a(_fixdfdi.o)
 .data          0x00000000        0x0 c:/program files (x86)/microchip/xc32/v1.43/bin/bin/../../lib/gcc/pic32mx/4.8.3\libgcc.a(_umoddi3.o)
 .bss           0x00000000        0x0 c:/program files (x86)/microchip/xc32/v1.43/bin/bin/../../lib/gcc/pic32mx/4.8.3\libgcc.a(_umoddi3.o)
 .reginfo       0x00000000       0x18 c:/program files (x86)/microchip/xc32/v1.43/bin/bin/../../lib/gcc/pic32mx/4.8.3\libgcc.a(_umoddi3.o)
 .data          0x00000000        0x0 c:/program files (x86)/microchip/xc32/v1.43/bin/bin/../../lib/gcc/pic32mx/4.8.3\libgcc.a(floatunsidf.o)
 .bss           0x00000000        0x0 c:/program files (x86)/microchip/xc32/v1.43/bin/bin/../../lib/gcc/pic32mx/4.8.3\libgcc.a(floatunsidf.o)
 .reginfo       0x00000000       0x18 c:/program files (x86)/microchip/xc32/v1.43/bin/bin/../../lib/gcc/pic32mx/4.8.3\libgcc.a(floatunsidf.o)
 .text          0x00000000        0x0 c:/program files (x86)/microchip/xc32/v1.43/bin/bin/../../lib/gcc/pic32mx/4.8.3/../../../../pic32mx/lib\libpic32.a(sbrk.o)
 .data          0x00000000        0x0 c:/program files (x86)/microchip/xc32/v1.43/bin/bin/../../lib/gcc/pic32mx/4.8.3/../../../../pic32mx/lib\libpic32.a(sbrk.o)
 .reginfo       0x00000000       0x18 c:/program files (x86)/microchip/xc32/v1.43/bin/bin/../../lib/gcc/pic32mx/4.8.3/../../../../pic32mx/lib\libpic32.a(sbrk.o)
 .text.getpagesize
                0x00000000        0x8 c:/program files (x86)/microchip/xc32/v1.43/bin/bin/../../lib/gcc/pic32mx/4.8.3/../../../../pic32mx/lib\libpic32.a(sbrk.o)
 .text          0x00000000        0x0 c:/program files (x86)/microchip/xc32/v1.43/bin/bin/../../lib/gcc/pic32mx/4.8.3/../../../../pic32mx/lib\libpic32.a(write.o)
 .data          0x00000000        0x0 c:/program files (x86)/microchip/xc32/v1.43/bin/bin/../../lib/gcc/pic32mx/4.8.3/../../../../pic32mx/lib\libpic32.a(write.o)
 .bss           0x00000000        0x0 c:/program files (x86)/microchip/xc32/v1.43/bin/bin/../../lib/gcc/pic32mx/4.8.3/../../../../pic32mx/lib\libpic32.a(write.o)
 .reginfo       0x00000000       0x18 c:/program files (x86)/microchip/xc32/v1.43/bin/bin/../../lib/gcc/pic32mx/4.8.3/../../../../pic32mx/lib\libpic32.a(write.o)
 .text          0x00000000        0x0 c:/program files (x86)/microchip/xc32/v1.43/bin/bin/../../lib/gcc/pic32mx/4.8.3/../../../../pic32mx/lib\libpic32.a(_mon_putc.o)
 .data          0x00000000        0x0 c:/program files (x86)/microchip/xc32/v1.43/bin/bin/../../lib/gcc/pic32mx/4.8.3/../../../../pic32mx/lib\libpic32.a(_mon_putc.o)
 .bss           0x00000000        0x0 c:/program files (x86)/microchip/xc32/v1.43/bin/bin/../../lib/gcc/pic32mx/4.8.3/../../../../pic32mx/lib\libpic32.a(_mon_putc.o)
 .reginfo       0x00000000       0x18 c:/program files (x86)/microchip/xc32/v1.43/bin/bin/../../lib/gcc/pic32mx/4.8.3/../../../../pic32mx/lib\libpic32.a(_mon_putc.o)
 .text          0x00000000        0x0 c:/program files (x86)/microchip/xc32/v1.43/bin/bin/../../lib/gcc/pic32mx/4.8.3/../../../../pic32mx/lib\libpic32.a(xc32_uart.o)
 .data          0x00000000        0x0 c:/program files (x86)/microchip/xc32/v1.43/bin/bin/../../lib/gcc/pic32mx/4.8.3/../../../../pic32mx/lib\libpic32.a(xc32_uart.o)
 .bss           0x00000000        0x0 c:/program files (x86)/microchip/xc32/v1.43/bin/bin/../../lib/gcc/pic32mx/4.8.3/../../../../pic32mx/lib\libpic32.a(xc32_uart.o)
 .reginfo       0x00000000       0x18 c:/program files (x86)/microchip/xc32/v1.43/bin/bin/../../lib/gcc/pic32mx/4.8.3/../../../../pic32mx/lib\libpic32.a(xc32_uart.o)
 .text          0x00000000        0x0 c:/program files (x86)/microchip/xc32/v1.43/bin/bin/../../lib/gcc/pic32mx/4.8.3/../../../../pic32mx/lib\libm.a(litodp.o)
 .data          0x00000000        0x0 c:/program files (x86)/microchip/xc32/v1.43/bin/bin/../../lib/gcc/pic32mx/4.8.3/../../../../pic32mx/lib\libm.a(litodp.o)
 .bss           0x00000000        0x0 c:/program files (x86)/microchip/xc32/v1.43/bin/bin/../../lib/gcc/pic32mx/4.8.3/../../../../pic32mx/lib\libm.a(litodp.o)
 .reginfo       0x00000000       0x18 c:/program files (x86)/microchip/xc32/v1.43/bin/bin/../../lib/gcc/pic32mx/4.8.3/../../../../pic32mx/lib\libm.a(litodp.o)

Memory Configuration

Name             Origin             Length             Attributes
kseg0_data_mem   0x80000000         0x00000200
kseg1_data_mem   0xa0000000         0x00020000         w !x
kseg0_boot_mem   0x9fc00490         0x00000970
kseg1_boot_mem   0xbfc00000         0x00000490
kseg0_program_mem 0x9d000000         0x00080000         xr
exception_mem    0x9fc01000         0x00001000
debug_exec_mem   0xbfc02000         0x00000ff0
config3          0xbfc02ff0         0x00000004
config2          0xbfc02ff4         0x00000004
config1          0xbfc02ff8         0x00000004
config0          0xbfc02ffc         0x00000004
sfrs             0xbf800000         0x00100000
configsfrs       0xbfc02ff0         0x00000010
*default*        0x00000000         0xffffffff

Linker script and memory map


reserve_data_0_kseg0
                0x80000000      0x200
                0x80000000        0x2 SHORT 0x0
                0x000001fd                . = 0x1fd
 *fill*         0x80000002      0x1fb 
                0x80000200                . = ALIGN (0x4)
 *fill*         0x800001fd        0x3 

reserve_data_0_kseg1
                0xa0000000      0x200
                0xa0000000        0x2 SHORT 0x0
                0x000001fd                . = 0x1fd
 *fill*         0xa0000002      0x1fb 
                0xa0000200                . = ALIGN (0x4)
 *fill*         0xa00001fd        0x3 

reserve_boot_0x1fc02000_kseg0
                0x9fc02000      0xff0
                0x9fc02000        0x2 SHORT 0x0
                0x00000500                . = 0x500
 *fill*         0x9fc02002      0x4fe 
                0x9fc02500                . = ALIGN (0x4)
                0x9fc02500        0x2 SHORT 0x0
                0x00000ff0                . = 0xff0
 *fill*         0x9fc02502      0xaee 
                0x9fc02ff0                . = ALIGN (0x4)

reserve_boot_0x1fc02000_kseg1
                0xbfc02000      0xff0
                0xbfc02000        0x2 SHORT 0x0
                0x00000500                . = 0x500
 *fill*         0xbfc02002      0x4fe 
                0xbfc02500                . = ALIGN (0x4)
                0xbfc02500        0x2 SHORT 0x0
                0x00000ff0                . = 0xff0
 *fill*         0xbfc02502      0xaee 
                0xbfc02ff0                . = ALIGN (0x4)
LOAD c:/program files (x86)/microchip/xc32/v1.43/bin/bin/../../lib/gcc/pic32mx/4.8.3/../../../../pic32mx/lib/./proc/32MX795F512H/crt0_mips32r2.o
LOAD c:/program files (x86)/microchip/xc32/v1.43/bin/bin/../../lib/gcc/pic32mx/4.8.3/../../../../pic32mx/lib\software-debug-break.o
LOAD build/default/debug/_ext/1278673032/net_pres_enc_glue.o
LOAD build/default/debug/_ext/639803181/sys_clk_pic32mx.o
LOAD build/default/debug/_ext/340578644/sys_devcon.o
LOAD build/default/debug/_ext/340578644/sys_devcon_pic32mx.o
LOAD build/default/debug/_ext/822048611/sys_ports_static.o
LOAD build/default/debug/_ext/68765530/sys_reset.o
LOAD build/default/debug/_ext/1688732426/system_init.o
LOAD build/default/debug/_ext/1688732426/system_interrupt.o
LOAD build/default/debug/_ext/1688732426/system_exceptions.o
LOAD build/default/debug/_ext/1688732426/system_tasks.o
LOAD build/default/debug/_ext/1360937237/app.o
LOAD build/default/debug/_ext/1360937237/main.o
LOAD build/default/debug/_ext/1360937237/app_command.o
LOAD build/default/debug/_ext/1749672254/drv_ethmac.o
LOAD build/default/debug/_ext/1749672254/drv_ethmac_lib.o
LOAD build/default/debug/_ext/573518448/drv_ethphy.o
LOAD build/default/debug/_ext/573518448/drv_extphy_smsc8720.o
LOAD build/default/debug/_ext/1568515672/drv_miim.o
LOAD build/default/debug/_ext/528688037/drv_tmr.o
LOAD build/default/debug/_ext/427015431/drv_usart.o
LOAD build/default/debug/_ext/427015431/drv_usart_buffer_queue.o
LOAD build/default/debug/_ext/427015431/drv_usart_read_write.o
LOAD build/default/debug/_ext/2146114523/net_pres.o
LOAD build/default/debug/_ext/1167192164/sys_command.o
LOAD build/default/debug/_ext/710479984/sys_console.o
LOAD build/default/debug/_ext/710479984/sys_console_uart.o
LOAD build/default/debug/_ext/429005716/sys_debug.o
LOAD build/default/debug/_ext/1670183176/sys_int_pic32.o
LOAD build/default/debug/_ext/1584847572/sys_random.o
LOAD build/default/debug/_ext/1482654414/sys_tmr.o
LOAD build/default/debug/_ext/157393855/helpers.o
LOAD build/default/debug/_ext/1836803193/ipv4.o
LOAD build/default/debug/_ext/1836803193/tcp.o
LOAD build/default/debug/_ext/1836803193/udp.o
LOAD build/default/debug/_ext/1836803193/tcpip_heap_alloc.o
LOAD build/default/debug/_ext/1836803193/tcpip_heap_internal.o
LOAD build/default/debug/_ext/1836803193/arp.o
LOAD build/default/debug/_ext/1836803193/dhcp.o
LOAD build/default/debug/_ext/1836803193/dns.o
LOAD build/default/debug/_ext/1836803193/icmp.o
LOAD build/default/debug/_ext/1836803193/nbns.o
LOAD build/default/debug/_ext/1836803193/zero_conf_helper.o
LOAD build/default/debug/_ext/1836803193/zero_conf_link_local.o
LOAD build/default/debug/_ext/1836803193/tcpip_announce.o
LOAD build/default/debug/_ext/1836803193/tcpip_commands.o
LOAD build/default/debug/_ext/1836803193/hash_fnv.o
LOAD build/default/debug/_ext/1836803193/oahash.o
LOAD build/default/debug/_ext/1836803193/tcpip_helpers.o
LOAD build/default/debug/_ext/1836803193/tcpip_helper_c32.o
LOAD build/default/debug/_ext/1836803193/tcpip_manager.o
LOAD build/default/debug/_ext/1836803193/tcpip_notify.o
LOAD build/default/debug/_ext/1836803193/tcpip_packet.o
LOAD ..\..\..\..\v2_03b\bin\framework\peripheral\PIC32MX795F512H_peripherals.a
                0x00000001                __MPLAB_BUILD = 0x1
                0x00000001                __MPLAB_DEBUG = 0x1
                0x00000001                __DEBUG = 0x1
                0x00000001                __MPLAB_DEBUGGER_ICD3 = 0x1
                0x0000afa0                _min_heap_size = 0xafa0
LOAD c:/program files (x86)/microchip/xc32/v1.43/bin/bin/../../lib/gcc/pic32mx/4.8.3/../../../../pic32mx/lib/./proc/32MX795F512H\default_isr_vectors.o
LOAD c:/program files (x86)/microchip/xc32/v1.43/bin/bin/../../lib/gcc/pic32mx/4.8.3/../../../../pic32mx/lib\pic32_software_reset.o
                0x00000400                PROVIDE (_min_stack_size, 0x400)
LOAD c:/program files (x86)/microchip/xc32/v1.43/bin/bin/../../lib/gcc/pic32mx/4.8.3/../../../../pic32mx/lib/./proc/32MX795F512H\processor.o
START GROUP
LOAD libmchp_peripheral.a
END GROUP
START GROUP
LOAD libmchp_peripheral_32MX795F512H.a
END GROUP
                0x00000001                PROVIDE (_vector_spacing, 0x1)
                0x9fc01000                PROVIDE (_ebase_address, 0x9fc01000)
                0xbfc00000                _RESET_ADDR = 0xbfc00000
                0xbfc00380                _BEV_EXCPT_ADDR = 0xbfc00380
                0xbfc00480                _DBG_EXCPT_ADDR = 0xbfc00480
                0xbfc02000                _DBG_CODE_ADDR = 0xbfc02000
                0x00000ff0                _DBG_CODE_SIZE = 0xff0
                0x9fc01180                _GEN_EXCPT_ADDR = (_ebase_address + 0x180)

.config_BFC02FF0
                0xbfc02ff0        0x4
 *(.config_BFC02FF0)
 .config_BFC02FF0
                0xbfc02ff0        0x4 build/default/debug/_ext/1688732426/system_init.o

.config_BFC02FF4
                0xbfc02ff4        0x4
 *(.config_BFC02FF4)
 .config_BFC02FF4
                0xbfc02ff4        0x4 build/default/debug/_ext/1688732426/system_init.o

.config_BFC02FF8
                0xbfc02ff8        0x4
 *(.config_BFC02FF8)
 .config_BFC02FF8
                0xbfc02ff8        0x4 build/default/debug/_ext/1688732426/system_init.o

.config_BFC02FFC
                0xbfc02ffc        0x4
 *(.config_BFC02FFC)
 .config_BFC02FFC
                0xbfc02ffc        0x4 build/default/debug/_ext/1688732426/system_init.o
                0xbfc02000                PROVIDE (_DBG_CODE_ADDR, 0xbfc02000)
                0x00000ff0                PROVIDE (_DBG_CODE_SIZE, 0xff0)

.reset          0xbfc00000      0x208
 *(.reset)
 .reset         0xbfc00000        0x8 c:/program files (x86)/microchip/xc32/v1.43/bin/bin/../../lib/gcc/pic32mx/4.8.3/../../../../pic32mx/lib/./proc/32MX795F512H/crt0_mips32r2.o
                0xbfc00000                _reset
 *(.reset.startup)
 .reset.startup
                0xbfc00008      0x200 c:/program files (x86)/microchip/xc32/v1.43/bin/bin/../../lib/gcc/pic32mx/4.8.3/../../../../pic32mx/lib/./proc/32MX795F512H/crt0_mips32r2.o
                0xbfc00008                _startup

.bev_excpt      0xbfc00380       0x10
 *(.bev_handler)
 .bev_handler   0xbfc00380       0x10 c:/program files (x86)/microchip/xc32/v1.43/bin/bin/../../lib/gcc/pic32mx/4.8.3/../../../../pic32mx/lib/./proc/32MX795F512H/crt0_mips32r2.o

.dbg_excpt      0xbfc00480        0x0
                0xbfc00480                . = (. + DEFINED (_DEBUGGER)?0x8:0x0)

.dbg_code       0xbfc02000        0x0
                0xbfc02000                . = (. + DEFINED (_DEBUGGER)?_DBG_CODE_SIZE:0x0)

.app_excpt      0x9fc01180       0x10
 *(.gen_handler)
 .gen_handler   0x9fc01180       0x10 c:/program files (x86)/microchip/xc32/v1.43/bin/bin/../../lib/gcc/pic32mx/4.8.3/../../../../pic32mx/lib/./proc/32MX795F512H/crt0_mips32r2.o

.vector_0       0x9fc01200        0x8
 *(.vector_0)
 .vector_0      0x9fc01200        0x8 c:/program files (x86)/microchip/xc32/v1.43/bin/bin/../../lib/gcc/pic32mx/4.8.3/../../../../pic32mx/lib\libpic32.a(vector0.o)
                0x9fc01200                __vector_dispatch_0
                0x00000001                ASSERT (((_vector_spacing == 0x0) || (SIZEOF (.vector_0) <= (_vector_spacing << 0x5))), function at exception vector 0 too large)

.vector_1       0x9fc01220        0x8
 *(.vector_1)
 .vector_1      0x9fc01220        0x8 c:/program files (x86)/microchip/xc32/v1.43/bin/bin/../../lib/gcc/pic32mx/4.8.3/../../../../pic32mx/lib\libpic32.a(vector1.o)
                0x9fc01220                __vector_dispatch_1
                0x00000001                ASSERT (((_vector_spacing == 0x0) || (SIZEOF (.vector_1) <= (_vector_spacing << 0x5))), function at exception vector 1 too large)

.vector_2       0x9fc01240        0x8
 *(.vector_2)
 .vector_2      0x9fc01240        0x8 c:/program files (x86)/microchip/xc32/v1.43/bin/bin/../../lib/gcc/pic32mx/4.8.3/../../../../pic32mx/lib\libpic32.a(vector2.o)
                0x9fc01240                __vector_dispatch_2
                0x00000001                ASSERT (((_vector_spacing == 0x0) || (SIZEOF (.vector_2) <= (_vector_spacing << 0x5))), function at exception vector 2 too large)

.vector_3       0x9fc01260        0x8
 *(.vector_3)
 .vector_3      0x9fc01260        0x8 c:/program files (x86)/microchip/xc32/v1.43/bin/bin/../../lib/gcc/pic32mx/4.8.3/../../../../pic32mx/lib\libpic32.a(vector3.o)
                0x9fc01260                __vector_dispatch_3
                0x00000001                ASSERT (((_vector_spacing == 0x0) || (SIZEOF (.vector_3) <= (_vector_spacing << 0x5))), function at exception vector 3 too large)

.vector_4       0x9fc01280        0x8
 *(.vector_4)
 .vector_4      0x9fc01280        0x8 build/default/debug/_ext/1688732426/system_interrupt.o
                0x9fc01280                __vector_dispatch_4
                0x00000001                ASSERT (((_vector_spacing == 0x0) || (SIZEOF (.vector_4) <= (_vector_spacing << 0x5))), function at exception vector 4 too large)

.vector_5       0x9fc012a0        0x8
 *(.vector_5)
 .vector_5      0x9fc012a0        0x8 c:/program files (x86)/microchip/xc32/v1.43/bin/bin/../../lib/gcc/pic32mx/4.8.3/../../../../pic32mx/lib\libpic32.a(vector5.o)
                0x9fc012a0                __vector_dispatch_5
                0x00000001                ASSERT (((_vector_spacing == 0x0) || (SIZEOF (.vector_5) <= (_vector_spacing << 0x5))), function at exception vector 5 too large)

.vector_6       0x9fc012c0        0x8
 *(.vector_6)
 .vector_6      0x9fc012c0        0x8 c:/program files (x86)/microchip/xc32/v1.43/bin/bin/../../lib/gcc/pic32mx/4.8.3/../../../../pic32mx/lib\libpic32.a(vector6.o)
                0x9fc012c0                __vector_dispatch_6
                0x00000001                ASSERT (((_vector_spacing == 0x0) || (SIZEOF (.vector_6) <= (_vector_spacing << 0x5))), function at exception vector 6 too large)

.vector_7       0x9fc012e0        0x8
 *(.vector_7)
 .vector_7      0x9fc012e0        0x8 c:/program files (x86)/microchip/xc32/v1.43/bin/bin/../../lib/gcc/pic32mx/4.8.3/../../../../pic32mx/lib\libpic32.a(vector7.o)
                0x9fc012e0                __vector_dispatch_7
                0x00000001                ASSERT (((_vector_spacing == 0x0) || (SIZEOF (.vector_7) <= (_vector_spacing << 0x5))), function at exception vector 7 too large)

.vector_8       0x9fc01300        0x8
 *(.vector_8)
 .vector_8      0x9fc01300        0x8 c:/program files (x86)/microchip/xc32/v1.43/bin/bin/../../lib/gcc/pic32mx/4.8.3/../../../../pic32mx/lib\libpic32.a(vector8.o)
                0x9fc01300                __vector_dispatch_8
                0x00000001                ASSERT (((_vector_spacing == 0x0) || (SIZEOF (.vector_8) <= (_vector_spacing << 0x5))), function at exception vector 8 too large)

.vector_9       0x9fc01320        0x8
 *(.vector_9)
 .vector_9      0x9fc01320        0x8 c:/program files (x86)/microchip/xc32/v1.43/bin/bin/../../lib/gcc/pic32mx/4.8.3/../../../../pic32mx/lib\libpic32.a(vector9.o)
                0x9fc01320                __vector_dispatch_9
                0x00000001                ASSERT (((_vector_spacing == 0x0) || (SIZEOF (.vector_9) <= (_vector_spacing << 0x5))), function at exception vector 9 too large)

.vector_10      0x9fc01340        0x8
 *(.vector_10)
 .vector_10     0x9fc01340        0x8 c:/program files (x86)/microchip/xc32/v1.43/bin/bin/../../lib/gcc/pic32mx/4.8.3/../../../../pic32mx/lib\libpic32.a(vector10.o)
                0x9fc01340                __vector_dispatch_10
                0x00000001                ASSERT (((_vector_spacing == 0x0) || (SIZEOF (.vector_10) <= (_vector_spacing << 0x5))), function at exception vector 10 too large)

.vector_11      0x9fc01360        0x8
 *(.vector_11)
 .vector_11     0x9fc01360        0x8 c:/program files (x86)/microchip/xc32/v1.43/bin/bin/../../lib/gcc/pic32mx/4.8.3/../../../../pic32mx/lib\libpic32.a(vector11.o)
                0x9fc01360                __vector_dispatch_11
                0x00000001                ASSERT (((_vector_spacing == 0x0) || (SIZEOF (.vector_11) <= (_vector_spacing << 0x5))), function at exception vector 11 too large)

.vector_12      0x9fc01380        0x8
 *(.vector_12)
 .vector_12     0x9fc01380        0x8 c:/program files (x86)/microchip/xc32/v1.43/bin/bin/../../lib/gcc/pic32mx/4.8.3/../../../../pic32mx/lib\libpic32.a(vector12.o)
                0x9fc01380                __vector_dispatch_12
                0x00000001                ASSERT (((_vector_spacing == 0x0) || (SIZEOF (.vector_12) <= (_vector_spacing << 0x5))), function at exception vector 12 too large)

.vector_13      0x9fc013a0        0x8
 *(.vector_13)
 .vector_13     0x9fc013a0        0x8 c:/program files (x86)/microchip/xc32/v1.43/bin/bin/../../lib/gcc/pic32mx/4.8.3/../../../../pic32mx/lib\libpic32.a(vector13.o)
                0x9fc013a0                __vector_dispatch_13
                0x00000001                ASSERT (((_vector_spacing == 0x0) || (SIZEOF (.vector_13) <= (_vector_spacing << 0x5))), function at exception vector 13 too large)

.vector_14      0x9fc013c0        0x8
 *(.vector_14)
 .vector_14     0x9fc013c0        0x8 c:/program files (x86)/microchip/xc32/v1.43/bin/bin/../../lib/gcc/pic32mx/4.8.3/../../../../pic32mx/lib\libpic32.a(vector14.o)
                0x9fc013c0                __vector_dispatch_14
                0x00000001                ASSERT (((_vector_spacing == 0x0) || (SIZEOF (.vector_14) <= (_vector_spacing << 0x5))), function at exception vector 14 too large)

.vector_15      0x9fc013e0        0x8
 *(.vector_15)
 .vector_15     0x9fc013e0        0x8 c:/program files (x86)/microchip/xc32/v1.43/bin/bin/../../lib/gcc/pic32mx/4.8.3/../../../../pic32mx/lib\libpic32.a(vector15.o)
                0x9fc013e0                __vector_dispatch_15
                0x00000001                ASSERT (((_vector_spacing == 0x0) || (SIZEOF (.vector_15) <= (_vector_spacing << 0x5))), function at exception vector 15 too large)

.vector_16      0x9fc01400        0x8
 *(.vector_16)
 .vector_16     0x9fc01400        0x8 c:/program files (x86)/microchip/xc32/v1.43/bin/bin/../../lib/gcc/pic32mx/4.8.3/../../../../pic32mx/lib\libpic32.a(vector16.o)
                0x9fc01400                __vector_dispatch_16
                0x00000001                ASSERT (((_vector_spacing == 0x0) || (SIZEOF (.vector_16) <= (_vector_spacing << 0x5))), function at exception vector 16 too large)

.vector_17      0x9fc01420        0x8
 *(.vector_17)
 .vector_17     0x9fc01420        0x8 c:/program files (x86)/microchip/xc32/v1.43/bin/bin/../../lib/gcc/pic32mx/4.8.3/../../../../pic32mx/lib\libpic32.a(vector17.o)
                0x9fc01420                __vector_dispatch_17
                0x00000001                ASSERT (((_vector_spacing == 0x0) || (SIZEOF (.vector_17) <= (_vector_spacing << 0x5))), function at exception vector 17 too large)

.vector_18      0x9fc01440        0x8
 *(.vector_18)
 .vector_18     0x9fc01440        0x8 c:/program files (x86)/microchip/xc32/v1.43/bin/bin/../../lib/gcc/pic32mx/4.8.3/../../../../pic32mx/lib\libpic32.a(vector18.o)
                0x9fc01440                __vector_dispatch_18
                0x00000001                ASSERT (((_vector_spacing == 0x0) || (SIZEOF (.vector_18) <= (_vector_spacing << 0x5))), function at exception vector 18 too large)

.vector_19      0x9fc01460        0x8
 *(.vector_19)
 .vector_19     0x9fc01460        0x8 c:/program files (x86)/microchip/xc32/v1.43/bin/bin/../../lib/gcc/pic32mx/4.8.3/../../../../pic32mx/lib\libpic32.a(vector19.o)
                0x9fc01460                __vector_dispatch_19
                0x00000001                ASSERT (((_vector_spacing == 0x0) || (SIZEOF (.vector_19) <= (_vector_spacing << 0x5))), function at exception vector 19 too large)

.vector_20      0x9fc01480        0x8
 *(.vector_20)
 .vector_20     0x9fc01480        0x8 c:/program files (x86)/microchip/xc32/v1.43/bin/bin/../../lib/gcc/pic32mx/4.8.3/../../../../pic32mx/lib\libpic32.a(vector20.o)
                0x9fc01480                __vector_dispatch_20
                0x00000001                ASSERT (((_vector_spacing == 0x0) || (SIZEOF (.vector_20) <= (_vector_spacing << 0x5))), function at exception vector 20 too large)

.vector_21      0x9fc014a0        0x8
 *(.vector_21)
 .vector_21     0x9fc014a0        0x8 c:/program files (x86)/microchip/xc32/v1.43/bin/bin/../../lib/gcc/pic32mx/4.8.3/../../../../pic32mx/lib\libpic32.a(vector21.o)
                0x9fc014a0                __vector_dispatch_21
                0x00000001                ASSERT (((_vector_spacing == 0x0) || (SIZEOF (.vector_21) <= (_vector_spacing << 0x5))), function at exception vector 21 too large)

.vector_22      0x9fc014c0        0x8
 *(.vector_22)
 .vector_22     0x9fc014c0        0x8 c:/program files (x86)/microchip/xc32/v1.43/bin/bin/../../lib/gcc/pic32mx/4.8.3/../../../../pic32mx/lib\libpic32.a(vector22.o)
                0x9fc014c0                __vector_dispatch_22
                0x00000001                ASSERT (((_vector_spacing == 0x0) || (SIZEOF (.vector_22) <= (_vector_spacing << 0x5))), function at exception vector 22 too large)

.vector_23      0x9fc014e0        0x8
 *(.vector_23)
 .vector_23     0x9fc014e0        0x8 c:/program files (x86)/microchip/xc32/v1.43/bin/bin/../../lib/gcc/pic32mx/4.8.3/../../../../pic32mx/lib\libpic32.a(vector23.o)
                0x9fc014e0                __vector_dispatch_23
                0x00000001                ASSERT (((_vector_spacing == 0x0) || (SIZEOF (.vector_23) <= (_vector_spacing << 0x5))), function at exception vector 23 too large)

.vector_24      0x9fc01500        0x8
 *(.vector_24)
 .vector_24     0x9fc01500        0x8 build/default/debug/_ext/1688732426/system_interrupt.o
                0x9fc01500                __vector_dispatch_24
                0x00000001                ASSERT (((_vector_spacing == 0x0) || (SIZEOF (.vector_24) <= (_vector_spacing << 0x5))), function at exception vector 24 too large)

.vector_25      0x9fc01520        0x8
 *(.vector_25)
 .vector_25     0x9fc01520        0x8 c:/program files (x86)/microchip/xc32/v1.43/bin/bin/../../lib/gcc/pic32mx/4.8.3/../../../../pic32mx/lib\libpic32.a(vector25.o)
                0x9fc01520                __vector_dispatch_25
                0x00000001                ASSERT (((_vector_spacing == 0x0) || (SIZEOF (.vector_25) <= (_vector_spacing << 0x5))), function at exception vector 25 too large)

.vector_26      0x9fc01540        0x8
 *(.vector_26)
 .vector_26     0x9fc01540        0x8 c:/program files (x86)/microchip/xc32/v1.43/bin/bin/../../lib/gcc/pic32mx/4.8.3/../../../../pic32mx/lib\libpic32.a(vector26.o)
                0x9fc01540                __vector_dispatch_26
                0x00000001                ASSERT (((_vector_spacing == 0x0) || (SIZEOF (.vector_26) <= (_vector_spacing << 0x5))), function at exception vector 26 too large)

.vector_27      0x9fc01560        0x8
 *(.vector_27)
 .vector_27     0x9fc01560        0x8 c:/program files (x86)/microchip/xc32/v1.43/bin/bin/../../lib/gcc/pic32mx/4.8.3/../../../../pic32mx/lib\libpic32.a(vector27.o)
                0x9fc01560                __vector_dispatch_27
                0x00000001                ASSERT (((_vector_spacing == 0x0) || (SIZEOF (.vector_27) <= (_vector_spacing << 0x5))), function at exception vector 27 too large)

.vector_28      0x9fc01580        0x8
 *(.vector_28)
 .vector_28     0x9fc01580        0x8 c:/program files (x86)/microchip/xc32/v1.43/bin/bin/../../lib/gcc/pic32mx/4.8.3/../../../../pic32mx/lib\libpic32.a(vector28.o)
                0x9fc01580                __vector_dispatch_28
                0x00000001                ASSERT (((_vector_spacing == 0x0) || (SIZEOF (.vector_28) <= (_vector_spacing << 0x5))), function at exception vector 28 too large)

.vector_29      0x9fc015a0        0x8
 *(.vector_29)
 .vector_29     0x9fc015a0        0x8 c:/program files (x86)/microchip/xc32/v1.43/bin/bin/../../lib/gcc/pic32mx/4.8.3/../../../../pic32mx/lib\libpic32.a(vector29.o)
                0x9fc015a0                __vector_dispatch_29
                0x00000001                ASSERT (((_vector_spacing == 0x0) || (SIZEOF (.vector_29) <= (_vector_spacing << 0x5))), function at exception vector 29 too large)

.vector_30      0x9fc015c0        0x8
 *(.vector_30)
 .vector_30     0x9fc015c0        0x8 c:/program files (x86)/microchip/xc32/v1.43/bin/bin/../../lib/gcc/pic32mx/4.8.3/../../../../pic32mx/lib\libpic32.a(vector30.o)
                0x9fc015c0                __vector_dispatch_30
                0x00000001                ASSERT (((_vector_spacing == 0x0) || (SIZEOF (.vector_30) <= (_vector_spacing << 0x5))), function at exception vector 30 too large)

.vector_31      0x9fc015e0        0x8
 *(.vector_31)
 .vector_31     0x9fc015e0        0x8 c:/program files (x86)/microchip/xc32/v1.43/bin/bin/../../lib/gcc/pic32mx/4.8.3/../../../../pic32mx/lib\libpic32.a(vector31.o)
                0x9fc015e0                __vector_dispatch_31
                0x00000001                ASSERT (((_vector_spacing == 0x0) || (SIZEOF (.vector_31) <= (_vector_spacing << 0x5))), function at exception vector 31 too large)

.vector_32      0x9fc01600        0x8
 *(.vector_32)
 .vector_32     0x9fc01600        0x8 c:/program files (x86)/microchip/xc32/v1.43/bin/bin/../../lib/gcc/pic32mx/4.8.3/../../../../pic32mx/lib\libpic32.a(vector32.o)
                0x9fc01600                __vector_dispatch_32
                0x00000001                ASSERT (((_vector_spacing == 0x0) || (SIZEOF (.vector_32) <= (_vector_spacing << 0x5))), function at exception vector 32 too large)

.vector_33      0x9fc01620        0x8
 *(.vector_33)
 .vector_33     0x9fc01620        0x8 c:/program files (x86)/microchip/xc32/v1.43/bin/bin/../../lib/gcc/pic32mx/4.8.3/../../../../pic32mx/lib\libpic32.a(vector33.o)
                0x9fc01620                __vector_dispatch_33
                0x00000001                ASSERT (((_vector_spacing == 0x0) || (SIZEOF (.vector_33) <= (_vector_spacing << 0x5))), function at exception vector 33 too large)

.vector_34      0x9fc01640        0x8
 *(.vector_34)
 .vector_34     0x9fc01640        0x8 c:/program files (x86)/microchip/xc32/v1.43/bin/bin/../../lib/gcc/pic32mx/4.8.3/../../../../pic32mx/lib\libpic32.a(vector34.o)
                0x9fc01640                __vector_dispatch_34
                0x00000001                ASSERT (((_vector_spacing == 0x0) || (SIZEOF (.vector_34) <= (_vector_spacing << 0x5))), function at exception vector 34 too large)

.vector_35      0x9fc01660        0x8
 *(.vector_35)
 .vector_35     0x9fc01660        0x8 c:/program files (x86)/microchip/xc32/v1.43/bin/bin/../../lib/gcc/pic32mx/4.8.3/../../../../pic32mx/lib\libpic32.a(vector35.o)
                0x9fc01660                __vector_dispatch_35
                0x00000001                ASSERT (((_vector_spacing == 0x0) || (SIZEOF (.vector_35) <= (_vector_spacing << 0x5))), function at exception vector 35 too large)

.vector_36      0x9fc01680        0x8
 *(.vector_36)
 .vector_36     0x9fc01680        0x8 c:/program files (x86)/microchip/xc32/v1.43/bin/bin/../../lib/gcc/pic32mx/4.8.3/../../../../pic32mx/lib\libpic32.a(vector36.o)
                0x9fc01680                __vector_dispatch_36
                0x00000001                ASSERT (((_vector_spacing == 0x0) || (SIZEOF (.vector_36) <= (_vector_spacing << 0x5))), function at exception vector 36 too large)

.vector_37      0x9fc016a0        0x8
 *(.vector_37)
 .vector_37     0x9fc016a0        0x8 c:/program files (x86)/microchip/xc32/v1.43/bin/bin/../../lib/gcc/pic32mx/4.8.3/../../../../pic32mx/lib\libpic32.a(vector37.o)
                0x9fc016a0                __vector_dispatch_37
                0x00000001                ASSERT (((_vector_spacing == 0x0) || (SIZEOF (.vector_37) <= (_vector_spacing << 0x5))), function at exception vector 37 too large)

.vector_38      0x9fc016c0        0x8
 *(.vector_38)
 .vector_38     0x9fc016c0        0x8 c:/program files (x86)/microchip/xc32/v1.43/bin/bin/../../lib/gcc/pic32mx/4.8.3/../../../../pic32mx/lib\libpic32.a(vector38.o)
                0x9fc016c0                __vector_dispatch_38
                0x00000001                ASSERT (((_vector_spacing == 0x0) || (SIZEOF (.vector_38) <= (_vector_spacing << 0x5))), function at exception vector 38 too large)

.vector_39      0x9fc016e0        0x8
 *(.vector_39)
 .vector_39     0x9fc016e0        0x8 c:/program files (x86)/microchip/xc32/v1.43/bin/bin/../../lib/gcc/pic32mx/4.8.3/../../../../pic32mx/lib\libpic32.a(vector39.o)
                0x9fc016e0                __vector_dispatch_39
                0x00000001                ASSERT (((_vector_spacing == 0x0) || (SIZEOF (.vector_39) <= (_vector_spacing << 0x5))), function at exception vector 39 too large)

.vector_40      0x9fc01700        0x8
 *(.vector_40)
 .vector_40     0x9fc01700        0x8 c:/program files (x86)/microchip/xc32/v1.43/bin/bin/../../lib/gcc/pic32mx/4.8.3/../../../../pic32mx/lib\libpic32.a(vector40.o)
                0x9fc01700                __vector_dispatch_40
                0x00000001                ASSERT (((_vector_spacing == 0x0) || (SIZEOF (.vector_40) <= (_vector_spacing << 0x5))), function at exception vector 40 too large)

.vector_41      0x9fc01720        0x8
 *(.vector_41)
 .vector_41     0x9fc01720        0x8 c:/program files (x86)/microchip/xc32/v1.43/bin/bin/../../lib/gcc/pic32mx/4.8.3/../../../../pic32mx/lib\libpic32.a(vector41.o)
                0x9fc01720                __vector_dispatch_41
                0x00000001                ASSERT (((_vector_spacing == 0x0) || (SIZEOF (.vector_41) <= (_vector_spacing << 0x5))), function at exception vector 41 too large)

.vector_42      0x9fc01740        0x8
 *(.vector_42)
 .vector_42     0x9fc01740        0x8 c:/program files (x86)/microchip/xc32/v1.43/bin/bin/../../lib/gcc/pic32mx/4.8.3/../../../../pic32mx/lib\libpic32.a(vector42.o)
                0x9fc01740                __vector_dispatch_42
                0x00000001                ASSERT (((_vector_spacing == 0x0) || (SIZEOF (.vector_42) <= (_vector_spacing << 0x5))), function at exception vector 42 too large)

.vector_43      0x9fc01760        0x8
 *(.vector_43)
 .vector_43     0x9fc01760        0x8 c:/program files (x86)/microchip/xc32/v1.43/bin/bin/../../lib/gcc/pic32mx/4.8.3/../../../../pic32mx/lib\libpic32.a(vector43.o)
                0x9fc01760                __vector_dispatch_43
                0x00000001                ASSERT (((_vector_spacing == 0x0) || (SIZEOF (.vector_43) <= (_vector_spacing << 0x5))), function at exception vector 43 too large)

.vector_44      0x9fc01780        0x8
 *(.vector_44)
 .vector_44     0x9fc01780        0x8 c:/program files (x86)/microchip/xc32/v1.43/bin/bin/../../lib/gcc/pic32mx/4.8.3/../../../../pic32mx/lib\libpic32.a(vector44.o)
                0x9fc01780                __vector_dispatch_44
                0x00000001                ASSERT (((_vector_spacing == 0x0) || (SIZEOF (.vector_44) <= (_vector_spacing << 0x5))), function at exception vector 44 too large)

.vector_45      0x9fc017a0        0x8
 *(.vector_45)
 .vector_45     0x9fc017a0        0x8 c:/program files (x86)/microchip/xc32/v1.43/bin/bin/../../lib/gcc/pic32mx/4.8.3/../../../../pic32mx/lib\libpic32.a(vector45.o)
                0x9fc017a0                __vector_dispatch_45
                0x00000001                ASSERT (((_vector_spacing == 0x0) || (SIZEOF (.vector_45) <= (_vector_spacing << 0x5))), function at exception vector 45 too large)

.vector_46      0x9fc017c0        0x8
 *(.vector_46)
 .vector_46     0x9fc017c0        0x8 c:/program files (x86)/microchip/xc32/v1.43/bin/bin/../../lib/gcc/pic32mx/4.8.3/../../../../pic32mx/lib\libpic32.a(vector46.o)
                0x9fc017c0                __vector_dispatch_46
                0x00000001                ASSERT (((_vector_spacing == 0x0) || (SIZEOF (.vector_46) <= (_vector_spacing << 0x5))), function at exception vector 46 too large)

.vector_47      0x9fc017e0        0x8
 *(.vector_47)
 .vector_47     0x9fc017e0        0x8 c:/program files (x86)/microchip/xc32/v1.43/bin/bin/../../lib/gcc/pic32mx/4.8.3/../../../../pic32mx/lib\libpic32.a(vector47.o)
                0x9fc017e0                __vector_dispatch_47
                0x00000001                ASSERT (((_vector_spacing == 0x0) || (SIZEOF (.vector_47) <= (_vector_spacing << 0x5))), function at exception vector 47 too large)

.vector_48      0x9fc01800        0x8
 *(.vector_48)
 .vector_48     0x9fc01800        0x8 build/default/debug/_ext/1688732426/system_interrupt.o
                0x9fc01800                __vector_dispatch_48
                0x00000001                ASSERT (((_vector_spacing == 0x0) || (SIZEOF (.vector_48) <= (_vector_spacing << 0x5))), function at exception vector 48 too large)

.vector_49      0x9fc01820        0x8
 *(.vector_49)
 .vector_49     0x9fc01820        0x8 c:/program files (x86)/microchip/xc32/v1.43/bin/bin/../../lib/gcc/pic32mx/4.8.3/../../../../pic32mx/lib\libpic32.a(vector49.o)
                0x9fc01820                __vector_dispatch_49
                0x00000001                ASSERT (((_vector_spacing == 0x0) || (SIZEOF (.vector_49) <= (_vector_spacing << 0x5))), function at exception vector 49 too large)

.vector_50      0x9fc01840        0x8
 *(.vector_50)
 .vector_50     0x9fc01840        0x8 c:/program files (x86)/microchip/xc32/v1.43/bin/bin/../../lib/gcc/pic32mx/4.8.3/../../../../pic32mx/lib\libpic32.a(vector50.o)
                0x9fc01840                __vector_dispatch_50
                0x00000001                ASSERT (((_vector_spacing == 0x0) || (SIZEOF (.vector_50) <= (_vector_spacing << 0x5))), function at exception vector 50 too large)

.vector_51      0x9fc01860        0x8
 *(.vector_51)
 .vector_51     0x9fc01860        0x8 c:/program files (x86)/microchip/xc32/v1.43/bin/bin/../../lib/gcc/pic32mx/4.8.3/../../../../pic32mx/lib\libpic32.a(vector51.o)
                0x9fc01860                __vector_dispatch_51
                0x00000001                ASSERT (((_vector_spacing == 0x0) || (SIZEOF (.vector_51) <= (_vector_spacing << 0x5))), function at exception vector 51 too large)

.vector_52      0x9fc01880        0x0
 *(.vector_52)
                0x00000001                ASSERT (((_vector_spacing == 0x0) || (SIZEOF (.vector_52) <= (_vector_spacing << 0x5))), function at exception vector 52 too large)

.vector_53      0x9fc018a0        0x0
 *(.vector_53)
                0x00000001                ASSERT (((_vector_spacing == 0x0) || (SIZEOF (.vector_53) <= (_vector_spacing << 0x5))), function at exception vector 53 too large)

.vector_54      0x9fc018c0        0x0
 *(.vector_54)
                0x00000001                ASSERT (((_vector_spacing == 0x0) || (SIZEOF (.vector_54) <= (_vector_spacing << 0x5))), function at exception vector 54 too large)

.vector_55      0x9fc018e0        0x0
 *(.vector_55)
                0x00000001                ASSERT (((_vector_spacing == 0x0) || (SIZEOF (.vector_55) <= (_vector_spacing << 0x5))), function at exception vector 55 too large)

.vector_56      0x9fc01900        0x0
 *(.vector_56)
                0x00000001                ASSERT (((_vector_spacing == 0x0) || (SIZEOF (.vector_56) <= (_vector_spacing << 0x5))), function at exception vector 56 too large)

.vector_57      0x9fc01920        0x0
 *(.vector_57)
                0x00000001                ASSERT (((_vector_spacing == 0x0) || (SIZEOF (.vector_57) <= (_vector_spacing << 0x5))), function at exception vector 57 too large)

.vector_58      0x9fc01940        0x0
 *(.vector_58)
                0x00000001                ASSERT (((_vector_spacing == 0x0) || (SIZEOF (.vector_58) <= (_vector_spacing << 0x5))), function at exception vector 58 too large)

.vector_59      0x9fc01960        0x0
 *(.vector_59)
                0x00000001                ASSERT (((_vector_spacing == 0x0) || (SIZEOF (.vector_59) <= (_vector_spacing << 0x5))), function at exception vector 59 too large)

.vector_60      0x9fc01980        0x0
 *(.vector_60)
                0x00000001                ASSERT (((_vector_spacing == 0x0) || (SIZEOF (.vector_60) <= (_vector_spacing << 0x5))), function at exception vector 60 too large)

.vector_61      0x9fc019a0        0x0
 *(.vector_61)
                0x00000001                ASSERT (((_vector_spacing == 0x0) || (SIZEOF (.vector_61) <= (_vector_spacing << 0x5))), function at exception vector 61 too large)

.vector_62      0x9fc019c0        0x0
 *(.vector_62)
                0x00000001                ASSERT (((_vector_spacing == 0x0) || (SIZEOF (.vector_62) <= (_vector_spacing << 0x5))), function at exception vector 62 too large)

.vector_63      0x9fc019e0        0x0
 *(.vector_63)
                0x00000001                ASSERT (((_vector_spacing == 0x0) || (SIZEOF (.vector_63) <= (_vector_spacing << 0x5))), function at exception vector 63 too large)

.startup
 *(.startup)

.text           0x9d000000        0x0
 *(.stub .gnu.linkonce.t.*)
 *(.text.*personality*)
 *(.mips16.fn.*)
 *(.mips16.call.*)
 *(.gnu.warning)
                0x9d000000                . = ALIGN (0x4)

.init           0x9d000000        0x0
 *crti.o(.init)
 *crtbegin.o(.init)
 *(EXCLUDE_FILE(*crtn.o *crtend?.o *crtend.o) .init)
 *crtend.o(.init)
 *crtn.o(.init)
                0x9d000000                . = ALIGN (0x4)

.fini           0x9d000000        0x0
 *(.fini)
                0x9d000000                . = ALIGN (0x4)

.preinit_array  0x9d000000        0x0
                0x9d000000                PROVIDE (__preinit_array_start, .)
 *(.preinit_array)
                0x9d000000                PROVIDE (__preinit_array_end, .)
                0x9d000000                . = ALIGN (0x4)

.init_array     0x9d000000        0x0
                0x9d000000                PROVIDE (__init_array_start, .)
 *(SORT(.init_array.*))
 *(.init_array)
                0x9d000000                PROVIDE (__init_array_end, .)
                0x9d000000                . = ALIGN (0x4)

.fini_array     0x9d000000        0x0
                0x9d000000                PROVIDE (__fini_array_start, .)
 *(SORT(.fini_array.*))
 *(.fini_array)
                0x9d000000                PROVIDE (__fini_array_end, .)
                0x9d000000                . = ALIGN (0x4)

.ctors          0x9d000000        0x0
 *crtbegin.o(.ctors)
 *crtbegin?.o(.ctors)
 *(EXCLUDE_FILE(*crtend?.o *crtend.o) .ctors)
 *(SORT(.ctors.*))
 *(.ctors)
                0x9d000000                . = ALIGN (0x4)

.dtors          0x9d000000        0x0
 *crtbegin.o(.dtors)
 *crtbegin?.o(.dtors)
 *(EXCLUDE_FILE(*crtend?.o *crtend.o) .dtors)
 *(SORT(.dtors.*))
 *(.dtors)
                0x9d000000                . = ALIGN (0x4)

.rodata         0x9d000000        0x0
 *(.gnu.linkonce.r.*)
 *(.rodata1)
                0x9d000000                . = ALIGN (0x4)

.sdata2         0x9fc00490        0x0
 *(.sdata2 .sdata2.* .gnu.linkonce.s2.*)
                0x9fc00490                . = ALIGN (0x4)

.sbss2          0x9fc00490        0x0
 *(.sbss2 .sbss2.* .gnu.linkonce.sb2.*)
                0x9fc00490                . = ALIGN (0x4)

.eh_frame_hdr
 *(.eh_frame_hdr)
                0x9fc00490                . = ALIGN (0x4)

.eh_frame
 *(.eh_frame)
                0x9fc00490                . = ALIGN (0x4)

.gcc_except_table
 *(.gcc_except_table .gcc_except_table.*)
                0x9fc00490                . = ALIGN (0x4)

.dbg_data       0xa0000200        0x0
                0xa0000200                . = (. + DEFINED (_DEBUGGER)?0x200:0x0)

.jcr            0xa0000200        0x0
 *(.jcr)
                0xa0000200                . = ALIGN (0x4)

.eh_frame
 *(.eh_frame)
                0xa0000200                . = ALIGN (0x4)

.gcc_except_table
 *(.gcc_except_table .gcc_except_table.*)
                0xa0000200                . = ALIGN (0x4)

.persist        0xa0000200        0x0
                0xa0000200                _persist_begin = .
 *(.persist .persist.*)
 *(.pbss .pbss.*)
                0xa0000200                . = ALIGN (0x4)
                0xa0000200                _persist_end = .

.data           0xa0000200        0x0
 *(.gnu.linkonce.d.*)
 *(.data1)
                0xa0000200                . = ALIGN (0x4)
                0xa0000200                . = .
                0xa00081f0                _gp = (ALIGN (0x10) + 0x7ff0)

.got            0xa0000200        0x0
 *(.got.plt)
 *(.got)
                0xa0000200                . = ALIGN (0x4)

.sdata          0xa0000200       0x34
                0xa0000200                _sdata_begin = .
 *(.sdata .sdata.* .gnu.linkonce.s.*)
 .sdata         0xa0000200        0xc build/default/debug/_ext/1688732426/system_init.o
                0xa0000200                consUsartInit0
                0xa0000208                sysConsoleObjects
 .sdata         0xa000020c        0x8 build/default/debug/_ext/1360937237/app.o
 .sdata         0xa0000214        0x8 build/default/debug/_ext/1836803193/arp.o
 .sdata         0xa000021c        0x1 build/default/debug/_ext/1836803193/zero_conf_helper.o
                0xa000021c                zeroconf_dbg_level
 *fill*         0xa000021d        0x3 
 .sdata         0xa0000220        0x8 build/default/debug/_ext/1836803193/zero_conf_link_local.o
 .sdata         0xa0000228        0x4 build/default/debug/_ext/1836803193/tcpip_commands.o
 .sdata         0xa000022c        0x4 build/default/debug/_ext/1836803193/tcpip_manager.o
 .sdata         0xa0000230        0x4 c:/program files (x86)/microchip/xc32/v1.43/bin/bin/../../lib/gcc/pic32mx/4.8.3/../../../../pic32mx/lib\libpic32.a(xc32_uart.o)
                0xa0000230                __XC_UART
                0xa0000234                . = ALIGN (0x4)
                0xa0000234                _sdata_end = .

.lit8
 *(.lit8)

.lit4
 *(.lit4)
                0xa0000234                . = ALIGN (0x4)
                0xa0000234                _data_end = .
                0xa0000234                _bss_begin = .

.sbss           0xa0000234      0x17c
                0xa0000234                _sbss_begin = .
 *(.dynsbss)
 *(.sbss .sbss.* .gnu.linkonce.sb.*)
 .sbss          0xa0000234        0x8 build/default/debug/_ext/1688732426/system_init.o
                0xa0000234                sysCmdInit
 .sbss          0xa000023c        0xc build/default/debug/_ext/1688732426/system_exceptions.o
 .sbss          0xa0000248        0x4 build/default/debug/_ext/1749672254/drv_ethmac.o
 .sbss          0xa000024c        0x8 build/default/debug/_ext/573518448/drv_ethphy.o
                0xa000024c                _PhyStayCondLoop
                0xa0000250                _PhyStayAssertLoop
 .sbss          0xa0000254        0x8 build/default/debug/_ext/1568515672/drv_miim.o
                0xa0000254                _MIIMStayCondLoop
                0xa0000258                _MIIMStayAssertLoop
 .sbss          0xa000025c        0x4 build/default/debug/_ext/528688037/drv_tmr.o
 .sbss          0xa0000260        0x2 build/default/debug/_ext/427015431/drv_usart_buffer_queue.o
 *fill*         0xa0000262        0x2 
 .sbss          0xa0000264       0x10 build/default/debug/_ext/1167192164/sys_command.o
 .sbss          0xa0000274        0x8 build/default/debug/_ext/710479984/sys_console_uart.o
 .sbss          0xa000027c       0x1c build/default/debug/_ext/1836803193/ipv4.o
                0xa000027c                _IPv4StayAssertLoop
 .sbss          0xa0000298       0x20 build/default/debug/_ext/1836803193/tcp.o
 .sbss          0xa00002b8       0x1c build/default/debug/_ext/1836803193/udp.o
 .sbss          0xa00002d4       0x24 build/default/debug/_ext/1836803193/dhcp.o
 .sbss          0xa00002f8       0x10 build/default/debug/_ext/1836803193/dns.o
                0xa00002f8                _DNSStayCondLoop
                0xa00002fc                _DNSStayAssertLoop
 .sbss          0xa0000308        0xc build/default/debug/_ext/1836803193/icmp.o
 .sbss          0xa0000314        0xc build/default/debug/_ext/1836803193/nbns.o
 .sbss          0xa0000320        0xc build/default/debug/_ext/1836803193/zero_conf_link_local.o
 .sbss          0xa000032c        0x4 build/default/debug/_ext/1836803193/tcpip_announce.o
 .sbss          0xa0000330       0x44 build/default/debug/_ext/1836803193/tcpip_commands.o
 .sbss          0xa0000374       0x24 build/default/debug/_ext/1836803193/tcpip_manager.o
 .sbss          0xa0000398        0x8 build/default/debug/_ext/1836803193/tcpip_packet.o
 *(.scommon)
 .scommon       0xa00003a0        0x8 build/default/debug/_ext/340578644/sys_devcon.o
                0xa00003a0                sysDevconObj
 .scommon       0xa00003a8        0x3 build/default/debug/_ext/427015431/drv_usart.o
                0xa00003a8                gDrvUSARTCommonDataObj
 *fill*         0xa00003ab        0x1 
 .scommon       0xa00003ac        0x4 build/default/debug/_ext/429005716/sys_debug.o
                0xa00003ac                gblErrLvl
                0xa00003b0                _sbss_end = .
                0xa00003b0                . = ALIGN (0x4)

.bss            0xa00003b0      0x8cc
 *(.dynbss)
 *(COMMON)
 COMMON         0xa00003b0       0x20 build/default/debug/_ext/1688732426/system_init.o
                0xa00003b0                sysObj
 COMMON         0xa00003d0       0x14 build/default/debug/_ext/1360937237/app.o
                0xa00003d0                appData
 COMMON         0xa00003e4       0xff build/default/debug/_ext/1360937237/app_command.o
                0xa00003e4                APP_URL_Buffer
 *fill*         0xa00004e3        0x1 
 COMMON         0xa00004e4       0xac build/default/debug/_ext/427015431/drv_usart.o
                0xa00004e4                gDrvUSARTClientObj
                0xa0000530                gDrvUSARTObj
 COMMON         0xa0000590      0x370 build/default/debug/_ext/427015431/drv_usart_buffer_queue.o
                0xa0000590                gDrvUSARTBufferObj
 COMMON         0xa0000900      0x36c build/default/debug/_ext/2146114523/net_pres.o
                0xa0000900                sNetPresData
                0xa0000b04                sNetPresSockets
 COMMON         0xa0000c6c       0x10 build/default/debug/_ext/429005716/sys_debug.o
                0xa0000c6c                sysDebugInstance
                0xa0000c7c                . = ALIGN ((. != 0x0)?0x4:0x1)
                0xa0000c7c                . = ALIGN (0x4)
                0xa0000c7c                _end = .
                0xa0000c7c                _bss_end = .
                0x00020000                _bmxdudba_address = 0x20000
                0x00020000                _bmxdupba_address = 0x20000

/DISCARD/
 *(.pdr)
 *(.rel.dyn)
 *(.note.GNU-stack)
 *(.note.GNU-stack)
 *(.gnu_debuglink)
 *(.gnu.lto_*)
 *(.discard)

.gptab.sdata
 *(.gptab.data)
 *(.gptab.sdata)

.gptab.sbss
 *(.gptab.bss)
 *(.gptab.sbss)

.mdebug.abi32   0xa0000c7c        0x0
 *(.mdebug.abi32)
 .mdebug.abi32  0xa0000c7c        0x0 c:/program files (x86)/microchip/xc32/v1.43/bin/bin/../../lib/gcc/pic32mx/4.8.3/../../../../pic32mx/lib\software-debug-break.o
 .mdebug.abi32  0xa0000c7c        0x0 build/default/debug/_ext/1278673032/net_pres_enc_glue.o
 .mdebug.abi32  0xa0000c7c        0x0 build/default/debug/_ext/639803181/sys_clk_pic32mx.o
 .mdebug.abi32  0xa0000c7c        0x0 build/default/debug/_ext/340578644/sys_devcon.o
 .mdebug.abi32  0xa0000c7c        0x0 build/default/debug/_ext/340578644/sys_devcon_pic32mx.o
 .mdebug.abi32  0xa0000c7c        0x0 build/default/debug/_ext/822048611/sys_ports_static.o
 .mdebug.abi32  0xa0000c7c        0x0 build/default/debug/_ext/68765530/sys_reset.o
 .mdebug.abi32  0xa0000c7c        0x0 build/default/debug/_ext/1688732426/system_init.o
 .mdebug.abi32  0xa0000c7c        0x0 build/default/debug/_ext/1688732426/system_interrupt.o
 .mdebug.abi32  0xa0000c7c        0x0 build/default/debug/_ext/1688732426/system_exceptions.o
 .mdebug.abi32  0xa0000c7c        0x0 build/default/debug/_ext/1688732426/system_tasks.o
 .mdebug.abi32  0xa0000c7c        0x0 build/default/debug/_ext/1360937237/app.o
 .mdebug.abi32  0xa0000c7c        0x0 build/default/debug/_ext/1360937237/main.o
 .mdebug.abi32  0xa0000c7c        0x0 build/default/debug/_ext/1360937237/app_command.o
 .mdebug.abi32  0xa0000c7c        0x0 build/default/debug/_ext/1749672254/drv_ethmac.o
 .mdebug.abi32  0xa0000c7c        0x0 build/default/debug/_ext/1749672254/drv_ethmac_lib.o
 .mdebug.abi32  0xa0000c7c        0x0 build/default/debug/_ext/573518448/drv_ethphy.o
 .mdebug.abi32  0xa0000c7c        0x0 build/default/debug/_ext/573518448/drv_extphy_smsc8720.o
 .mdebug.abi32  0xa0000c7c        0x0 build/default/debug/_ext/1568515672/drv_miim.o
 .mdebug.abi32  0xa0000c7c        0x0 build/default/debug/_ext/528688037/drv_tmr.o
 .mdebug.abi32  0xa0000c7c        0x0 build/default/debug/_ext/427015431/drv_usart.o
 .mdebug.abi32  0xa0000c7c        0x0 build/default/debug/_ext/427015431/drv_usart_buffer_queue.o
 .mdebug.abi32  0xa0000c7c        0x0 build/default/debug/_ext/427015431/drv_usart_read_write.o
 .mdebug.abi32  0xa0000c7c        0x0 build/default/debug/_ext/2146114523/net_pres.o
 .mdebug.abi32  0xa0000c7c        0x0 build/default/debug/_ext/1167192164/sys_command.o
 .mdebug.abi32  0xa0000c7c        0x0 build/default/debug/_ext/710479984/sys_console.o
 .mdebug.abi32  0xa0000c7c        0x0 build/default/debug/_ext/710479984/sys_console_uart.o
 .mdebug.abi32  0xa0000c7c        0x0 build/default/debug/_ext/429005716/sys_debug.o
 .mdebug.abi32  0xa0000c7c        0x0 build/default/debug/_ext/1670183176/sys_int_pic32.o
 .mdebug.abi32  0xa0000c7c        0x0 build/default/debug/_ext/1584847572/sys_random.o
 .mdebug.abi32  0xa0000c7c        0x0 build/default/debug/_ext/1482654414/sys_tmr.o
 .mdebug.abi32  0xa0000c7c        0x0 build/default/debug/_ext/157393855/helpers.o
 .mdebug.abi32  0xa0000c7c        0x0 build/default/debug/_ext/1836803193/ipv4.o
 .mdebug.abi32  0xa0000c7c        0x0 build/default/debug/_ext/1836803193/tcp.o
 .mdebug.abi32  0xa0000c7c        0x0 build/default/debug/_ext/1836803193/udp.o
 .mdebug.abi32  0xa0000c7c        0x0 build/default/debug/_ext/1836803193/tcpip_heap_alloc.o
 .mdebug.abi32  0xa0000c7c        0x0 build/default/debug/_ext/1836803193/tcpip_heap_internal.o
 .mdebug.abi32  0xa0000c7c        0x0 build/default/debug/_ext/1836803193/arp.o
 .mdebug.abi32  0xa0000c7c        0x0 build/default/debug/_ext/1836803193/dhcp.o
 .mdebug.abi32  0xa0000c7c        0x0 build/default/debug/_ext/1836803193/dns.o
 .mdebug.abi32  0xa0000c7c        0x0 build/default/debug/_ext/1836803193/icmp.o
 .mdebug.abi32  0xa0000c7c        0x0 build/default/debug/_ext/1836803193/nbns.o
 .mdebug.abi32  0xa0000c7c        0x0 build/default/debug/_ext/1836803193/zero_conf_helper.o
 .mdebug.abi32  0xa0000c7c        0x0 build/default/debug/_ext/1836803193/zero_conf_link_local.o
 .mdebug.abi32  0xa0000c7c        0x0 build/default/debug/_ext/1836803193/tcpip_announce.o
 .mdebug.abi32  0xa0000c7c        0x0 build/default/debug/_ext/1836803193/tcpip_commands.o
 .mdebug.abi32  0xa0000c7c        0x0 build/default/debug/_ext/1836803193/hash_fnv.o
 .mdebug.abi32  0xa0000c7c        0x0 build/default/debug/_ext/1836803193/oahash.o
 .mdebug.abi32  0xa0000c7c        0x0 build/default/debug/_ext/1836803193/tcpip_helpers.o
 .mdebug.abi32  0xa0000c7c        0x0 build/default/debug/_ext/1836803193/tcpip_manager.o
 .mdebug.abi32  0xa0000c7c        0x0 build/default/debug/_ext/1836803193/tcpip_notify.o
 .mdebug.abi32  0xa0000c7c        0x0 build/default/debug/_ext/1836803193/tcpip_packet.o
 .mdebug.abi32  0xa0000c7c        0x0 c:/program files (x86)/microchip/xc32/v1.43/bin/bin/../../lib/gcc/pic32mx/4.8.3\libgcc.a(_udivdi3.o)
 .mdebug.abi32  0xa0000c7c        0x0 c:/program files (x86)/microchip/xc32/v1.43/bin/bin/../../lib/gcc/pic32mx/4.8.3/../../../../pic32mx/lib\libpic32.a(default-bootstrap-exception-handler.o)
 .mdebug.abi32  0xa0000c7c        0x0 c:/program files (x86)/microchip/xc32/v1.43/bin/bin/../../lib/gcc/pic32mx/4.8.3/../../../../pic32mx/lib\libpic32.a(default-on-reset.o)
 .mdebug.abi32  0xa0000c7c        0x0 c:/program files (x86)/microchip/xc32/v1.43/bin/bin/../../lib/gcc/pic32mx/4.8.3/../../../../pic32mx/lib\libpic32.a(default-on-bootstrap.o)
 .mdebug.abi32  0xa0000c7c        0x0 c:/program files (x86)/microchip/xc32/v1.43/bin/bin/../../lib/gcc/pic32mx/4.8.3/../../../../pic32mx/lib\libpic32.a(defaultinterrupt.o)
 .mdebug.abi32  0xa0000c7c        0x0 c:/program files (x86)/microchip/xc32/v1.43/bin/bin/../../lib/gcc/pic32mx/4.8.3/../../../../pic32mx/lib\libc.a(atoi.o)
 .mdebug.abi32  0xa0000c7c        0x0 c:/program files (x86)/microchip/xc32/v1.43/bin/bin/../../lib/gcc/pic32mx/4.8.3/../../../../pic32mx/lib\libc.a(calloc.o)
 .mdebug.abi32  0xa0000c7c        0x0 c:/program files (x86)/microchip/xc32/v1.43/bin/bin/../../lib/gcc/pic32mx/4.8.3/../../../../pic32mx/lib\libc.a(ctype.o)
 .mdebug.abi32  0xa0000c7c        0x0 c:/program files (x86)/microchip/xc32/v1.43/bin/bin/../../lib/gcc/pic32mx/4.8.3/../../../../pic32mx/lib\libc.a(ctypef.o)
 .mdebug.abi32  0xa0000c7c        0x0 c:/program files (x86)/microchip/xc32/v1.43/bin/bin/../../lib/gcc/pic32mx/4.8.3/../../../../pic32mx/lib\libc.a(malloc.o)
 .mdebug.abi32  0xa0000c7c        0x0 c:/program files (x86)/microchip/xc32/v1.43/bin/bin/../../lib/gcc/pic32mx/4.8.3/../../../../pic32mx/lib\libc.a(rand.o)
 .mdebug.abi32  0xa0000c7c        0x0 c:/program files (x86)/microchip/xc32/v1.43/bin/bin/../../lib/gcc/pic32mx/4.8.3/../../../../pic32mx/lib\libc.a(strchr.o)
 .mdebug.abi32  0xa0000c7c        0x0 c:/program files (x86)/microchip/xc32/v1.43/bin/bin/../../lib/gcc/pic32mx/4.8.3/../../../../pic32mx/lib\libc.a(strncpy.o)
 .mdebug.abi32  0xa0000c7c        0x0 c:/program files (x86)/microchip/xc32/v1.43/bin/bin/../../lib/gcc/pic32mx/4.8.3/../../../../pic32mx/lib\libc.a(strstr.o)
 .mdebug.abi32  0xa0000c7c        0x0 c:/program files (x86)/microchip/xc32/v1.43/bin/bin/../../lib/gcc/pic32mx/4.8.3/../../../../pic32mx/lib\libc.a(strtol.o)
 .mdebug.abi32  0xa0000c7c        0x0 c:/program files (x86)/microchip/xc32/v1.43/bin/bin/../../lib/gcc/pic32mx/4.8.3/../../../../pic32mx/lib\libc.a(snprintf_cdnopsuxX.eo)
 .mdebug.abi32  0xa0000c7c        0x0 c:/program files (x86)/microchip/xc32/v1.43/bin/bin/../../lib/gcc/pic32mx/4.8.3/../../../../pic32mx/lib\libc.a(sprintf_cdnopsuxX.eo)
 .mdebug.abi32  0xa0000c7c        0x0 c:/program files (x86)/microchip/xc32/v1.43/bin/bin/../../lib/gcc/pic32mx/4.8.3/../../../../pic32mx/lib\libc.a(vsnprintf_cdnopsuxX.eo)
 .mdebug.abi32  0xa0000c7c        0x0 c:/program files (x86)/microchip/xc32/v1.43/bin/bin/../../lib/gcc/pic32mx/4.8.3/../../../../pic32mx/lib\libc.a(vsnprintf.o)
 .mdebug.abi32  0xa0000c7c        0x0 c:/program files (x86)/microchip/xc32/v1.43/bin/bin/../../lib/gcc/pic32mx/4.8.3/../../../../pic32mx/lib\libc.a(errno.o)
 .mdebug.abi32  0xa0000c7c        0x0 c:/program files (x86)/microchip/xc32/v1.43/bin/bin/../../lib/gcc/pic32mx/4.8.3/../../../../pic32mx/lib\libc.a(strncmp.o)
 .mdebug.abi32  0xa0000c7c        0x0 c:/program files (x86)/microchip/xc32/v1.43/bin/bin/../../lib/gcc/pic32mx/4.8.3/../../../../pic32mx/lib\libc.a(doprnt_cdnopsuxX.eo)
 .mdebug.abi32  0xa0000c7c        0x0 c:/program files (x86)/microchip/xc32/v1.43/bin/bin/../../lib/gcc/pic32mx/4.8.3/../../../../pic32mx/lib\libc.a(doprnt.o)
 .mdebug.abi32  0xa0000c7c        0x0 c:/program files (x86)/microchip/xc32/v1.43/bin/bin/../../lib/gcc/pic32mx/4.8.3/../../../../pic32mx/lib\libc.a(_fputc_simple.o)
 .mdebug.abi32  0xa0000c7c        0x0 c:/program files (x86)/microchip/xc32/v1.43/bin/bin/../../lib/gcc/pic32mx/4.8.3/../../../../pic32mx/lib\libc.a(ldpowers.o)
 .mdebug.abi32  0xa0000c7c        0x0 c:/program files (x86)/microchip/xc32/v1.43/bin/bin/../../lib/gcc/pic32mx/4.8.3/../../../../pic32mx/lib\libc.a(_iob.o)
 .mdebug.abi32  0xa0000c7c        0x0 c:/program files (x86)/microchip/xc32/v1.43/bin/bin/../../lib/gcc/pic32mx/4.8.3/../../../../pic32mx/lib\libc.a(_flsbuf_simple.o)
 .mdebug.abi32  0xa0000c7c        0x0 c:/program files (x86)/microchip/xc32/v1.43/bin/bin/../../lib/gcc/pic32mx/4.8.3/../../../../pic32mx/lib\libe.a(_fixunsdfdi.o)
 .mdebug.abi32  0xa0000c7c        0x0 c:/program files (x86)/microchip/xc32/v1.43/bin/bin/../../lib/gcc/pic32mx/4.8.3/../../../../pic32mx/lib\libe.a(_orderdf2.o)
 .mdebug.abi32  0xa0000c7c        0x0 c:/program files (x86)/microchip/xc32/v1.43/bin/bin/../../lib/gcc/pic32mx/4.8.3/../../../../pic32mx/lib\libe.a(_fixdfdi.o)
 .mdebug.abi32  0xa0000c7c        0x0 c:/program files (x86)/microchip/xc32/v1.43/bin/bin/../../lib/gcc/pic32mx/4.8.3\libgcc.a(_umoddi3.o)
 .mdebug.abi32  0xa0000c7c        0x0 c:/program files (x86)/microchip/xc32/v1.43/bin/bin/../../lib/gcc/pic32mx/4.8.3\libgcc.a(floatunsidf.o)
 .mdebug.abi32  0xa0000c7c        0x0 c:/program files (x86)/microchip/xc32/v1.43/bin/bin/../../lib/gcc/pic32mx/4.8.3/../../../../pic32mx/lib\libpic32.a(sbrk.o)
 .mdebug.abi32  0xa0000c7c        0x0 c:/program files (x86)/microchip/xc32/v1.43/bin/bin/../../lib/gcc/pic32mx/4.8.3/../../../../pic32mx/lib\libpic32.a(write.o)
 .mdebug.abi32  0xa0000c7c        0x0 c:/program files (x86)/microchip/xc32/v1.43/bin/bin/../../lib/gcc/pic32mx/4.8.3/../../../../pic32mx/lib\libpic32.a(_mon_putc.o)
 .mdebug.abi32  0xa0000c7c        0x0 c:/program files (x86)/microchip/xc32/v1.43/bin/bin/../../lib/gcc/pic32mx/4.8.3/../../../../pic32mx/lib\libpic32.a(xc32_uart.o)

.mdebug.abiN32
 *(.mdebug.abiN32)

.mdebug.abi64
 *(.mdebug.abi64)

.mdebug.abiO64
 *(.mdebug.abiO64)

.mdebug.eabi32
 *(.mdebug.eabi32)

.mdebug.eabi64
 *(.mdebug.eabi64)

.gcc_compiled_long32
 *(.gcc_compiled_long32)

.gcc_compiled_long64
 *(.gcc_compiled_long64)

.stab
 *(.stab)

.stabstr
 *(.stabstr)

.stab.excl
 *(.stab.excl)

.stab.exclstr
 *(.stab.exclstr)

.stab.index
 *(.stab.index)

.stab.indexstr
 *(.stab.indexstr)

.comment        0x00000000      0x2de
 *(.comment)
 .comment       0x00000000       0x3c c:/program files (x86)/microchip/xc32/v1.43/bin/bin/../../lib/gcc/pic32mx/4.8.3/../../../../pic32mx/lib\software-debug-break.o
                                 0x3d (size before relaxing)
 .comment       0x00000000       0x3d build/default/debug/_ext/1278673032/net_pres_enc_glue.o
 .comment       0x00000000       0x3d build/default/debug/_ext/639803181/sys_clk_pic32mx.o
 .comment       0x00000000       0x3d build/default/debug/_ext/340578644/sys_devcon.o
 .comment       0x00000000       0x3d build/default/debug/_ext/340578644/sys_devcon_pic32mx.o
 .comment       0x00000000       0x3d build/default/debug/_ext/822048611/sys_ports_static.o
 .comment       0x00000000       0x3d build/default/debug/_ext/68765530/sys_reset.o
 .comment       0x00000000       0x3d build/default/debug/_ext/1688732426/system_init.o
 .comment       0x00000000       0x3d build/default/debug/_ext/1688732426/system_interrupt.o
 .comment       0x00000000       0x3d build/default/debug/_ext/1688732426/system_exceptions.o
 .comment       0x00000000       0x3d build/default/debug/_ext/1688732426/system_tasks.o
 .comment       0x00000000       0x3d build/default/debug/_ext/1360937237/app.o
 .comment       0x00000000       0x3d build/default/debug/_ext/1360937237/main.o
 .comment       0x00000000       0x3d build/default/debug/_ext/1360937237/app_command.o
 .comment       0x00000000       0x3d build/default/debug/_ext/1749672254/drv_ethmac.o
 .comment       0x00000000       0x3d build/default/debug/_ext/1749672254/drv_ethmac_lib.o
 .comment       0x00000000       0x3d build/default/debug/_ext/573518448/drv_ethphy.o
 .comment       0x00000000       0x3d build/default/debug/_ext/573518448/drv_extphy_smsc8720.o
 .comment       0x00000000       0x3d build/default/debug/_ext/1568515672/drv_miim.o
 .comment       0x00000000       0x3d build/default/debug/_ext/528688037/drv_tmr.o
 .comment       0x00000000       0x3d build/default/debug/_ext/427015431/drv_usart.o
 .comment       0x00000000       0x3d build/default/debug/_ext/427015431/drv_usart_buffer_queue.o
 .comment       0x00000000       0x3d build/default/debug/_ext/427015431/drv_usart_read_write.o
 .comment       0x00000000       0x3d build/default/debug/_ext/2146114523/net_pres.o
 .comment       0x00000000       0x3d build/default/debug/_ext/1167192164/sys_command.o
 .comment       0x00000000       0x3d build/default/debug/_ext/710479984/sys_console.o
 .comment       0x00000000       0x3d build/default/debug/_ext/710479984/sys_console_uart.o
 .comment       0x00000000       0x3d build/default/debug/_ext/429005716/sys_debug.o
 .comment       0x00000000       0x3d build/default/debug/_ext/1670183176/sys_int_pic32.o
 .comment       0x00000000       0x3d build/default/debug/_ext/1584847572/sys_random.o
 .comment       0x00000000       0x3d build/default/debug/_ext/1482654414/sys_tmr.o
 .comment       0x00000000       0x3d build/default/debug/_ext/157393855/helpers.o
 .comment       0x00000000       0x3d build/default/debug/_ext/1836803193/ipv4.o
 .comment       0x00000000       0x3d build/default/debug/_ext/1836803193/tcp.o
 .comment       0x00000000       0x3d build/default/debug/_ext/1836803193/udp.o
 .comment       0x00000000       0x3d build/default/debug/_ext/1836803193/tcpip_heap_alloc.o
 .comment       0x00000000       0x3d build/default/debug/_ext/1836803193/tcpip_heap_internal.o
 .comment       0x00000000       0x3d build/default/debug/_ext/1836803193/arp.o
 .comment       0x00000000       0x3d build/default/debug/_ext/1836803193/dhcp.o
 .comment       0x00000000       0x3d build/default/debug/_ext/1836803193/dns.o
 .comment       0x00000000       0x3d build/default/debug/_ext/1836803193/icmp.o
 .comment       0x00000000       0x3d build/default/debug/_ext/1836803193/nbns.o
 .comment       0x00000000       0x3d build/default/debug/_ext/1836803193/zero_conf_helper.o
 .comment       0x00000000       0x3d build/default/debug/_ext/1836803193/zero_conf_link_local.o
 .comment       0x00000000       0x3d build/default/debug/_ext/1836803193/tcpip_announce.o
 .comment       0x00000000       0x3d build/default/debug/_ext/1836803193/tcpip_commands.o
 .comment       0x00000000       0x3d build/default/debug/_ext/1836803193/hash_fnv.o
 .comment       0x00000000       0x3d build/default/debug/_ext/1836803193/oahash.o
 .comment       0x00000000       0x3d build/default/debug/_ext/1836803193/tcpip_helpers.o
 .comment       0x00000000       0x3d build/default/debug/_ext/1836803193/tcpip_manager.o
 .comment       0x00000000       0x3d build/default/debug/_ext/1836803193/tcpip_notify.o
 .comment       0x00000000       0x3d build/default/debug/_ext/1836803193/tcpip_packet.o
 .comment       0x00000000       0x3d c:/program files (x86)/microchip/xc32/v1.43/bin/bin/../../lib/gcc/pic32mx/4.8.3\libgcc.a(_udivdi3.o)
 .comment       0x0000003c       0x18 c:/program files (x86)/microchip/xc32/v1.43/bin/bin/../../lib/gcc/pic32mx/4.8.3/../../../../pic32mx/lib\libpic32.a(memcmp.o)
                                 0x19 (size before relaxing)
 .comment       0x00000054       0x18 c:/program files (x86)/microchip/xc32/v1.43/bin/bin/../../lib/gcc/pic32mx/4.8.3/../../../../pic32mx/lib\libpic32.a(memset.o)
                                 0x19 (size before relaxing)
 .comment       0x0000006c       0x19 c:/program files (x86)/microchip/xc32/v1.43/bin/bin/../../lib/gcc/pic32mx/4.8.3/../../../../pic32mx/lib\libpic32.a(strcmp.o)
                                 0x1a (size before relaxing)
 .comment       0x00000085       0x19 c:/program files (x86)/microchip/xc32/v1.43/bin/bin/../../lib/gcc/pic32mx/4.8.3/../../../../pic32mx/lib\libpic32.a(strcpy.o)
                                 0x1a (size before relaxing)
 .comment       0x0000009e       0x19 c:/program files (x86)/microchip/xc32/v1.43/bin/bin/../../lib/gcc/pic32mx/4.8.3/../../../../pic32mx/lib\libpic32.a(strlen.o)
                                 0x1a (size before relaxing)
 .comment       0x00000000       0x3d c:/program files (x86)/microchip/xc32/v1.43/bin/bin/../../lib/gcc/pic32mx/4.8.3/../../../../pic32mx/lib\libpic32.a(default-bootstrap-exception-handler.o)
 .comment       0x00000000       0x3d c:/program files (x86)/microchip/xc32/v1.43/bin/bin/../../lib/gcc/pic32mx/4.8.3/../../../../pic32mx/lib\libpic32.a(default-on-reset.o)
 .comment       0x00000000       0x3d c:/program files (x86)/microchip/xc32/v1.43/bin/bin/../../lib/gcc/pic32mx/4.8.3/../../../../pic32mx/lib\libpic32.a(default-on-bootstrap.o)
 .comment       0x00000000       0x3d c:/program files (x86)/microchip/xc32/v1.43/bin/bin/../../lib/gcc/pic32mx/4.8.3/../../../../pic32mx/lib\libpic32.a(defaultinterrupt.o)
 .comment       0x00000000       0x3d c:/program files (x86)/microchip/xc32/v1.43/bin/bin/../../lib/gcc/pic32mx/4.8.3/../../../../pic32mx/lib\libc.a(atoi.o)
 .comment       0x00000000       0x3d c:/program files (x86)/microchip/xc32/v1.43/bin/bin/../../lib/gcc/pic32mx/4.8.3/../../../../pic32mx/lib\libc.a(calloc.o)
 .comment       0x000000b7       0x4e c:/program files (x86)/microchip/xc32/v1.43/bin/bin/../../lib/gcc/pic32mx/4.8.3/../../../../pic32mx/lib\libc.a(ctype.o)
                                 0x8b (size before relaxing)
 .comment       0x00000105       0x4f c:/program files (x86)/microchip/xc32/v1.43/bin/bin/../../lib/gcc/pic32mx/4.8.3/../../../../pic32mx/lib\libc.a(ctypef.o)
                                 0x8c (size before relaxing)
 .comment       0x00000000       0x3d c:/program files (x86)/microchip/xc32/v1.43/bin/bin/../../lib/gcc/pic32mx/4.8.3/../../../../pic32mx/lib\libc.a(malloc.o)
 .comment       0x00000000       0x3d c:/program files (x86)/microchip/xc32/v1.43/bin/bin/../../lib/gcc/pic32mx/4.8.3/../../../../pic32mx/lib\libc.a(rand.o)
 .comment       0x00000000       0x3d c:/program files (x86)/microchip/xc32/v1.43/bin/bin/../../lib/gcc/pic32mx/4.8.3/../../../../pic32mx/lib\libc.a(strchr.o)
 .comment       0x00000000       0x3d c:/program files (x86)/microchip/xc32/v1.43/bin/bin/../../lib/gcc/pic32mx/4.8.3/../../../../pic32mx/lib\libc.a(strncpy.o)
 .comment       0x00000000       0x3d c:/program files (x86)/microchip/xc32/v1.43/bin/bin/../../lib/gcc/pic32mx/4.8.3/../../../../pic32mx/lib\libc.a(strstr.o)
 .comment       0x00000000       0x3d c:/program files (x86)/microchip/xc32/v1.43/bin/bin/../../lib/gcc/pic32mx/4.8.3/../../../../pic32mx/lib\libc.a(strtol.o)
 .comment       0x00000000       0x3d c:/program files (x86)/microchip/xc32/v1.43/bin/bin/../../lib/gcc/pic32mx/4.8.3/../../../../pic32mx/lib\libc.a(snprintf_cdnopsuxX.eo)
 .comment       0x00000000       0x3d c:/program files (x86)/microchip/xc32/v1.43/bin/bin/../../lib/gcc/pic32mx/4.8.3/../../../../pic32mx/lib\libc.a(sprintf_cdnopsuxX.eo)
 .comment       0x00000000       0x3d c:/program files (x86)/microchip/xc32/v1.43/bin/bin/../../lib/gcc/pic32mx/4.8.3/../../../../pic32mx/lib\libc.a(vsnprintf_cdnopsuxX.eo)
 .comment       0x00000000       0x3d c:/program files (x86)/microchip/xc32/v1.43/bin/bin/../../lib/gcc/pic32mx/4.8.3/../../../../pic32mx/lib\libc.a(vsnprintf.o)
 .comment       0x00000000       0x3d c:/program files (x86)/microchip/xc32/v1.43/bin/bin/../../lib/gcc/pic32mx/4.8.3/../../../../pic32mx/lib\libc.a(errno.o)
 .comment       0x00000000       0x3d c:/program files (x86)/microchip/xc32/v1.43/bin/bin/../../lib/gcc/pic32mx/4.8.3/../../../../pic32mx/lib\libc.a(strncmp.o)
 .comment       0x00000000       0x3d c:/program files (x86)/microchip/xc32/v1.43/bin/bin/../../lib/gcc/pic32mx/4.8.3/../../../../pic32mx/lib\libc.a(doprnt_cdnopsuxX.eo)
 .comment       0x00000000       0x3d c:/program files (x86)/microchip/xc32/v1.43/bin/bin/../../lib/gcc/pic32mx/4.8.3/../../../../pic32mx/lib\libc.a(doprnt.o)
 .comment       0x00000000       0x3d c:/program files (x86)/microchip/xc32/v1.43/bin/bin/../../lib/gcc/pic32mx/4.8.3/../../../../pic32mx/lib\libc.a(_fputc_simple.o)
 .comment       0x00000000       0x3d c:/program files (x86)/microchip/xc32/v1.43/bin/bin/../../lib/gcc/pic32mx/4.8.3/../../../../pic32mx/lib\libc.a(ldpowers.o)
 .comment       0x00000000       0x3d c:/program files (x86)/microchip/xc32/v1.43/bin/bin/../../lib/gcc/pic32mx/4.8.3/../../../../pic32mx/lib\libc.a(_iob.o)
 .comment       0x00000000       0x3d c:/program files (x86)/microchip/xc32/v1.43/bin/bin/../../lib/gcc/pic32mx/4.8.3/../../../../pic32mx/lib\libc.a(_flsbuf_simple.o)
 .comment       0x00000154       0x9f c:/program files (x86)/microchip/xc32/v1.43/bin/bin/../../lib/gcc/pic32mx/4.8.3/../../../../pic32mx/lib\libe.a(_fixunsdfdi.o)
                                 0xdc (size before relaxing)
 .comment       0x000001f3       0x50 c:/program files (x86)/microchip/xc32/v1.43/bin/bin/../../lib/gcc/pic32mx/4.8.3/../../../../pic32mx/lib\libe.a(_orderdf2.o)
                                 0xdb (size before relaxing)
 .comment       0x00000243       0x50 c:/program files (x86)/microchip/xc32/v1.43/bin/bin/../../lib/gcc/pic32mx/4.8.3/../../../../pic32mx/lib\libe.a(_fixdfdi.o)
                                 0xdb (size before relaxing)
 .comment       0x00000000       0x3d c:/program files (x86)/microchip/xc32/v1.43/bin/bin/../../lib/gcc/pic32mx/4.8.3\libgcc.a(_umoddi3.o)
 .comment       0x00000000       0x3d c:/program files (x86)/microchip/xc32/v1.43/bin/bin/../../lib/gcc/pic32mx/4.8.3\libgcc.a(floatunsidf.o)
 .comment       0x00000293       0x4b c:/program files (x86)/microchip/xc32/v1.43/bin/bin/../../lib/gcc/pic32mx/4.8.3/../../../../pic32mx/lib\libpic32.a(sbrk.o)
                                 0x88 (size before relaxing)
 .comment       0x00000000       0x3d c:/program files (x86)/microchip/xc32/v1.43/bin/bin/../../lib/gcc/pic32mx/4.8.3/../../../../pic32mx/lib\libpic32.a(write.o)
 .comment       0x00000000       0x3d c:/program files (x86)/microchip/xc32/v1.43/bin/bin/../../lib/gcc/pic32mx/4.8.3/../../../../pic32mx/lib\libpic32.a(_mon_putc.o)
 .comment       0x00000000       0x3d c:/program files (x86)/microchip/xc32/v1.43/bin/bin/../../lib/gcc/pic32mx/4.8.3/../../../../pic32mx/lib\libpic32.a(xc32_uart.o)

.debug
 *(.debug)

.line
 *(.line)

.debug_srcinfo
 *(.debug_srcinfo)

.debug_sfnames
 *(.debug_sfnames)

.debug_aranges  0x00000000     0x2850
 *(.debug_aranges)
 .debug_aranges
                0x00000000       0x20 c:/program files (x86)/microchip/xc32/v1.43/bin/bin/../../lib/gcc/pic32mx/4.8.3/../../../../pic32mx/lib\software-debug-break.o
 .debug_aranges
                0x00000020       0x18 build/default/debug/_ext/1278673032/net_pres_enc_glue.o
 .debug_aranges
                0x00000038       0x50 build/default/debug/_ext/639803181/sys_clk_pic32mx.o
 .debug_aranges
                0x00000088       0x78 build/default/debug/_ext/340578644/sys_devcon.o
 .debug_aranges
                0x00000100       0x20 build/default/debug/_ext/340578644/sys_devcon_pic32mx.o
 .debug_aranges
                0x00000120      0x148 build/default/debug/_ext/822048611/sys_ports_static.o
 .debug_aranges
                0x00000268       0x38 build/default/debug/_ext/68765530/sys_reset.o
 .debug_aranges
                0x000002a0       0x28 build/default/debug/_ext/1688732426/system_init.o
 .debug_aranges
                0x000002c8       0x38 build/default/debug/_ext/1688732426/system_interrupt.o
 .debug_aranges
                0x00000300       0x20 build/default/debug/_ext/1688732426/system_exceptions.o
 .debug_aranges
                0x00000320       0x20 build/default/debug/_ext/1688732426/system_tasks.o
 .debug_aranges
                0x00000340       0x48 build/default/debug/_ext/1360937237/app.o
 .debug_aranges
                0x00000388       0x20 build/default/debug/_ext/1360937237/main.o
 .debug_aranges
                0x000003a8       0x30 build/default/debug/_ext/1360937237/app_command.o
 .debug_aranges
                0x000003d8      0x180 build/default/debug/_ext/1749672254/drv_ethmac.o
 .debug_aranges
                0x00000558       0xe8 build/default/debug/_ext/1749672254/drv_ethmac_lib.o
 .debug_aranges
                0x00000640      0x280 build/default/debug/_ext/573518448/drv_ethphy.o
 .debug_aranges
                0x000008c0       0x30 build/default/debug/_ext/573518448/drv_extphy_smsc8720.o
 .debug_aranges
                0x000008f0       0xf0 build/default/debug/_ext/1568515672/drv_miim.o
 .debug_aranges
                0x000009e0      0x110 build/default/debug/_ext/528688037/drv_tmr.o
 .debug_aranges
                0x00000af0       0xe8 build/default/debug/_ext/427015431/drv_usart.o
 .debug_aranges
                0x00000bd8       0x50 build/default/debug/_ext/427015431/drv_usart_buffer_queue.o
 .debug_aranges
                0x00000c28       0x28 build/default/debug/_ext/427015431/drv_usart_read_write.o
 .debug_aranges
                0x00000c50      0x110 build/default/debug/_ext/2146114523/net_pres.o
 .debug_aranges
                0x00000d60       0xd0 build/default/debug/_ext/1167192164/sys_command.o
 .debug_aranges
                0x00000e30       0x60 build/default/debug/_ext/710479984/sys_console.o
 .debug_aranges
                0x00000e90       0x60 build/default/debug/_ext/710479984/sys_console_uart.o
 .debug_aranges
                0x00000ef0       0x60 build/default/debug/_ext/429005716/sys_debug.o
 .debug_aranges
                0x00000f50       0x48 build/default/debug/_ext/1670183176/sys_int_pic32.o
 .debug_aranges
                0x00000f98       0x38 build/default/debug/_ext/1584847572/sys_random.o
 .debug_aranges
                0x00000fd0       0xd0 build/default/debug/_ext/1482654414/sys_tmr.o
 .debug_aranges
                0x000010a0       0x40 build/default/debug/_ext/157393855/helpers.o
 .debug_aranges
                0x000010e0       0xc0 build/default/debug/_ext/1836803193/ipv4.o
 .debug_aranges
                0x000011a0      0x220 build/default/debug/_ext/1836803193/tcp.o
 .debug_aranges
                0x000013c0      0x1b8 build/default/debug/_ext/1836803193/udp.o
 .debug_aranges
                0x00001578       0x78 build/default/debug/_ext/1836803193/tcpip_heap_alloc.o
 .debug_aranges
                0x000015f0       0x68 build/default/debug/_ext/1836803193/tcpip_heap_internal.o
 .debug_aranges
                0x00001658      0x120 build/default/debug/_ext/1836803193/arp.o
 .debug_aranges
                0x00001778      0x188 build/default/debug/_ext/1836803193/dhcp.o
 .debug_aranges
                0x00001900      0x140 build/default/debug/_ext/1836803193/dns.o
 .debug_aranges
                0x00001a40       0x38 build/default/debug/_ext/1836803193/icmp.o
 .debug_aranges
                0x00001a78       0x40 build/default/debug/_ext/1836803193/nbns.o
 .debug_aranges
                0x00001ab8       0x20 build/default/debug/_ext/1836803193/zero_conf_helper.o
 .debug_aranges
                0x00001ad8       0x78 build/default/debug/_ext/1836803193/zero_conf_link_local.o
 .debug_aranges
                0x00001b50       0x98 build/default/debug/_ext/1836803193/tcpip_announce.o
 .debug_aranges
                0x00001be8       0xe0 build/default/debug/_ext/1836803193/tcpip_commands.o
 .debug_aranges
                0x00001cc8       0x28 build/default/debug/_ext/1836803193/hash_fnv.o
 .debug_aranges
                0x00001cf0       0x50 build/default/debug/_ext/1836803193/oahash.o
 .debug_aranges
                0x00001d40      0x210 build/default/debug/_ext/1836803193/tcpip_helpers.o
 .debug_aranges
                0x00001f50       0x20 build/default/debug/_ext/1836803193/tcpip_helper_c32.o
 .debug_aranges
                0x00001f70      0x378 build/default/debug/_ext/1836803193/tcpip_manager.o
 .debug_aranges
                0x000022e8       0x40 build/default/debug/_ext/1836803193/tcpip_notify.o
 .debug_aranges
                0x00002328       0x78 build/default/debug/_ext/1836803193/tcpip_packet.o
 .debug_aranges
                0x000023a0       0x20 c:/program files (x86)/microchip/xc32/v1.43/bin/bin/../../lib/gcc/pic32mx/4.8.3\libgcc.a(_udivdi3.o)
 .debug_aranges
                0x000023c0       0x20 c:/program files (x86)/microchip/xc32/v1.43/bin/bin/../../lib/gcc/pic32mx/4.8.3/../../../../pic32mx/lib\libpic32.a(default-bootstrap-exception-handler.o)
 .debug_aranges
                0x000023e0       0x20 c:/program files (x86)/microchip/xc32/v1.43/bin/bin/../../lib/gcc/pic32mx/4.8.3/../../../../pic32mx/lib\libpic32.a(default-on-reset.o)
 .debug_aranges
                0x00002400       0x20 c:/program files (x86)/microchip/xc32/v1.43/bin/bin/../../lib/gcc/pic32mx/4.8.3/../../../../pic32mx/lib\libpic32.a(default-on-bootstrap.o)
 .debug_aranges
                0x00002420       0x20 c:/program files (x86)/microchip/xc32/v1.43/bin/bin/../../lib/gcc/pic32mx/4.8.3/../../../../pic32mx/lib\libpic32.a(defaultinterrupt.o)
 .debug_aranges
                0x00002440       0x20 c:/program files (x86)/microchip/xc32/v1.43/bin/bin/../../lib/gcc/pic32mx/4.8.3/../../../../pic32mx/lib\libc.a(atoi.o)
 .debug_aranges
                0x00002460       0x20 c:/program files (x86)/microchip/xc32/v1.43/bin/bin/../../lib/gcc/pic32mx/4.8.3/../../../../pic32mx/lib\libc.a(calloc.o)
 .debug_aranges
                0x00002480       0xa0 c:/program files (x86)/microchip/xc32/v1.43/bin/bin/../../lib/gcc/pic32mx/4.8.3/../../../../pic32mx/lib\libc.a(ctypef.o)
 .debug_aranges
                0x00002520       0x30 c:/program files (x86)/microchip/xc32/v1.43/bin/bin/../../lib/gcc/pic32mx/4.8.3/../../../../pic32mx/lib\libc.a(malloc.o)
 .debug_aranges
                0x00002550       0x28 c:/program files (x86)/microchip/xc32/v1.43/bin/bin/../../lib/gcc/pic32mx/4.8.3/../../../../pic32mx/lib\libc.a(rand.o)
 .debug_aranges
                0x00002578       0x20 c:/program files (x86)/microchip/xc32/v1.43/bin/bin/../../lib/gcc/pic32mx/4.8.3/../../../../pic32mx/lib\libc.a(strchr.o)
 .debug_aranges
                0x00002598       0x20 c:/program files (x86)/microchip/xc32/v1.43/bin/bin/../../lib/gcc/pic32mx/4.8.3/../../../../pic32mx/lib\libc.a(strncpy.o)
 .debug_aranges
                0x000025b8       0x20 c:/program files (x86)/microchip/xc32/v1.43/bin/bin/../../lib/gcc/pic32mx/4.8.3/../../../../pic32mx/lib\libc.a(strstr.o)
 .debug_aranges
                0x000025d8       0x28 c:/program files (x86)/microchip/xc32/v1.43/bin/bin/../../lib/gcc/pic32mx/4.8.3/../../../../pic32mx/lib\libc.a(strtol.o)
 .debug_aranges
                0x00002600       0x20 c:/program files (x86)/microchip/xc32/v1.43/bin/bin/../../lib/gcc/pic32mx/4.8.3/../../../../pic32mx/lib\libc.a(snprintf_cdnopsuxX.eo)
 .debug_aranges
                0x00002620       0x20 c:/program files (x86)/microchip/xc32/v1.43/bin/bin/../../lib/gcc/pic32mx/4.8.3/../../../../pic32mx/lib\libc.a(sprintf_cdnopsuxX.eo)
 .debug_aranges
                0x00002640       0x20 c:/program files (x86)/microchip/xc32/v1.43/bin/bin/../../lib/gcc/pic32mx/4.8.3/../../../../pic32mx/lib\libc.a(vsnprintf_cdnopsuxX.eo)
 .debug_aranges
                0x00002660       0x20 c:/program files (x86)/microchip/xc32/v1.43/bin/bin/../../lib/gcc/pic32mx/4.8.3/../../../../pic32mx/lib\libc.a(vsnprintf.o)
 .debug_aranges
                0x00002680       0x20 c:/program files (x86)/microchip/xc32/v1.43/bin/bin/../../lib/gcc/pic32mx/4.8.3/../../../../pic32mx/lib\libc.a(strncmp.o)
 .debug_aranges
                0x000026a0       0x20 c:/program files (x86)/microchip/xc32/v1.43/bin/bin/../../lib/gcc/pic32mx/4.8.3/../../../../pic32mx/lib\libc.a(doprnt_cdnopsuxX.eo)
 .debug_aranges
                0x000026c0       0x30 c:/program files (x86)/microchip/xc32/v1.43/bin/bin/../../lib/gcc/pic32mx/4.8.3/../../../../pic32mx/lib\libc.a(doprnt.o)
 .debug_aranges
                0x000026f0       0x20 c:/program files (x86)/microchip/xc32/v1.43/bin/bin/../../lib/gcc/pic32mx/4.8.3/../../../../pic32mx/lib\libc.a(_fputc_simple.o)
 .debug_aranges
                0x00002710       0x20 c:/program files (x86)/microchip/xc32/v1.43/bin/bin/../../lib/gcc/pic32mx/4.8.3/../../../../pic32mx/lib\libc.a(_flsbuf_simple.o)
 .debug_aranges
                0x00002730       0x20 c:/program files (x86)/microchip/xc32/v1.43/bin/bin/../../lib/gcc/pic32mx/4.8.3/../../../../pic32mx/lib\libe.a(_fixunsdfdi.o)
 .debug_aranges
                0x00002750       0x20 c:/program files (x86)/microchip/xc32/v1.43/bin/bin/../../lib/gcc/pic32mx/4.8.3/../../../../pic32mx/lib\libe.a(_orderdf2.o)
 .debug_aranges
                0x00002770       0x20 c:/program files (x86)/microchip/xc32/v1.43/bin/bin/../../lib/gcc/pic32mx/4.8.3/../../../../pic32mx/lib\libe.a(_fixdfdi.o)
 .debug_aranges
                0x00002790       0x20 c:/program files (x86)/microchip/xc32/v1.43/bin/bin/../../lib/gcc/pic32mx/4.8.3\libgcc.a(_umoddi3.o)
 .debug_aranges
                0x000027b0       0x20 c:/program files (x86)/microchip/xc32/v1.43/bin/bin/../../lib/gcc/pic32mx/4.8.3\libgcc.a(floatunsidf.o)
 .debug_aranges
                0x000027d0       0x40 c:/program files (x86)/microchip/xc32/v1.43/bin/bin/../../lib/gcc/pic32mx/4.8.3/../../../../pic32mx/lib\libpic32.a(sbrk.o)
 .debug_aranges
                0x00002810       0x20 c:/program files (x86)/microchip/xc32/v1.43/bin/bin/../../lib/gcc/pic32mx/4.8.3/../../../../pic32mx/lib\libpic32.a(write.o)
 .debug_aranges
                0x00002830       0x20 c:/program files (x86)/microchip/xc32/v1.43/bin/bin/../../lib/gcc/pic32mx/4.8.3/../../../../pic32mx/lib\libpic32.a(_mon_putc.o)

.debug_pubnames
 *(.debug_pubnames)

.debug_info     0x00000000    0xc9970
 *(.debug_info .gnu.linkonce.wi.*)
 .debug_info    0x00000000       0xe4 c:/program files (x86)/microchip/xc32/v1.43/bin/bin/../../lib/gcc/pic32mx/4.8.3/../../../../pic32mx/lib\software-debug-break.o
 .debug_info    0x000000e4      0x16f build/default/debug/_ext/1278673032/net_pres_enc_glue.o
 .debug_info    0x00000253     0x1513 build/default/debug/_ext/639803181/sys_clk_pic32mx.o
 .debug_info    0x00001766     0x162a build/default/debug/_ext/340578644/sys_devcon.o
 .debug_info    0x00002d90     0x1762 build/default/debug/_ext/340578644/sys_devcon_pic32mx.o
 .debug_info    0x000044f2     0x3fb8 build/default/debug/_ext/822048611/sys_ports_static.o
 .debug_info    0x000084aa      0x8cc build/default/debug/_ext/68765530/sys_reset.o
 .debug_info    0x00008d76     0x87bb build/default/debug/_ext/1688732426/system_init.o
 .debug_info    0x00011531     0x165f build/default/debug/_ext/1688732426/system_interrupt.o
 .debug_info    0x00012b90      0xc84 build/default/debug/_ext/1688732426/system_exceptions.o
 .debug_info    0x00013814      0xb54 build/default/debug/_ext/1688732426/system_tasks.o
 .debug_info    0x00014368     0x2de9 build/default/debug/_ext/1360937237/app.o
 .debug_info    0x00017151      0x19f build/default/debug/_ext/1360937237/main.o
 .debug_info    0x000172f0     0x139c build/default/debug/_ext/1360937237/app_command.o
 .debug_info    0x0001868c     0xde6b build/default/debug/_ext/1749672254/drv_ethmac.o
 .debug_info    0x000264f7     0xb2e6 build/default/debug/_ext/1749672254/drv_ethmac_lib.o
 .debug_info    0x000317dd     0x6ae3 build/default/debug/_ext/573518448/drv_ethphy.o
 .debug_info    0x000382c0     0x219f build/default/debug/_ext/573518448/drv_extphy_smsc8720.o
 .debug_info    0x0003a45f     0x76a1 build/default/debug/_ext/1568515672/drv_miim.o
 .debug_info    0x00041b00     0x54c4 build/default/debug/_ext/528688037/drv_tmr.o
 .debug_info    0x00046fc4     0x6610 build/default/debug/_ext/427015431/drv_usart.o
 .debug_info    0x0004d5d4     0x347f build/default/debug/_ext/427015431/drv_usart_buffer_queue.o
 .debug_info    0x00050a53     0x31f7 build/default/debug/_ext/427015431/drv_usart_read_write.o
 .debug_info    0x00053c4a     0x2df6 build/default/debug/_ext/2146114523/net_pres.o
 .debug_info    0x00056a40     0x2d9e build/default/debug/_ext/1167192164/sys_command.o
 .debug_info    0x000597de      0xc46 build/default/debug/_ext/710479984/sys_console.o
 .debug_info    0x0005a424     0x1857 build/default/debug/_ext/710479984/sys_console_uart.o
 .debug_info    0x0005bc7b      0x8f8 build/default/debug/_ext/429005716/sys_debug.o
 .debug_info    0x0005c573     0x1583 build/default/debug/_ext/1670183176/sys_int_pic32.o
 .debug_info    0x0005daf6      0x5ae build/default/debug/_ext/1584847572/sys_random.o
 .debug_info    0x0005e0a4     0x2922 build/default/debug/_ext/1482654414/sys_tmr.o
 .debug_info    0x000609c6      0x47d build/default/debug/_ext/157393855/helpers.o
 .debug_info    0x00060e43     0x674a build/default/debug/_ext/1836803193/ipv4.o
 .debug_info    0x0006758d     0xa633 build/default/debug/_ext/1836803193/tcp.o
 .debug_info    0x00071bc0     0x8a01 build/default/debug/_ext/1836803193/udp.o
 .debug_info    0x0007a5c1     0x1c76 build/default/debug/_ext/1836803193/tcpip_heap_alloc.o
 .debug_info    0x0007c237     0x25a8 build/default/debug/_ext/1836803193/tcpip_heap_internal.o
 .debug_info    0x0007e7df     0x6c92 build/default/debug/_ext/1836803193/arp.o
 .debug_info    0x00085471     0x955a build/default/debug/_ext/1836803193/dhcp.o
 .debug_info    0x0008e9cb     0x7569 build/default/debug/_ext/1836803193/dns.o
 .debug_info    0x00095f34     0x3915 build/default/debug/_ext/1836803193/icmp.o
 .debug_info    0x00099849     0x3ddd build/default/debug/_ext/1836803193/nbns.o
 .debug_info    0x0009d626      0xc19 build/default/debug/_ext/1836803193/zero_conf_helper.o
 .debug_info    0x0009e23f     0x45ed build/default/debug/_ext/1836803193/zero_conf_link_local.o
 .debug_info    0x000a282c     0x4e32 build/default/debug/_ext/1836803193/tcpip_announce.o
 .debug_info    0x000a765e     0xa29d build/default/debug/_ext/1836803193/tcpip_commands.o
 .debug_info    0x000b18fb      0x26e build/default/debug/_ext/1836803193/hash_fnv.o
 .debug_info    0x000b1b69      0x890 build/default/debug/_ext/1836803193/oahash.o
 .debug_info    0x000b23f9     0x556d build/default/debug/_ext/1836803193/tcpip_helpers.o
 .debug_info    0x000b7966       0x9b build/default/debug/_ext/1836803193/tcpip_helper_c32.o
 .debug_info    0x000b7a01     0xaf3d build/default/debug/_ext/1836803193/tcpip_manager.o
 .debug_info    0x000c293e     0x12e5 build/default/debug/_ext/1836803193/tcpip_notify.o
 .debug_info    0x000c3c23     0x3438 build/default/debug/_ext/1836803193/tcpip_packet.o
 .debug_info    0x000c705b      0x76f c:/program files (x86)/microchip/xc32/v1.43/bin/bin/../../lib/gcc/pic32mx/4.8.3\libgcc.a(_udivdi3.o)
 .debug_info    0x000c77ca       0xf5 c:/program files (x86)/microchip/xc32/v1.43/bin/bin/../../lib/gcc/pic32mx/4.8.3/../../../../pic32mx/lib\libpic32.a(default-bootstrap-exception-handler.o)
 .debug_info    0x000c78bf       0xce c:/program files (x86)/microchip/xc32/v1.43/bin/bin/../../lib/gcc/pic32mx/4.8.3/../../../../pic32mx/lib\libpic32.a(default-on-reset.o)
 .debug_info    0x000c798d       0xd6 c:/program files (x86)/microchip/xc32/v1.43/bin/bin/../../lib/gcc/pic32mx/4.8.3/../../../../pic32mx/lib\libpic32.a(default-on-bootstrap.o)
 .debug_info    0x000c7a63       0xe8 c:/program files (x86)/microchip/xc32/v1.43/bin/bin/../../lib/gcc/pic32mx/4.8.3/../../../../pic32mx/lib\libpic32.a(defaultinterrupt.o)
 .debug_info    0x000c7b4b       0xc2 c:/program files (x86)/microchip/xc32/v1.43/bin/bin/../../lib/gcc/pic32mx/4.8.3/../../../../pic32mx/lib\libc.a(atoi.o)
 .debug_info    0x000c7c0d       0xc6 c:/program files (x86)/microchip/xc32/v1.43/bin/bin/../../lib/gcc/pic32mx/4.8.3/../../../../pic32mx/lib\libc.a(calloc.o)
 .debug_info    0x000c7cd3      0x23a c:/program files (x86)/microchip/xc32/v1.43/bin/bin/../../lib/gcc/pic32mx/4.8.3/../../../../pic32mx/lib\libc.a(ctypef.o)
 .debug_info    0x000c7f0d       0xf7 c:/program files (x86)/microchip/xc32/v1.43/bin/bin/../../lib/gcc/pic32mx/4.8.3/../../../../pic32mx/lib\libc.a(malloc.o)
 .debug_info    0x000c8004       0xdd c:/program files (x86)/microchip/xc32/v1.43/bin/bin/../../lib/gcc/pic32mx/4.8.3/../../../../pic32mx/lib\libc.a(rand.o)
 .debug_info    0x000c80e1       0xc6 c:/program files (x86)/microchip/xc32/v1.43/bin/bin/../../lib/gcc/pic32mx/4.8.3/../../../../pic32mx/lib\libc.a(strchr.o)
 .debug_info    0x000c81a7       0xc8 c:/program files (x86)/microchip/xc32/v1.43/bin/bin/../../lib/gcc/pic32mx/4.8.3/../../../../pic32mx/lib\libc.a(strncpy.o)
 .debug_info    0x000c826f       0xc6 c:/program files (x86)/microchip/xc32/v1.43/bin/bin/../../lib/gcc/pic32mx/4.8.3/../../../../pic32mx/lib\libc.a(strstr.o)
 .debug_info    0x000c8335       0xdd c:/program files (x86)/microchip/xc32/v1.43/bin/bin/../../lib/gcc/pic32mx/4.8.3/../../../../pic32mx/lib\libc.a(strtol.o)
 .debug_info    0x000c8412       0xd5 c:/program files (x86)/microchip/xc32/v1.43/bin/bin/../../lib/gcc/pic32mx/4.8.3/../../../../pic32mx/lib\libc.a(snprintf_cdnopsuxX.eo)
 .debug_info    0x000c84e7       0xd3 c:/program files (x86)/microchip/xc32/v1.43/bin/bin/../../lib/gcc/pic32mx/4.8.3/../../../../pic32mx/lib\libc.a(sprintf_cdnopsuxX.eo)
 .debug_info    0x000c85ba       0xd7 c:/program files (x86)/microchip/xc32/v1.43/bin/bin/../../lib/gcc/pic32mx/4.8.3/../../../../pic32mx/lib\libc.a(vsnprintf_cdnopsuxX.eo)
 .debug_info    0x000c8691       0xcc c:/program files (x86)/microchip/xc32/v1.43/bin/bin/../../lib/gcc/pic32mx/4.8.3/../../../../pic32mx/lib\libc.a(vsnprintf.o)
 .debug_info    0x000c875d       0xc8 c:/program files (x86)/microchip/xc32/v1.43/bin/bin/../../lib/gcc/pic32mx/4.8.3/../../../../pic32mx/lib\libc.a(strncmp.o)
 .debug_info    0x000c8825       0xd4 c:/program files (x86)/microchip/xc32/v1.43/bin/bin/../../lib/gcc/pic32mx/4.8.3/../../../../pic32mx/lib\libc.a(doprnt_cdnopsuxX.eo)
 .debug_info    0x000c88f9      0x100 c:/program files (x86)/microchip/xc32/v1.43/bin/bin/../../lib/gcc/pic32mx/4.8.3/../../../../pic32mx/lib\libc.a(doprnt.o)
 .debug_info    0x000c89f9       0xc4 c:/program files (x86)/microchip/xc32/v1.43/bin/bin/../../lib/gcc/pic32mx/4.8.3/../../../../pic32mx/lib\libc.a(_fputc_simple.o)
 .debug_info    0x000c8abd       0xc7 c:/program files (x86)/microchip/xc32/v1.43/bin/bin/../../lib/gcc/pic32mx/4.8.3/../../../../pic32mx/lib\libc.a(_flsbuf_simple.o)
 .debug_info    0x000c8b84       0xcf c:/program files (x86)/microchip/xc32/v1.43/bin/bin/../../lib/gcc/pic32mx/4.8.3/../../../../pic32mx/lib\libe.a(_fixunsdfdi.o)
 .debug_info    0x000c8c53       0xbb c:/program files (x86)/microchip/xc32/v1.43/bin/bin/../../lib/gcc/pic32mx/4.8.3/../../../../pic32mx/lib\libe.a(_orderdf2.o)
 .debug_info    0x000c8d0e       0xba c:/program files (x86)/microchip/xc32/v1.43/bin/bin/../../lib/gcc/pic32mx/4.8.3/../../../../pic32mx/lib\libe.a(_fixdfdi.o)
 .debug_info    0x000c8dc8      0x7ac c:/program files (x86)/microchip/xc32/v1.43/bin/bin/../../lib/gcc/pic32mx/4.8.3\libgcc.a(_umoddi3.o)
 .debug_info    0x000c9574      0x142 c:/program files (x86)/microchip/xc32/v1.43/bin/bin/../../lib/gcc/pic32mx/4.8.3\libgcc.a(floatunsidf.o)
 .debug_info    0x000c96b6      0x132 c:/program files (x86)/microchip/xc32/v1.43/bin/bin/../../lib/gcc/pic32mx/4.8.3/../../../../pic32mx/lib\libpic32.a(sbrk.o)
 .debug_info    0x000c97e8       0xc0 c:/program files (x86)/microchip/xc32/v1.43/bin/bin/../../lib/gcc/pic32mx/4.8.3/../../../../pic32mx/lib\libpic32.a(write.o)
 .debug_info    0x000c98a8       0xc8 c:/program files (x86)/microchip/xc32/v1.43/bin/bin/../../lib/gcc/pic32mx/4.8.3/../../../../pic32mx/lib\libpic32.a(_mon_putc.o)

.debug_abbrev   0x00000000     0xbfbe
 *(.debug_abbrev)
 .debug_abbrev  0x00000000       0x28 c:/program files (x86)/microchip/xc32/v1.43/bin/bin/../../lib/gcc/pic32mx/4.8.3/../../../../pic32mx/lib\software-debug-break.o
 .debug_abbrev  0x00000028       0x1b build/default/debug/_ext/1278673032/net_pres_enc_glue.o
 .debug_abbrev  0x00000043      0x26b build/default/debug/_ext/639803181/sys_clk_pic32mx.o
 .debug_abbrev  0x000002ae      0x2af build/default/debug/_ext/340578644/sys_devcon.o
 .debug_abbrev  0x0000055d      0x20f build/default/debug/_ext/340578644/sys_devcon_pic32mx.o
 .debug_abbrev  0x0000076c      0x270 build/default/debug/_ext/822048611/sys_ports_static.o
 .debug_abbrev  0x000009dc      0x167 build/default/debug/_ext/68765530/sys_reset.o
 .debug_abbrev  0x00000b43      0x3e0 build/default/debug/_ext/1688732426/system_init.o
 .debug_abbrev  0x00000f23      0x210 build/default/debug/_ext/1688732426/system_interrupt.o
 .debug_abbrev  0x00001133      0x143 build/default/debug/_ext/1688732426/system_exceptions.o
 .debug_abbrev  0x00001276      0x12d build/default/debug/_ext/1688732426/system_tasks.o
 .debug_abbrev  0x000013a3      0x32e build/default/debug/_ext/1360937237/app.o
 .debug_abbrev  0x000016d1       0x93 build/default/debug/_ext/1360937237/main.o
 .debug_abbrev  0x00001764      0x22e build/default/debug/_ext/1360937237/app_command.o
 .debug_abbrev  0x00001992      0x64d build/default/debug/_ext/1749672254/drv_ethmac.o
 .debug_abbrev  0x00001fdf      0x5c3 build/default/debug/_ext/1749672254/drv_ethmac_lib.o
 .debug_abbrev  0x000025a2      0x4ee build/default/debug/_ext/573518448/drv_ethphy.o
 .debug_abbrev  0x00002a90      0x229 build/default/debug/_ext/573518448/drv_extphy_smsc8720.o
 .debug_abbrev  0x00002cb9      0x651 build/default/debug/_ext/1568515672/drv_miim.o
 .debug_abbrev  0x0000330a      0x527 build/default/debug/_ext/528688037/drv_tmr.o
 .debug_abbrev  0x00003831      0x509 build/default/debug/_ext/427015431/drv_usart.o
 .debug_abbrev  0x00003d3a      0x41b build/default/debug/_ext/427015431/drv_usart_buffer_queue.o
 .debug_abbrev  0x00004155      0x3f6 build/default/debug/_ext/427015431/drv_usart_read_write.o
 .debug_abbrev  0x0000454b      0x3fb build/default/debug/_ext/2146114523/net_pres.o
 .debug_abbrev  0x00004946      0x48d build/default/debug/_ext/1167192164/sys_command.o
 .debug_abbrev  0x00004dd3      0x25a build/default/debug/_ext/710479984/sys_console.o
 .debug_abbrev  0x0000502d      0x35b build/default/debug/_ext/710479984/sys_console_uart.o
 .debug_abbrev  0x00005388      0x29e build/default/debug/_ext/429005716/sys_debug.o
 .debug_abbrev  0x00005626      0x240 build/default/debug/_ext/1670183176/sys_int_pic32.o
 .debug_abbrev  0x00005866      0x1f8 build/default/debug/_ext/1584847572/sys_random.o
 .debug_abbrev  0x00005a5e      0x536 build/default/debug/_ext/1482654414/sys_tmr.o
 .debug_abbrev  0x00005f94      0x14a build/default/debug/_ext/157393855/helpers.o
 .debug_abbrev  0x000060de      0x5a8 build/default/debug/_ext/1836803193/ipv4.o
 .debug_abbrev  0x00006686      0x635 build/default/debug/_ext/1836803193/tcp.o
 .debug_abbrev  0x00006cbb      0x686 build/default/debug/_ext/1836803193/udp.o
 .debug_abbrev  0x00007341      0x32d build/default/debug/_ext/1836803193/tcpip_heap_alloc.o
 .debug_abbrev  0x0000766e      0x407 build/default/debug/_ext/1836803193/tcpip_heap_internal.o
 .debug_abbrev  0x00007a75      0x58a build/default/debug/_ext/1836803193/arp.o
 .debug_abbrev  0x00007fff      0x5cc build/default/debug/_ext/1836803193/dhcp.o
 .debug_abbrev  0x000085cb      0x5e2 build/default/debug/_ext/1836803193/dns.o
 .debug_abbrev  0x00008bad      0x417 build/default/debug/_ext/1836803193/icmp.o
 .debug_abbrev  0x00008fc4      0x418 build/default/debug/_ext/1836803193/nbns.o
 .debug_abbrev  0x000093dc      0x116 build/default/debug/_ext/1836803193/zero_conf_helper.o
 .debug_abbrev  0x000094f2      0x4a5 build/default/debug/_ext/1836803193/zero_conf_link_local.o
 .debug_abbrev  0x00009997      0x4b0 build/default/debug/_ext/1836803193/tcpip_announce.o
 .debug_abbrev  0x00009e47      0x4ef build/default/debug/_ext/1836803193/tcpip_commands.o
 .debug_abbrev  0x0000a336       0xb5 build/default/debug/_ext/1836803193/hash_fnv.o
 .debug_abbrev  0x0000a3eb      0x277 build/default/debug/_ext/1836803193/oahash.o
 .debug_abbrev  0x0000a662      0x526 build/default/debug/_ext/1836803193/tcpip_helpers.o
 .debug_abbrev  0x0000ab88       0x14 build/default/debug/_ext/1836803193/tcpip_helper_c32.o
 .debug_abbrev  0x0000ab9c      0x6ad build/default/debug/_ext/1836803193/tcpip_manager.o
 .debug_abbrev  0x0000b249      0x1df build/default/debug/_ext/1836803193/tcpip_notify.o
 .debug_abbrev  0x0000b428      0x3bf build/default/debug/_ext/1836803193/tcpip_packet.o
 .debug_abbrev  0x0000b7e7      0x138 c:/program files (x86)/microchip/xc32/v1.43/bin/bin/../../lib/gcc/pic32mx/4.8.3\libgcc.a(_udivdi3.o)
 .debug_abbrev  0x0000b91f       0x28 c:/program files (x86)/microchip/xc32/v1.43/bin/bin/../../lib/gcc/pic32mx/4.8.3/../../../../pic32mx/lib\libpic32.a(default-bootstrap-exception-handler.o)
 .debug_abbrev  0x0000b947       0x28 c:/program files (x86)/microchip/xc32/v1.43/bin/bin/../../lib/gcc/pic32mx/4.8.3/../../../../pic32mx/lib\libpic32.a(default-on-reset.o)
 .debug_abbrev  0x0000b96f       0x28 c:/program files (x86)/microchip/xc32/v1.43/bin/bin/../../lib/gcc/pic32mx/4.8.3/../../../../pic32mx/lib\libpic32.a(default-on-bootstrap.o)
 .debug_abbrev  0x0000b997       0x28 c:/program files (x86)/microchip/xc32/v1.43/bin/bin/../../lib/gcc/pic32mx/4.8.3/../../../../pic32mx/lib\libpic32.a(defaultinterrupt.o)
 .debug_abbrev  0x0000b9bf       0x28 c:/program files (x86)/microchip/xc32/v1.43/bin/bin/../../lib/gcc/pic32mx/4.8.3/../../../../pic32mx/lib\libc.a(atoi.o)
 .debug_abbrev  0x0000b9e7       0x28 c:/program files (x86)/microchip/xc32/v1.43/bin/bin/../../lib/gcc/pic32mx/4.8.3/../../../../pic32mx/lib\libc.a(calloc.o)
 .debug_abbrev  0x0000ba0f       0x28 c:/program files (x86)/microchip/xc32/v1.43/bin/bin/../../lib/gcc/pic32mx/4.8.3/../../../../pic32mx/lib\libc.a(ctypef.o)
 .debug_abbrev  0x0000ba37       0x47 c:/program files (x86)/microchip/xc32/v1.43/bin/bin/../../lib/gcc/pic32mx/4.8.3/../../../../pic32mx/lib\libc.a(malloc.o)
 .debug_abbrev  0x0000ba7e       0x47 c:/program files (x86)/microchip/xc32/v1.43/bin/bin/../../lib/gcc/pic32mx/4.8.3/../../../../pic32mx/lib\libc.a(rand.o)
 .debug_abbrev  0x0000bac5       0x28 c:/program files (x86)/microchip/xc32/v1.43/bin/bin/../../lib/gcc/pic32mx/4.8.3/../../../../pic32mx/lib\libc.a(strchr.o)
 .debug_abbrev  0x0000baed       0x28 c:/program files (x86)/microchip/xc32/v1.43/bin/bin/../../lib/gcc/pic32mx/4.8.3/../../../../pic32mx/lib\libc.a(strncpy.o)
 .debug_abbrev  0x0000bb15       0x28 c:/program files (x86)/microchip/xc32/v1.43/bin/bin/../../lib/gcc/pic32mx/4.8.3/../../../../pic32mx/lib\libc.a(strstr.o)
 .debug_abbrev  0x0000bb3d       0x28 c:/program files (x86)/microchip/xc32/v1.43/bin/bin/../../lib/gcc/pic32mx/4.8.3/../../../../pic32mx/lib\libc.a(strtol.o)
 .debug_abbrev  0x0000bb65       0x28 c:/program files (x86)/microchip/xc32/v1.43/bin/bin/../../lib/gcc/pic32mx/4.8.3/../../../../pic32mx/lib\libc.a(snprintf_cdnopsuxX.eo)
 .debug_abbrev  0x0000bb8d       0x28 c:/program files (x86)/microchip/xc32/v1.43/bin/bin/../../lib/gcc/pic32mx/4.8.3/../../../../pic32mx/lib\libc.a(sprintf_cdnopsuxX.eo)
 .debug_abbrev  0x0000bbb5       0x28 c:/program files (x86)/microchip/xc32/v1.43/bin/bin/../../lib/gcc/pic32mx/4.8.3/../../../../pic32mx/lib\libc.a(vsnprintf_cdnopsuxX.eo)
 .debug_abbrev  0x0000bbdd       0x28 c:/program files (x86)/microchip/xc32/v1.43/bin/bin/../../lib/gcc/pic32mx/4.8.3/../../../../pic32mx/lib\libc.a(vsnprintf.o)
 .debug_abbrev  0x0000bc05       0x28 c:/program files (x86)/microchip/xc32/v1.43/bin/bin/../../lib/gcc/pic32mx/4.8.3/../../../../pic32mx/lib\libc.a(strncmp.o)
 .debug_abbrev  0x0000bc2d       0x28 c:/program files (x86)/microchip/xc32/v1.43/bin/bin/../../lib/gcc/pic32mx/4.8.3/../../../../pic32mx/lib\libc.a(doprnt_cdnopsuxX.eo)
 .debug_abbrev  0x0000bc55       0x45 c:/program files (x86)/microchip/xc32/v1.43/bin/bin/../../lib/gcc/pic32mx/4.8.3/../../../../pic32mx/lib\libc.a(doprnt.o)
 .debug_abbrev  0x0000bc9a       0x28 c:/program files (x86)/microchip/xc32/v1.43/bin/bin/../../lib/gcc/pic32mx/4.8.3/../../../../pic32mx/lib\libc.a(_fputc_simple.o)
 .debug_abbrev  0x0000bcc2       0x28 c:/program files (x86)/microchip/xc32/v1.43/bin/bin/../../lib/gcc/pic32mx/4.8.3/../../../../pic32mx/lib\libc.a(_flsbuf_simple.o)
 .debug_abbrev  0x0000bcea       0x37 c:/program files (x86)/microchip/xc32/v1.43/bin/bin/../../lib/gcc/pic32mx/4.8.3/../../../../pic32mx/lib\libe.a(_fixunsdfdi.o)
 .debug_abbrev  0x0000bd21       0x28 c:/program files (x86)/microchip/xc32/v1.43/bin/bin/../../lib/gcc/pic32mx/4.8.3/../../../../pic32mx/lib\libe.a(_orderdf2.o)
 .debug_abbrev  0x0000bd49       0x28 c:/program files (x86)/microchip/xc32/v1.43/bin/bin/../../lib/gcc/pic32mx/4.8.3/../../../../pic32mx/lib\libe.a(_fixdfdi.o)
 .debug_abbrev  0x0000bd71      0x147 c:/program files (x86)/microchip/xc32/v1.43/bin/bin/../../lib/gcc/pic32mx/4.8.3\libgcc.a(_umoddi3.o)
 .debug_abbrev  0x0000beb8       0x62 c:/program files (x86)/microchip/xc32/v1.43/bin/bin/../../lib/gcc/pic32mx/4.8.3\libgcc.a(floatunsidf.o)
 .debug_abbrev  0x0000bf1a       0x54 c:/program files (x86)/microchip/xc32/v1.43/bin/bin/../../lib/gcc/pic32mx/4.8.3/../../../../pic32mx/lib\libpic32.a(sbrk.o)
 .debug_abbrev  0x0000bf6e       0x28 c:/program files (x86)/microchip/xc32/v1.43/bin/bin/../../lib/gcc/pic32mx/4.8.3/../../../../pic32mx/lib\libpic32.a(write.o)
 .debug_abbrev  0x0000bf96       0x28 c:/program files (x86)/microchip/xc32/v1.43/bin/bin/../../lib/gcc/pic32mx/4.8.3/../../../../pic32mx/lib\libpic32.a(_mon_putc.o)

.debug_line     0x00000000    0x17461
 *(.debug_line)
 .debug_line    0x00000000       0x9a c:/program files (x86)/microchip/xc32/v1.43/bin/bin/../../lib/gcc/pic32mx/4.8.3/../../../../pic32mx/lib\software-debug-break.o
 .debug_line    0x0000009a       0x1d build/default/debug/_ext/1278673032/net_pres_enc_glue.o
 .debug_line    0x000000b7      0x431 build/default/debug/_ext/639803181/sys_clk_pic32mx.o
 .debug_line    0x000004e8      0x661 build/default/debug/_ext/340578644/sys_devcon.o
 .debug_line    0x00000b49      0x484 build/default/debug/_ext/340578644/sys_devcon_pic32mx.o
 .debug_line    0x00000fcd      0x74d build/default/debug/_ext/822048611/sys_ports_static.o
 .debug_line    0x0000171a      0x338 build/default/debug/_ext/68765530/sys_reset.o
 .debug_line    0x00001a52      0xb22 build/default/debug/_ext/1688732426/system_init.o
 .debug_line    0x00002574      0x35c build/default/debug/_ext/1688732426/system_interrupt.o
 .debug_line    0x000028d0      0x208 build/default/debug/_ext/1688732426/system_exceptions.o
 .debug_line    0x00002ad8      0x351 build/default/debug/_ext/1688732426/system_tasks.o
 .debug_line    0x00002e29      0x4d4 build/default/debug/_ext/1360937237/app.o
 .debug_line    0x000032fd       0xae build/default/debug/_ext/1360937237/main.o
 .debug_line    0x000033ab      0x305 build/default/debug/_ext/1360937237/app_command.o
 .debug_line    0x000036b0     0x109e build/default/debug/_ext/1749672254/drv_ethmac.o
 .debug_line    0x0000474e      0xc7b build/default/debug/_ext/1749672254/drv_ethmac_lib.o
 .debug_line    0x000053c9      0xd58 build/default/debug/_ext/573518448/drv_ethphy.o
 .debug_line    0x00006121      0x2fe build/default/debug/_ext/573518448/drv_extphy_smsc8720.o
 .debug_line    0x0000641f      0xa93 build/default/debug/_ext/1568515672/drv_miim.o
 .debug_line    0x00006eb2      0xc12 build/default/debug/_ext/528688037/drv_tmr.o
 .debug_line    0x00007ac4      0xdfe build/default/debug/_ext/427015431/drv_usart.o
 .debug_line    0x000088c2      0x7f1 build/default/debug/_ext/427015431/drv_usart_buffer_queue.o
 .debug_line    0x000090b3      0x70b build/default/debug/_ext/427015431/drv_usart_read_write.o
 .debug_line    0x000097be      0x7c8 build/default/debug/_ext/2146114523/net_pres.o
 .debug_line    0x00009f86      0x805 build/default/debug/_ext/1167192164/sys_command.o
 .debug_line    0x0000a78b      0x31b build/default/debug/_ext/710479984/sys_console.o
 .debug_line    0x0000aaa6      0x48b build/default/debug/_ext/710479984/sys_console_uart.o
 .debug_line    0x0000af31      0x306 build/default/debug/_ext/429005716/sys_debug.o
 .debug_line    0x0000b237      0x349 build/default/debug/_ext/1670183176/sys_int_pic32.o
 .debug_line    0x0000b580      0x233 build/default/debug/_ext/1584847572/sys_random.o
 .debug_line    0x0000b7b3      0x658 build/default/debug/_ext/1482654414/sys_tmr.o
 .debug_line    0x0000be0b      0x1a2 build/default/debug/_ext/157393855/helpers.o
 .debug_line    0x0000bfad      0x873 build/default/debug/_ext/1836803193/ipv4.o
 .debug_line    0x0000c820     0x134f build/default/debug/_ext/1836803193/tcp.o
 .debug_line    0x0000db6f      0xe5c build/default/debug/_ext/1836803193/udp.o
 .debug_line    0x0000e9cb      0x3cb build/default/debug/_ext/1836803193/tcpip_heap_alloc.o
 .debug_line    0x0000ed96      0x558 build/default/debug/_ext/1836803193/tcpip_heap_internal.o
 .debug_line    0x0000f2ee      0xa29 build/default/debug/_ext/1836803193/arp.o
 .debug_line    0x0000fd17      0xd58 build/default/debug/_ext/1836803193/dhcp.o
 .debug_line    0x00010a6f      0xa47 build/default/debug/_ext/1836803193/dns.o
 .debug_line    0x000114b6      0x3a3 build/default/debug/_ext/1836803193/icmp.o
 .debug_line    0x00011859      0x3ec build/default/debug/_ext/1836803193/nbns.o
 .debug_line    0x00011c45      0x1fd build/default/debug/_ext/1836803193/zero_conf_helper.o
 .debug_line    0x00011e42      0x66f build/default/debug/_ext/1836803193/zero_conf_link_local.o
 .debug_line    0x000124b1      0x55b build/default/debug/_ext/1836803193/tcpip_announce.o
 .debug_line    0x00012a0c      0xc0c build/default/debug/_ext/1836803193/tcpip_commands.o
 .debug_line    0x00013618      0x132 build/default/debug/_ext/1836803193/hash_fnv.o
 .debug_line    0x0001374a      0x1e1 build/default/debug/_ext/1836803193/oahash.o
 .debug_line    0x0001392b      0xdb3 build/default/debug/_ext/1836803193/tcpip_helpers.o
 .debug_line    0x000146de      0x101 build/default/debug/_ext/1836803193/tcpip_helper_c32.o
 .debug_line    0x000147df     0x1436 build/default/debug/_ext/1836803193/tcpip_manager.o
 .debug_line    0x00015c15      0x25e build/default/debug/_ext/1836803193/tcpip_notify.o
 .debug_line    0x00015e73      0x4a5 build/default/debug/_ext/1836803193/tcpip_packet.o
 .debug_line    0x00016318       0xfd c:/program files (x86)/microchip/xc32/v1.43/bin/bin/../../lib/gcc/pic32mx/4.8.3\libgcc.a(_udivdi3.o)
 .debug_line    0x00016415       0xa7 c:/program files (x86)/microchip/xc32/v1.43/bin/bin/../../lib/gcc/pic32mx/4.8.3/../../../../pic32mx/lib\libpic32.a(default-bootstrap-exception-handler.o)
 .debug_line    0x000164bc       0x94 c:/program files (x86)/microchip/xc32/v1.43/bin/bin/../../lib/gcc/pic32mx/4.8.3/../../../../pic32mx/lib\libpic32.a(default-on-reset.o)
 .debug_line    0x00016550       0x98 c:/program files (x86)/microchip/xc32/v1.43/bin/bin/../../lib/gcc/pic32mx/4.8.3/../../../../pic32mx/lib\libpic32.a(default-on-bootstrap.o)
 .debug_line    0x000165e8       0xa6 c:/program files (x86)/microchip/xc32/v1.43/bin/bin/../../lib/gcc/pic32mx/4.8.3/../../../../pic32mx/lib\libpic32.a(defaultinterrupt.o)
 .debug_line    0x0001668e       0x7e c:/program files (x86)/microchip/xc32/v1.43/bin/bin/../../lib/gcc/pic32mx/4.8.3/../../../../pic32mx/lib\libc.a(atoi.o)
 .debug_line    0x0001670c       0x80 c:/program files (x86)/microchip/xc32/v1.43/bin/bin/../../lib/gcc/pic32mx/4.8.3/../../../../pic32mx/lib\libc.a(calloc.o)
 .debug_line    0x0001678c        0x0 c:/program files (x86)/microchip/xc32/v1.43/bin/bin/../../lib/gcc/pic32mx/4.8.3/../../../../pic32mx/lib\libc.a(ctype.o)
 .debug_line    0x0001678c       0x80 c:/program files (x86)/microchip/xc32/v1.43/bin/bin/../../lib/gcc/pic32mx/4.8.3/../../../../pic32mx/lib\libc.a(ctypef.o)
 .debug_line    0x0001680c       0x80 c:/program files (x86)/microchip/xc32/v1.43/bin/bin/../../lib/gcc/pic32mx/4.8.3/../../../../pic32mx/lib\libc.a(malloc.o)
 .debug_line    0x0001688c       0x7e c:/program files (x86)/microchip/xc32/v1.43/bin/bin/../../lib/gcc/pic32mx/4.8.3/../../../../pic32mx/lib\libc.a(rand.o)
 .debug_line    0x0001690a       0x80 c:/program files (x86)/microchip/xc32/v1.43/bin/bin/../../lib/gcc/pic32mx/4.8.3/../../../../pic32mx/lib\libc.a(strchr.o)
 .debug_line    0x0001698a       0x81 c:/program files (x86)/microchip/xc32/v1.43/bin/bin/../../lib/gcc/pic32mx/4.8.3/../../../../pic32mx/lib\libc.a(strncpy.o)
 .debug_line    0x00016a0b       0x80 c:/program files (x86)/microchip/xc32/v1.43/bin/bin/../../lib/gcc/pic32mx/4.8.3/../../../../pic32mx/lib\libc.a(strstr.o)
 .debug_line    0x00016a8b       0x80 c:/program files (x86)/microchip/xc32/v1.43/bin/bin/../../lib/gcc/pic32mx/4.8.3/../../../../pic32mx/lib\libc.a(strtol.o)
 .debug_line    0x00016b0b       0x82 c:/program files (x86)/microchip/xc32/v1.43/bin/bin/../../lib/gcc/pic32mx/4.8.3/../../../../pic32mx/lib\libc.a(snprintf_cdnopsuxX.eo)
 .debug_line    0x00016b8d       0x81 c:/program files (x86)/microchip/xc32/v1.43/bin/bin/../../lib/gcc/pic32mx/4.8.3/../../../../pic32mx/lib\libc.a(sprintf_cdnopsuxX.eo)
 .debug_line    0x00016c0e       0x83 c:/program files (x86)/microchip/xc32/v1.43/bin/bin/../../lib/gcc/pic32mx/4.8.3/../../../../pic32mx/lib\libc.a(vsnprintf_cdnopsuxX.eo)
 .debug_line    0x00016c91       0x83 c:/program files (x86)/microchip/xc32/v1.43/bin/bin/../../lib/gcc/pic32mx/4.8.3/../../../../pic32mx/lib\libc.a(vsnprintf.o)
 .debug_line    0x00016d14        0x0 c:/program files (x86)/microchip/xc32/v1.43/bin/bin/../../lib/gcc/pic32mx/4.8.3/../../../../pic32mx/lib\libc.a(errno.o)
 .debug_line    0x00016d14       0x81 c:/program files (x86)/microchip/xc32/v1.43/bin/bin/../../lib/gcc/pic32mx/4.8.3/../../../../pic32mx/lib\libc.a(strncmp.o)
 .debug_line    0x00016d95       0x80 c:/program files (x86)/microchip/xc32/v1.43/bin/bin/../../lib/gcc/pic32mx/4.8.3/../../../../pic32mx/lib\libc.a(doprnt_cdnopsuxX.eo)
 .debug_line    0x00016e15       0x80 c:/program files (x86)/microchip/xc32/v1.43/bin/bin/../../lib/gcc/pic32mx/4.8.3/../../../../pic32mx/lib\libc.a(doprnt.o)
 .debug_line    0x00016e95       0x7f c:/program files (x86)/microchip/xc32/v1.43/bin/bin/../../lib/gcc/pic32mx/4.8.3/../../../../pic32mx/lib\libc.a(_fputc_simple.o)
 .debug_line    0x00016f14        0x0 c:/program files (x86)/microchip/xc32/v1.43/bin/bin/../../lib/gcc/pic32mx/4.8.3/../../../../pic32mx/lib\libc.a(ldpowers.o)
 .debug_line    0x00016f14        0x0 c:/program files (x86)/microchip/xc32/v1.43/bin/bin/../../lib/gcc/pic32mx/4.8.3/../../../../pic32mx/lib\libc.a(_iob.o)
 .debug_line    0x00016f14       0x80 c:/program files (x86)/microchip/xc32/v1.43/bin/bin/../../lib/gcc/pic32mx/4.8.3/../../../../pic32mx/lib\libc.a(_flsbuf_simple.o)
 .debug_line    0x00016f94       0x83 c:/program files (x86)/microchip/xc32/v1.43/bin/bin/../../lib/gcc/pic32mx/4.8.3/../../../../pic32mx/lib\libe.a(_fixunsdfdi.o)
 .debug_line    0x00017017       0x82 c:/program files (x86)/microchip/xc32/v1.43/bin/bin/../../lib/gcc/pic32mx/4.8.3/../../../../pic32mx/lib\libe.a(_orderdf2.o)
 .debug_line    0x00017099       0x82 c:/program files (x86)/microchip/xc32/v1.43/bin/bin/../../lib/gcc/pic32mx/4.8.3/../../../../pic32mx/lib\libe.a(_fixdfdi.o)
 .debug_line    0x0001711b      0x10f c:/program files (x86)/microchip/xc32/v1.43/bin/bin/../../lib/gcc/pic32mx/4.8.3\libgcc.a(_umoddi3.o)
 .debug_line    0x0001722a       0x99 c:/program files (x86)/microchip/xc32/v1.43/bin/bin/../../lib/gcc/pic32mx/4.8.3\libgcc.a(floatunsidf.o)
 .debug_line    0x000172c3       0x88 c:/program files (x86)/microchip/xc32/v1.43/bin/bin/../../lib/gcc/pic32mx/4.8.3/../../../../pic32mx/lib\libpic32.a(sbrk.o)
 .debug_line    0x0001734b       0x89 c:/program files (x86)/microchip/xc32/v1.43/bin/bin/../../lib/gcc/pic32mx/4.8.3/../../../../pic32mx/lib\libpic32.a(write.o)
 .debug_line    0x000173d4       0x8d c:/program files (x86)/microchip/xc32/v1.43/bin/bin/../../lib/gcc/pic32mx/4.8.3/../../../../pic32mx/lib\libpic32.a(_mon_putc.o)
 .debug_line    0x00017461        0x0 c:/program files (x86)/microchip/xc32/v1.43/bin/bin/../../lib/gcc/pic32mx/4.8.3/../../../../pic32mx/lib\libpic32.a(xc32_uart.o)

.debug_frame    0x00000000     0x69d8
 *(.debug_frame)
 .debug_frame   0x00000000       0x20 c:/program files (x86)/microchip/xc32/v1.43/bin/bin/../../lib/gcc/pic32mx/4.8.3/../../../../pic32mx/lib\software-debug-break.o
 .debug_frame   0x00000020       0xa0 build/default/debug/_ext/639803181/sys_clk_pic32mx.o
 .debug_frame   0x000000c0       0xe8 build/default/debug/_ext/340578644/sys_devcon.o
 .debug_frame   0x000001a8       0x28 build/default/debug/_ext/340578644/sys_devcon_pic32mx.o
 .debug_frame   0x000001d0      0x270 build/default/debug/_ext/822048611/sys_ports_static.o
 .debug_frame   0x00000440       0x50 build/default/debug/_ext/68765530/sys_reset.o
 .debug_frame   0x00000490       0x44 build/default/debug/_ext/1688732426/system_init.o
 .debug_frame   0x000004d4      0x120 build/default/debug/_ext/1688732426/system_interrupt.o
 .debug_frame   0x000005f4       0x28 build/default/debug/_ext/1688732426/system_exceptions.o
 .debug_frame   0x0000061c       0x2c build/default/debug/_ext/1688732426/system_tasks.o
 .debug_frame   0x00000648       0xb4 build/default/debug/_ext/1360937237/app.o
 .debug_frame   0x000006fc       0x28 build/default/debug/_ext/1360937237/main.o
 .debug_frame   0x00000724       0x58 build/default/debug/_ext/1360937237/app_command.o
 .debug_frame   0x0000077c      0x458 build/default/debug/_ext/1749672254/drv_ethmac.o
 .debug_frame   0x00000bd4      0x268 build/default/debug/_ext/1749672254/drv_ethmac_lib.o
 .debug_frame   0x00000e3c      0x6e4 build/default/debug/_ext/573518448/drv_ethphy.o
 .debug_frame   0x00001520       0x50 build/default/debug/_ext/573518448/drv_extphy_smsc8720.o
 .debug_frame   0x00001570      0x2c4 build/default/debug/_ext/1568515672/drv_miim.o
 .debug_frame   0x00001834      0x2ac build/default/debug/_ext/528688037/drv_tmr.o
 .debug_frame   0x00001ae0      0x2b0 build/default/debug/_ext/427015431/drv_usart.o
 .debug_frame   0x00001d90       0xcc build/default/debug/_ext/427015431/drv_usart_buffer_queue.o
 .debug_frame   0x00001e5c       0x50 build/default/debug/_ext/427015431/drv_usart_read_write.o
 .debug_frame   0x00001eac      0x34c build/default/debug/_ext/2146114523/net_pres.o
 .debug_frame   0x000021f8      0x2d0 build/default/debug/_ext/1167192164/sys_command.o
 .debug_frame   0x000024c8      0x108 build/default/debug/_ext/710479984/sys_console.o
 .debug_frame   0x000025d0       0xcc build/default/debug/_ext/710479984/sys_console_uart.o
 .debug_frame   0x0000269c       0xb4 build/default/debug/_ext/429005716/sys_debug.o
 .debug_frame   0x00002750       0x90 build/default/debug/_ext/1670183176/sys_int_pic32.o
 .debug_frame   0x000027e0       0x68 build/default/debug/_ext/1584847572/sys_random.o
 .debug_frame   0x00002848      0x250 build/default/debug/_ext/1482654414/sys_tmr.o
 .debug_frame   0x00002a98       0x74 build/default/debug/_ext/157393855/helpers.o
 .debug_frame   0x00002b0c      0x250 build/default/debug/_ext/1836803193/ipv4.o
 .debug_frame   0x00002d5c      0x6d8 build/default/debug/_ext/1836803193/tcp.o
 .debug_frame   0x00003434      0x5a8 build/default/debug/_ext/1836803193/udp.o
 .debug_frame   0x000039dc      0x110 build/default/debug/_ext/1836803193/tcpip_heap_alloc.o
 .debug_frame   0x00003aec       0xfc build/default/debug/_ext/1836803193/tcpip_heap_internal.o
 .debug_frame   0x00003be8      0x3e8 build/default/debug/_ext/1836803193/arp.o
 .debug_frame   0x00003fd0      0x510 build/default/debug/_ext/1836803193/dhcp.o
 .debug_frame   0x000044e0      0x404 build/default/debug/_ext/1836803193/dns.o
 .debug_frame   0x000048e4       0x80 build/default/debug/_ext/1836803193/icmp.o
 .debug_frame   0x00004964       0xa4 build/default/debug/_ext/1836803193/nbns.o
 .debug_frame   0x00004a08       0x2c build/default/debug/_ext/1836803193/zero_conf_helper.o
 .debug_frame   0x00004a34      0x148 build/default/debug/_ext/1836803193/zero_conf_link_local.o
 .debug_frame   0x00004b7c      0x1b0 build/default/debug/_ext/1836803193/tcpip_announce.o
 .debug_frame   0x00004d2c      0x35c build/default/debug/_ext/1836803193/tcpip_commands.o
 .debug_frame   0x00005088       0x30 build/default/debug/_ext/1836803193/hash_fnv.o
 .debug_frame   0x000050b8       0xb4 build/default/debug/_ext/1836803193/oahash.o
 .debug_frame   0x0000516c      0x630 build/default/debug/_ext/1836803193/tcpip_helpers.o
 .debug_frame   0x0000579c      0x994 build/default/debug/_ext/1836803193/tcpip_manager.o
 .debug_frame   0x00006130       0x94 build/default/debug/_ext/1836803193/tcpip_notify.o
 .debug_frame   0x000061c4      0x144 build/default/debug/_ext/1836803193/tcpip_packet.o
 .debug_frame   0x00006308       0x20 c:/program files (x86)/microchip/xc32/v1.43/bin/bin/../../lib/gcc/pic32mx/4.8.3\libgcc.a(_udivdi3.o)
 .debug_frame   0x00006328       0x2c c:/program files (x86)/microchip/xc32/v1.43/bin/bin/../../lib/gcc/pic32mx/4.8.3/../../../../pic32mx/lib\libpic32.a(default-bootstrap-exception-handler.o)
 .debug_frame   0x00006354       0x20 c:/program files (x86)/microchip/xc32/v1.43/bin/bin/../../lib/gcc/pic32mx/4.8.3/../../../../pic32mx/lib\libpic32.a(default-on-reset.o)
 .debug_frame   0x00006374       0x20 c:/program files (x86)/microchip/xc32/v1.43/bin/bin/../../lib/gcc/pic32mx/4.8.3/../../../../pic32mx/lib\libpic32.a(default-on-bootstrap.o)
 .debug_frame   0x00006394       0x20 c:/program files (x86)/microchip/xc32/v1.43/bin/bin/../../lib/gcc/pic32mx/4.8.3/../../../../pic32mx/lib\libpic32.a(defaultinterrupt.o)
 .debug_frame   0x000063b4       0x20 c:/program files (x86)/microchip/xc32/v1.43/bin/bin/../../lib/gcc/pic32mx/4.8.3/../../../../pic32mx/lib\libc.a(atoi.o)
 .debug_frame   0x000063d4       0x28 c:/program files (x86)/microchip/xc32/v1.43/bin/bin/../../lib/gcc/pic32mx/4.8.3/../../../../pic32mx/lib\libc.a(calloc.o)
 .debug_frame   0x000063fc      0x120 c:/program files (x86)/microchip/xc32/v1.43/bin/bin/../../lib/gcc/pic32mx/4.8.3/../../../../pic32mx/lib\libc.a(ctypef.o)
 .debug_frame   0x0000651c       0x68 c:/program files (x86)/microchip/xc32/v1.43/bin/bin/../../lib/gcc/pic32mx/4.8.3/../../../../pic32mx/lib\libc.a(malloc.o)
 .debug_frame   0x00006584       0x30 c:/program files (x86)/microchip/xc32/v1.43/bin/bin/../../lib/gcc/pic32mx/4.8.3/../../../../pic32mx/lib\libc.a(rand.o)
 .debug_frame   0x000065b4       0x20 c:/program files (x86)/microchip/xc32/v1.43/bin/bin/../../lib/gcc/pic32mx/4.8.3/../../../../pic32mx/lib\libc.a(strchr.o)
 .debug_frame   0x000065d4       0x20 c:/program files (x86)/microchip/xc32/v1.43/bin/bin/../../lib/gcc/pic32mx/4.8.3/../../../../pic32mx/lib\libc.a(strncpy.o)
 .debug_frame   0x000065f4       0x2c c:/program files (x86)/microchip/xc32/v1.43/bin/bin/../../lib/gcc/pic32mx/4.8.3/../../../../pic32mx/lib\libc.a(strstr.o)
 .debug_frame   0x00006620       0x58 c:/program files (x86)/microchip/xc32/v1.43/bin/bin/../../lib/gcc/pic32mx/4.8.3/../../../../pic32mx/lib\libc.a(strtol.o)
 .debug_frame   0x00006678       0x28 c:/program files (x86)/microchip/xc32/v1.43/bin/bin/../../lib/gcc/pic32mx/4.8.3/../../../../pic32mx/lib\libc.a(snprintf_cdnopsuxX.eo)
 .debug_frame   0x000066a0       0x28 c:/program files (x86)/microchip/xc32/v1.43/bin/bin/../../lib/gcc/pic32mx/4.8.3/../../../../pic32mx/lib\libc.a(sprintf_cdnopsuxX.eo)
 .debug_frame   0x000066c8       0x2c c:/program files (x86)/microchip/xc32/v1.43/bin/bin/../../lib/gcc/pic32mx/4.8.3/../../../../pic32mx/lib\libc.a(vsnprintf_cdnopsuxX.eo)
 .debug_frame   0x000066f4       0x2c c:/program files (x86)/microchip/xc32/v1.43/bin/bin/../../lib/gcc/pic32mx/4.8.3/../../../../pic32mx/lib\libc.a(vsnprintf.o)
 .debug_frame   0x00006720       0x20 c:/program files (x86)/microchip/xc32/v1.43/bin/bin/../../lib/gcc/pic32mx/4.8.3/../../../../pic32mx/lib\libc.a(strncmp.o)
 .debug_frame   0x00006740       0x38 c:/program files (x86)/microchip/xc32/v1.43/bin/bin/../../lib/gcc/pic32mx/4.8.3/../../../../pic32mx/lib\libc.a(doprnt_cdnopsuxX.eo)
 .debug_frame   0x00006778       0x74 c:/program files (x86)/microchip/xc32/v1.43/bin/bin/../../lib/gcc/pic32mx/4.8.3/../../../../pic32mx/lib\libc.a(doprnt.o)
 .debug_frame   0x000067ec       0x2c c:/program files (x86)/microchip/xc32/v1.43/bin/bin/../../lib/gcc/pic32mx/4.8.3/../../../../pic32mx/lib\libc.a(_fputc_simple.o)
 .debug_frame   0x00006818       0x28 c:/program files (x86)/microchip/xc32/v1.43/bin/bin/../../lib/gcc/pic32mx/4.8.3/../../../../pic32mx/lib\libc.a(_flsbuf_simple.o)
 .debug_frame   0x00006840       0x2c c:/program files (x86)/microchip/xc32/v1.43/bin/bin/../../lib/gcc/pic32mx/4.8.3/../../../../pic32mx/lib\libe.a(_fixunsdfdi.o)
 .debug_frame   0x0000686c       0x20 c:/program files (x86)/microchip/xc32/v1.43/bin/bin/../../lib/gcc/pic32mx/4.8.3/../../../../pic32mx/lib\libe.a(_orderdf2.o)
 .debug_frame   0x0000688c       0x20 c:/program files (x86)/microchip/xc32/v1.43/bin/bin/../../lib/gcc/pic32mx/4.8.3/../../../../pic32mx/lib\libe.a(_fixdfdi.o)
 .debug_frame   0x000068ac       0x20 c:/program files (x86)/microchip/xc32/v1.43/bin/bin/../../lib/gcc/pic32mx/4.8.3\libgcc.a(_umoddi3.o)
 .debug_frame   0x000068cc       0x28 c:/program files (x86)/microchip/xc32/v1.43/bin/bin/../../lib/gcc/pic32mx/4.8.3\libgcc.a(floatunsidf.o)
 .debug_frame   0x000068f4       0x84 c:/program files (x86)/microchip/xc32/v1.43/bin/bin/../../lib/gcc/pic32mx/4.8.3/../../../../pic32mx/lib\libpic32.a(sbrk.o)
 .debug_frame   0x00006978       0x38 c:/program files (x86)/microchip/xc32/v1.43/bin/bin/../../lib/gcc/pic32mx/4.8.3/../../../../pic32mx/lib\libpic32.a(write.o)
 .debug_frame   0x000069b0       0x28 c:/program files (x86)/microchip/xc32/v1.43/bin/bin/../../lib/gcc/pic32mx/4.8.3/../../../../pic32mx/lib\libpic32.a(_mon_putc.o)

.debug_str      0x00000000     0x1ff5
 *(.debug_str)
 .debug_str     0x00000000        0x0 c:/program files (x86)/microchip/xc32/v1.43/bin/bin/../../lib/gcc/pic32mx/4.8.3/../../../../pic32mx/lib\software-debug-break.o
 .debug_str     0x00000000        0x0 build/default/debug/_ext/1278673032/net_pres_enc_glue.o
 .debug_str     0x00000000       0x39 build/default/debug/_ext/639803181/sys_clk_pic32mx.o
 .debug_str     0x00000039       0x16 build/default/debug/_ext/340578644/sys_devcon.o
 .debug_str     0x0000004f        0x6 build/default/debug/_ext/340578644/sys_devcon_pic32mx.o
 .debug_str     0x00000055       0x55 build/default/debug/_ext/822048611/sys_ports_static.o
 .debug_str     0x000000aa        0xd build/default/debug/_ext/68765530/sys_reset.o
 .debug_str     0x000000b7       0xdc build/default/debug/_ext/1688732426/system_init.o
 .debug_str     0x00000193        0x0 build/default/debug/_ext/1688732426/system_interrupt.o
 .debug_str     0x00000193        0x0 build/default/debug/_ext/1688732426/system_exceptions.o
 .debug_str     0x00000193        0x0 build/default/debug/_ext/1688732426/system_tasks.o
 .debug_str     0x00000193        0x0 build/default/debug/_ext/1360937237/app.o
 .debug_str     0x00000193        0x0 build/default/debug/_ext/1360937237/main.o
 .debug_str     0x00000193       0x14 build/default/debug/_ext/1360937237/app_command.o
 .debug_str     0x000001a7      0x1e6 build/default/debug/_ext/1749672254/drv_ethmac.o
 .debug_str     0x0000038d      0x1a5 build/default/debug/_ext/1749672254/drv_ethmac_lib.o
 .debug_str     0x00000532      0x4e8 build/default/debug/_ext/573518448/drv_ethphy.o
 .debug_str     0x00000a1a       0x1f build/default/debug/_ext/573518448/drv_extphy_smsc8720.o
 .debug_str     0x00000a39      0x295 build/default/debug/_ext/1568515672/drv_miim.o
 .debug_str     0x00000cce       0xc6 build/default/debug/_ext/528688037/drv_tmr.o
 .debug_str     0x00000d94      0x1bb build/default/debug/_ext/427015431/drv_usart.o
 .debug_str     0x00000f4f       0x74 build/default/debug/_ext/427015431/drv_usart_buffer_queue.o
 .debug_str     0x00000fc3       0x6b build/default/debug/_ext/427015431/drv_usart_read_write.o
 .debug_str     0x0000102e       0x95 build/default/debug/_ext/2146114523/net_pres.o
 .debug_str     0x000010c3       0x46 build/default/debug/_ext/1167192164/sys_command.o
 .debug_str     0x00001109        0xd build/default/debug/_ext/710479984/sys_console.o
 .debug_str     0x00001116       0x18 build/default/debug/_ext/710479984/sys_console_uart.o
 .debug_str     0x0000112e       0x12 build/default/debug/_ext/429005716/sys_debug.o
 .debug_str     0x00001140       0x2d build/default/debug/_ext/1670183176/sys_int_pic32.o
 .debug_str     0x0000116d       0x1d build/default/debug/_ext/1584847572/sys_random.o
 .debug_str     0x0000118a       0x7d build/default/debug/_ext/1482654414/sys_tmr.o
 .debug_str     0x00001207        0x0 build/default/debug/_ext/157393855/helpers.o
 .debug_str     0x00001207      0x101 build/default/debug/_ext/1836803193/ipv4.o
 .debug_str     0x00001308      0x1a7 build/default/debug/_ext/1836803193/tcp.o
 .debug_str     0x000014af      0x160 build/default/debug/_ext/1836803193/udp.o
 .debug_str     0x0000160f       0x58 build/default/debug/_ext/1836803193/tcpip_heap_alloc.o
 .debug_str     0x00001667       0x59 build/default/debug/_ext/1836803193/tcpip_heap_internal.o
 .debug_str     0x000016c0       0xe5 build/default/debug/_ext/1836803193/arp.o
 .debug_str     0x000017a5       0xce build/default/debug/_ext/1836803193/dhcp.o
 .debug_str     0x00001873      0x138 build/default/debug/_ext/1836803193/dns.o
 .debug_str     0x000019ab       0x3d build/default/debug/_ext/1836803193/icmp.o
 .debug_str     0x000019e8       0x24 build/default/debug/_ext/1836803193/nbns.o
 .debug_str     0x00001a0c        0x0 build/default/debug/_ext/1836803193/zero_conf_helper.o
 .debug_str     0x00001a0c       0x4b build/default/debug/_ext/1836803193/zero_conf_link_local.o
 .debug_str     0x00001a57       0x86 build/default/debug/_ext/1836803193/tcpip_announce.o
 .debug_str     0x00001add      0x173 build/default/debug/_ext/1836803193/tcpip_commands.o
 .debug_str     0x00001c50        0x0 build/default/debug/_ext/1836803193/hash_fnv.o
 .debug_str     0x00001c50        0xa build/default/debug/_ext/1836803193/oahash.o
 .debug_str     0x00001c5a       0xa6 build/default/debug/_ext/1836803193/tcpip_helpers.o
 .debug_str     0x00001d00      0x2ca build/default/debug/_ext/1836803193/tcpip_manager.o
 .debug_str     0x00001fca       0x11 build/default/debug/_ext/1836803193/tcpip_notify.o
 .debug_str     0x00001fdb       0x1a build/default/debug/_ext/1836803193/tcpip_packet.o
 .debug_str     0x00001ff5        0x0 c:/program files (x86)/microchip/xc32/v1.43/bin/bin/../../lib/gcc/pic32mx/4.8.3\libgcc.a(_udivdi3.o)
 .debug_str     0x00001ff5        0x0 c:/program files (x86)/microchip/xc32/v1.43/bin/bin/../../lib/gcc/pic32mx/4.8.3/../../../../pic32mx/lib\libpic32.a(default-bootstrap-exception-handler.o)
 .debug_str     0x00001ff5        0x0 c:/program files (x86)/microchip/xc32/v1.43/bin/bin/../../lib/gcc/pic32mx/4.8.3/../../../../pic32mx/lib\libpic32.a(default-on-reset.o)
 .debug_str     0x00001ff5        0x0 c:/program files (x86)/microchip/xc32/v1.43/bin/bin/../../lib/gcc/pic32mx/4.8.3/../../../../pic32mx/lib\libpic32.a(default-on-bootstrap.o)
 .debug_str     0x00001ff5        0x0 c:/program files (x86)/microchip/xc32/v1.43/bin/bin/../../lib/gcc/pic32mx/4.8.3/../../../../pic32mx/lib\libpic32.a(defaultinterrupt.o)
 .debug_str     0x00001ff5        0x0 c:/program files (x86)/microchip/xc32/v1.43/bin/bin/../../lib/gcc/pic32mx/4.8.3/../../../../pic32mx/lib\libc.a(atoi.o)
 .debug_str     0x00001ff5        0x0 c:/program files (x86)/microchip/xc32/v1.43/bin/bin/../../lib/gcc/pic32mx/4.8.3/../../../../pic32mx/lib\libc.a(calloc.o)
 .debug_str     0x00001ff5        0x0 c:/program files (x86)/microchip/xc32/v1.43/bin/bin/../../lib/gcc/pic32mx/4.8.3/../../../../pic32mx/lib\libc.a(ctype.o)
 .debug_str     0x00001ff5        0x0 c:/program files (x86)/microchip/xc32/v1.43/bin/bin/../../lib/gcc/pic32mx/4.8.3/../../../../pic32mx/lib\libc.a(ctypef.o)
 .debug_str     0x00001ff5        0x0 c:/program files (x86)/microchip/xc32/v1.43/bin/bin/../../lib/gcc/pic32mx/4.8.3/../../../../pic32mx/lib\libc.a(malloc.o)
 .debug_str     0x00001ff5        0x0 c:/program files (x86)/microchip/xc32/v1.43/bin/bin/../../lib/gcc/pic32mx/4.8.3/../../../../pic32mx/lib\libc.a(rand.o)
 .debug_str     0x00001ff5        0x0 c:/program files (x86)/microchip/xc32/v1.43/bin/bin/../../lib/gcc/pic32mx/4.8.3/../../../../pic32mx/lib\libc.a(strchr.o)
 .debug_str     0x00001ff5        0x0 c:/program files (x86)/microchip/xc32/v1.43/bin/bin/../../lib/gcc/pic32mx/4.8.3/../../../../pic32mx/lib\libc.a(strncpy.o)
 .debug_str     0x00001ff5        0x0 c:/program files (x86)/microchip/xc32/v1.43/bin/bin/../../lib/gcc/pic32mx/4.8.3/../../../../pic32mx/lib\libc.a(strstr.o)
 .debug_str     0x00001ff5        0x0 c:/program files (x86)/microchip/xc32/v1.43/bin/bin/../../lib/gcc/pic32mx/4.8.3/../../../../pic32mx/lib\libc.a(strtol.o)
 .debug_str     0x00001ff5        0x0 c:/program files (x86)/microchip/xc32/v1.43/bin/bin/../../lib/gcc/pic32mx/4.8.3/../../../../pic32mx/lib\libc.a(snprintf_cdnopsuxX.eo)
 .debug_str     0x00001ff5        0x0 c:/program files (x86)/microchip/xc32/v1.43/bin/bin/../../lib/gcc/pic32mx/4.8.3/../../../../pic32mx/lib\libc.a(sprintf_cdnopsuxX.eo)
 .debug_str     0x00001ff5        0x0 c:/program files (x86)/microchip/xc32/v1.43/bin/bin/../../lib/gcc/pic32mx/4.8.3/../../../../pic32mx/lib\libc.a(vsnprintf_cdnopsuxX.eo)
 .debug_str     0x00001ff5        0x0 c:/program files (x86)/microchip/xc32/v1.43/bin/bin/../../lib/gcc/pic32mx/4.8.3/../../../../pic32mx/lib\libc.a(vsnprintf.o)
 .debug_str     0x00001ff5        0x0 c:/program files (x86)/microchip/xc32/v1.43/bin/bin/../../lib/gcc/pic32mx/4.8.3/../../../../pic32mx/lib\libc.a(errno.o)
 .debug_str     0x00001ff5        0x0 c:/program files (x86)/microchip/xc32/v1.43/bin/bin/../../lib/gcc/pic32mx/4.8.3/../../../../pic32mx/lib\libc.a(strncmp.o)
 .debug_str     0x00001ff5        0x0 c:/program files (x86)/microchip/xc32/v1.43/bin/bin/../../lib/gcc/pic32mx/4.8.3/../../../../pic32mx/lib\libc.a(doprnt_cdnopsuxX.eo)
 .debug_str     0x00001ff5        0x0 c:/program files (x86)/microchip/xc32/v1.43/bin/bin/../../lib/gcc/pic32mx/4.8.3/../../../../pic32mx/lib\libc.a(doprnt.o)
 .debug_str     0x00001ff5        0x0 c:/program files (x86)/microchip/xc32/v1.43/bin/bin/../../lib/gcc/pic32mx/4.8.3/../../../../pic32mx/lib\libc.a(_fputc_simple.o)
 .debug_str     0x00001ff5        0x0 c:/program files (x86)/microchip/xc32/v1.43/bin/bin/../../lib/gcc/pic32mx/4.8.3/../../../../pic32mx/lib\libc.a(ldpowers.o)
 .debug_str     0x00001ff5        0x0 c:/program files (x86)/microchip/xc32/v1.43/bin/bin/../../lib/gcc/pic32mx/4.8.3/../../../../pic32mx/lib\libc.a(_iob.o)
 .debug_str     0x00001ff5        0x0 c:/program files (x86)/microchip/xc32/v1.43/bin/bin/../../lib/gcc/pic32mx/4.8.3/../../../../pic32mx/lib\libc.a(_flsbuf_simple.o)
 .debug_str     0x00001ff5        0x0 c:/program files (x86)/microchip/xc32/v1.43/bin/bin/../../lib/gcc/pic32mx/4.8.3/../../../../pic32mx/lib\libe.a(_fixunsdfdi.o)
 .debug_str     0x00001ff5        0x0 c:/program files (x86)/microchip/xc32/v1.43/bin/bin/../../lib/gcc/pic32mx/4.8.3/../../../../pic32mx/lib\libe.a(_orderdf2.o)
 .debug_str     0x00001ff5        0x0 c:/program files (x86)/microchip/xc32/v1.43/bin/bin/../../lib/gcc/pic32mx/4.8.3/../../../../pic32mx/lib\libe.a(_fixdfdi.o)
 .debug_str     0x00001ff5        0x0 c:/program files (x86)/microchip/xc32/v1.43/bin/bin/../../lib/gcc/pic32mx/4.8.3\libgcc.a(_umoddi3.o)
 .debug_str     0x00001ff5        0x0 c:/program files (x86)/microchip/xc32/v1.43/bin/bin/../../lib/gcc/pic32mx/4.8.3\libgcc.a(floatunsidf.o)
 .debug_str     0x00001ff5        0x0 c:/program files (x86)/microchip/xc32/v1.43/bin/bin/../../lib/gcc/pic32mx/4.8.3/../../../../pic32mx/lib\libpic32.a(sbrk.o)
 .debug_str     0x00001ff5        0x0 c:/program files (x86)/microchip/xc32/v1.43/bin/bin/../../lib/gcc/pic32mx/4.8.3/../../../../pic32mx/lib\libpic32.a(write.o)
 .debug_str     0x00001ff5        0x0 c:/program files (x86)/microchip/xc32/v1.43/bin/bin/../../lib/gcc/pic32mx/4.8.3/../../../../pic32mx/lib\libpic32.a(_mon_putc.o)
 .debug_str     0x00001ff5        0x0 c:/program files (x86)/microchip/xc32/v1.43/bin/bin/../../lib/gcc/pic32mx/4.8.3/../../../../pic32mx/lib\libpic32.a(xc32_uart.o)

.debug_loc      0x00000000    0x35a9f
 *(.debug_loc)
 .debug_loc     0x00000000       0xc1 build/default/debug/_ext/639803181/sys_clk_pic32mx.o
 .debug_loc     0x000000c1      0x150 build/default/debug/_ext/340578644/sys_devcon.o
 .debug_loc     0x00000211       0xfa build/default/debug/_ext/340578644/sys_devcon_pic32mx.o
 .debug_loc     0x0000030b      0x74e build/default/debug/_ext/822048611/sys_ports_static.o
 .debug_loc     0x00000a59       0x61 build/default/debug/_ext/1688732426/system_init.o
 .debug_loc     0x00000aba       0xe1 build/default/debug/_ext/1688732426/system_interrupt.o
 .debug_loc     0x00000b9b       0x20 build/default/debug/_ext/1688732426/system_exceptions.o
 .debug_loc     0x00000bbb       0x20 build/default/debug/_ext/1688732426/system_tasks.o
 .debug_loc     0x00000bdb      0x394 build/default/debug/_ext/1360937237/app.o
 .debug_loc     0x00000f6f       0x20 build/default/debug/_ext/1360937237/main.o
 .debug_loc     0x00000f8f      0x139 build/default/debug/_ext/1360937237/app_command.o
 .debug_loc     0x000010c8     0x3268 build/default/debug/_ext/1749672254/drv_ethmac.o
 .debug_loc     0x00004330     0x1d8f build/default/debug/_ext/1749672254/drv_ethmac_lib.o
 .debug_loc     0x000060bf     0x2bf2 build/default/debug/_ext/573518448/drv_ethphy.o
 .debug_loc     0x00008cb1      0x175 build/default/debug/_ext/573518448/drv_extphy_smsc8720.o
 .debug_loc     0x00008e26     0x262c build/default/debug/_ext/1568515672/drv_miim.o
 .debug_loc     0x0000b452     0x1b29 build/default/debug/_ext/528688037/drv_tmr.o
 .debug_loc     0x0000cf7b     0x2236 build/default/debug/_ext/427015431/drv_usart.o
 .debug_loc     0x0000f1b1      0xce1 build/default/debug/_ext/427015431/drv_usart_buffer_queue.o
 .debug_loc     0x0000fe92      0x72b build/default/debug/_ext/427015431/drv_usart_read_write.o
 .debug_loc     0x000105bd     0x196e build/default/debug/_ext/2146114523/net_pres.o
 .debug_loc     0x00011f2b     0x135d build/default/debug/_ext/1167192164/sys_command.o
 .debug_loc     0x00013288      0x4f4 build/default/debug/_ext/710479984/sys_console.o
 .debug_loc     0x0001377c      0x2fd build/default/debug/_ext/710479984/sys_console_uart.o
 .debug_loc     0x00013a79      0x123 build/default/debug/_ext/429005716/sys_debug.o
 .debug_loc     0x00013b9c       0xe9 build/default/debug/_ext/1670183176/sys_int_pic32.o
 .debug_loc     0x00013c85       0xf0 build/default/debug/_ext/1584847572/sys_random.o
 .debug_loc     0x00013d75     0x1078 build/default/debug/_ext/1482654414/sys_tmr.o
 .debug_loc     0x00014ded      0x31f build/default/debug/_ext/157393855/helpers.o
 .debug_loc     0x0001510c     0x1aa2 build/default/debug/_ext/1836803193/ipv4.o
 .debug_loc     0x00016bae     0x51e7 build/default/debug/_ext/1836803193/tcp.o
 .debug_loc     0x0001bd95     0x3919 build/default/debug/_ext/1836803193/udp.o
 .debug_loc     0x0001f6ae      0x509 build/default/debug/_ext/1836803193/tcpip_heap_alloc.o
 .debug_loc     0x0001fbb7      0xe28 build/default/debug/_ext/1836803193/tcpip_heap_internal.o
 .debug_loc     0x000209df     0x22ef build/default/debug/_ext/1836803193/arp.o
 .debug_loc     0x00022cce     0x29db build/default/debug/_ext/1836803193/dhcp.o
 .debug_loc     0x000256a9     0x26d7 build/default/debug/_ext/1836803193/dns.o
 .debug_loc     0x00027d80      0x2bd build/default/debug/_ext/1836803193/icmp.o
 .debug_loc     0x0002803d      0x4ed build/default/debug/_ext/1836803193/nbns.o
 .debug_loc     0x0002852a       0xe9 build/default/debug/_ext/1836803193/zero_conf_helper.o
 .debug_loc     0x00028613      0x947 build/default/debug/_ext/1836803193/zero_conf_link_local.o
 .debug_loc     0x00028f5a      0x84d build/default/debug/_ext/1836803193/tcpip_announce.o
 .debug_loc     0x000297a7     0x258f build/default/debug/_ext/1836803193/tcpip_commands.o
 .debug_loc     0x0002bd36      0x137 build/default/debug/_ext/1836803193/hash_fnv.o
 .debug_loc     0x0002be6d      0x311 build/default/debug/_ext/1836803193/oahash.o
 .debug_loc     0x0002c17e     0x3b2d build/default/debug/_ext/1836803193/tcpip_helpers.o
 .debug_loc     0x0002fcab     0x3c7f build/default/debug/_ext/1836803193/tcpip_manager.o
 .debug_loc     0x0003392a      0x2b5 build/default/debug/_ext/1836803193/tcpip_notify.o
 .debug_loc     0x00033bdf      0x895 build/default/debug/_ext/1836803193/tcpip_packet.o
 .debug_loc     0x00034474      0xa6a c:/program files (x86)/microchip/xc32/v1.43/bin/bin/../../lib/gcc/pic32mx/4.8.3\libgcc.a(_udivdi3.o)
 .debug_loc     0x00034ede       0x2c c:/program files (x86)/microchip/xc32/v1.43/bin/bin/../../lib/gcc/pic32mx/4.8.3/../../../../pic32mx/lib\libpic32.a(default-bootstrap-exception-handler.o)
 .debug_loc     0x00034f0a       0x20 c:/program files (x86)/microchip/xc32/v1.43/bin/bin/../../lib/gcc/pic32mx/4.8.3/../../../../pic32mx/lib\libe.a(_fixunsdfdi.o)
 .debug_loc     0x00034f2a      0xa3d c:/program files (x86)/microchip/xc32/v1.43/bin/bin/../../lib/gcc/pic32mx/4.8.3\libgcc.a(_umoddi3.o)
 .debug_loc     0x00035967       0x80 c:/program files (x86)/microchip/xc32/v1.43/bin/bin/../../lib/gcc/pic32mx/4.8.3\libgcc.a(floatunsidf.o)
 .debug_loc     0x000359e7       0x60 c:/program files (x86)/microchip/xc32/v1.43/bin/bin/../../lib/gcc/pic32mx/4.8.3/../../../../pic32mx/lib\libpic32.a(sbrk.o)
 .debug_loc     0x00035a47       0x38 c:/program files (x86)/microchip/xc32/v1.43/bin/bin/../../lib/gcc/pic32mx/4.8.3/../../../../pic32mx/lib\libpic32.a(write.o)
 .debug_loc     0x00035a7f       0x20 c:/program files (x86)/microchip/xc32/v1.43/bin/bin/../../lib/gcc/pic32mx/4.8.3/../../../../pic32mx/lib\libpic32.a(_mon_putc.o)

.debug_macinfo
 *(.debug_macinfo)

.debug_weaknames
 *(.debug_weaknames)

.debug_funcnames
 *(.debug_funcnames)

.debug_typenames
 *(.debug_typenames)

.debug_varnames
 *(.debug_varnames)

.debug_pubtypes
 *(.debug_pubtypes)

.debug_ranges   0x00000000     0x4760
 *(.debug_ranges)
 .debug_ranges  0x00000000       0x10 c:/program files (x86)/microchip/xc32/v1.43/bin/bin/../../lib/gcc/pic32mx/4.8.3/../../../../pic32mx/lib\software-debug-break.o
 .debug_ranges  0x00000010       0x40 build/default/debug/_ext/639803181/sys_clk_pic32mx.o
 .debug_ranges  0x00000050       0x68 build/default/debug/_ext/340578644/sys_devcon.o
 .debug_ranges  0x000000b8       0x10 build/default/debug/_ext/340578644/sys_devcon_pic32mx.o
 .debug_ranges  0x000000c8      0x138 build/default/debug/_ext/822048611/sys_ports_static.o
 .debug_ranges  0x00000200       0x28 build/default/debug/_ext/68765530/sys_reset.o
 .debug_ranges  0x00000228       0x18 build/default/debug/_ext/1688732426/system_init.o
 .debug_ranges  0x00000240       0x28 build/default/debug/_ext/1688732426/system_interrupt.o
 .debug_ranges  0x00000268       0x10 build/default/debug/_ext/1688732426/system_exceptions.o
 .debug_ranges  0x00000278       0x10 build/default/debug/_ext/1688732426/system_tasks.o
 .debug_ranges  0x00000288       0x80 build/default/debug/_ext/1360937237/app.o
 .debug_ranges  0x00000308       0x10 build/default/debug/_ext/1360937237/main.o
 .debug_ranges  0x00000318       0x20 build/default/debug/_ext/1360937237/app_command.o
 .debug_ranges  0x00000338      0x268 build/default/debug/_ext/1749672254/drv_ethmac.o
 .debug_ranges  0x000005a0      0x3d8 build/default/debug/_ext/1749672254/drv_ethmac_lib.o
 .debug_ranges  0x00000978      0x2a0 build/default/debug/_ext/573518448/drv_ethphy.o
 .debug_ranges  0x00000c18       0x20 build/default/debug/_ext/573518448/drv_extphy_smsc8720.o
 .debug_ranges  0x00000c38      0x2b0 build/default/debug/_ext/1568515672/drv_miim.o
 .debug_ranges  0x00000ee8      0x258 build/default/debug/_ext/528688037/drv_tmr.o
 .debug_ranges  0x00001140      0x170 build/default/debug/_ext/427015431/drv_usart.o
 .debug_ranges  0x000012b0       0x58 build/default/debug/_ext/427015431/drv_usart_buffer_queue.o
 .debug_ranges  0x00001308       0x48 build/default/debug/_ext/427015431/drv_usart_read_write.o
 .debug_ranges  0x00001350      0x190 build/default/debug/_ext/2146114523/net_pres.o
 .debug_ranges  0x000014e0      0x1f8 build/default/debug/_ext/1167192164/sys_command.o
 .debug_ranges  0x000016d8       0x50 build/default/debug/_ext/710479984/sys_console.o
 .debug_ranges  0x00001728       0x80 build/default/debug/_ext/710479984/sys_console_uart.o
 .debug_ranges  0x000017a8       0x50 build/default/debug/_ext/429005716/sys_debug.o
 .debug_ranges  0x000017f8       0x50 build/default/debug/_ext/1670183176/sys_int_pic32.o
 .debug_ranges  0x00001848       0x28 build/default/debug/_ext/1584847572/sys_random.o
 .debug_ranges  0x00001870      0x148 build/default/debug/_ext/1482654414/sys_tmr.o
 .debug_ranges  0x000019b8       0x30 build/default/debug/_ext/157393855/helpers.o
 .debug_ranges  0x000019e8      0x1b0 build/default/debug/_ext/1836803193/ipv4.o
 .debug_ranges  0x00001b98      0x8d0 build/default/debug/_ext/1836803193/tcp.o
 .debug_ranges  0x00002468      0x530 build/default/debug/_ext/1836803193/udp.o
 .debug_ranges  0x00002998       0x68 build/default/debug/_ext/1836803193/tcpip_heap_alloc.o
 .debug_ranges  0x00002a00       0xe8 build/default/debug/_ext/1836803193/tcpip_heap_internal.o
 .debug_ranges  0x00002ae8      0x1d0 build/default/debug/_ext/1836803193/arp.o
 .debug_ranges  0x00002cb8      0x328 build/default/debug/_ext/1836803193/dhcp.o
 .debug_ranges  0x00002fe0      0x268 build/default/debug/_ext/1836803193/dns.o
 .debug_ranges  0x00003248       0x40 build/default/debug/_ext/1836803193/icmp.o
 .debug_ranges  0x00003288       0xb8 build/default/debug/_ext/1836803193/nbns.o
 .debug_ranges  0x00003340       0x10 build/default/debug/_ext/1836803193/zero_conf_helper.o
 .debug_ranges  0x00003350      0x120 build/default/debug/_ext/1836803193/zero_conf_link_local.o
 .debug_ranges  0x00003470       0xc8 build/default/debug/_ext/1836803193/tcpip_announce.o
 .debug_ranges  0x00003538      0x258 build/default/debug/_ext/1836803193/tcpip_commands.o
 .debug_ranges  0x00003790       0x18 build/default/debug/_ext/1836803193/hash_fnv.o
 .debug_ranges  0x000037a8       0x58 build/default/debug/_ext/1836803193/oahash.o
 .debug_ranges  0x00003800      0x418 build/default/debug/_ext/1836803193/tcpip_helpers.o
 .debug_ranges  0x00003c18      0x6b0 build/default/debug/_ext/1836803193/tcpip_manager.o
 .debug_ranges  0x000042c8       0x30 build/default/debug/_ext/1836803193/tcpip_notify.o
 .debug_ranges  0x000042f8       0x68 build/default/debug/_ext/1836803193/tcpip_packet.o
 .debug_ranges  0x00004360       0x98 c:/program files (x86)/microchip/xc32/v1.43/bin/bin/../../lib/gcc/pic32mx/4.8.3\libgcc.a(_udivdi3.o)
 .debug_ranges  0x000043f8       0x10 c:/program files (x86)/microchip/xc32/v1.43/bin/bin/../../lib/gcc/pic32mx/4.8.3/../../../../pic32mx/lib\libpic32.a(default-bootstrap-exception-handler.o)
 .debug_ranges  0x00004408       0x10 c:/program files (x86)/microchip/xc32/v1.43/bin/bin/../../lib/gcc/pic32mx/4.8.3/../../../../pic32mx/lib\libpic32.a(default-on-reset.o)
 .debug_ranges  0x00004418       0x10 c:/program files (x86)/microchip/xc32/v1.43/bin/bin/../../lib/gcc/pic32mx/4.8.3/../../../../pic32mx/lib\libpic32.a(default-on-bootstrap.o)
 .debug_ranges  0x00004428       0x10 c:/program files (x86)/microchip/xc32/v1.43/bin/bin/../../lib/gcc/pic32mx/4.8.3/../../../../pic32mx/lib\libpic32.a(defaultinterrupt.o)
 .debug_ranges  0x00004438       0x10 c:/program files (x86)/microchip/xc32/v1.43/bin/bin/../../lib/gcc/pic32mx/4.8.3/../../../../pic32mx/lib\libc.a(atoi.o)
 .debug_ranges  0x00004448       0x10 c:/program files (x86)/microchip/xc32/v1.43/bin/bin/../../lib/gcc/pic32mx/4.8.3/../../../../pic32mx/lib\libc.a(calloc.o)
 .debug_ranges  0x00004458       0x90 c:/program files (x86)/microchip/xc32/v1.43/bin/bin/../../lib/gcc/pic32mx/4.8.3/../../../../pic32mx/lib\libc.a(ctypef.o)
 .debug_ranges  0x000044e8       0x20 c:/program files (x86)/microchip/xc32/v1.43/bin/bin/../../lib/gcc/pic32mx/4.8.3/../../../../pic32mx/lib\libc.a(malloc.o)
 .debug_ranges  0x00004508       0x18 c:/program files (x86)/microchip/xc32/v1.43/bin/bin/../../lib/gcc/pic32mx/4.8.3/../../../../pic32mx/lib\libc.a(rand.o)
 .debug_ranges  0x00004520       0x10 c:/program files (x86)/microchip/xc32/v1.43/bin/bin/../../lib/gcc/pic32mx/4.8.3/../../../../pic32mx/lib\libc.a(strchr.o)
 .debug_ranges  0x00004530       0x10 c:/program files (x86)/microchip/xc32/v1.43/bin/bin/../../lib/gcc/pic32mx/4.8.3/../../../../pic32mx/lib\libc.a(strncpy.o)
 .debug_ranges  0x00004540       0x10 c:/program files (x86)/microchip/xc32/v1.43/bin/bin/../../lib/gcc/pic32mx/4.8.3/../../../../pic32mx/lib\libc.a(strstr.o)
 .debug_ranges  0x00004550       0x18 c:/program files (x86)/microchip/xc32/v1.43/bin/bin/../../lib/gcc/pic32mx/4.8.3/../../../../pic32mx/lib\libc.a(strtol.o)
 .debug_ranges  0x00004568       0x10 c:/program files (x86)/microchip/xc32/v1.43/bin/bin/../../lib/gcc/pic32mx/4.8.3/../../../../pic32mx/lib\libc.a(snprintf_cdnopsuxX.eo)
 .debug_ranges  0x00004578       0x10 c:/program files (x86)/microchip/xc32/v1.43/bin/bin/../../lib/gcc/pic32mx/4.8.3/../../../../pic32mx/lib\libc.a(sprintf_cdnopsuxX.eo)
 .debug_ranges  0x00004588       0x10 c:/program files (x86)/microchip/xc32/v1.43/bin/bin/../../lib/gcc/pic32mx/4.8.3/../../../../pic32mx/lib\libc.a(vsnprintf_cdnopsuxX.eo)
 .debug_ranges  0x00004598       0x10 c:/program files (x86)/microchip/xc32/v1.43/bin/bin/../../lib/gcc/pic32mx/4.8.3/../../../../pic32mx/lib\libc.a(vsnprintf.o)
 .debug_ranges  0x000045a8       0x10 c:/program files (x86)/microchip/xc32/v1.43/bin/bin/../../lib/gcc/pic32mx/4.8.3/../../../../pic32mx/lib\libc.a(strncmp.o)
 .debug_ranges  0x000045b8       0x10 c:/program files (x86)/microchip/xc32/v1.43/bin/bin/../../lib/gcc/pic32mx/4.8.3/../../../../pic32mx/lib\libc.a(doprnt_cdnopsuxX.eo)
 .debug_ranges  0x000045c8       0x20 c:/program files (x86)/microchip/xc32/v1.43/bin/bin/../../lib/gcc/pic32mx/4.8.3/../../../../pic32mx/lib\libc.a(doprnt.o)
 .debug_ranges  0x000045e8       0x10 c:/program files (x86)/microchip/xc32/v1.43/bin/bin/../../lib/gcc/pic32mx/4.8.3/../../../../pic32mx/lib\libc.a(_fputc_simple.o)
 .debug_ranges  0x000045f8       0x10 c:/program files (x86)/microchip/xc32/v1.43/bin/bin/../../lib/gcc/pic32mx/4.8.3/../../../../pic32mx/lib\libc.a(_flsbuf_simple.o)
 .debug_ranges  0x00004608       0x10 c:/program files (x86)/microchip/xc32/v1.43/bin/bin/../../lib/gcc/pic32mx/4.8.3/../../../../pic32mx/lib\libe.a(_fixunsdfdi.o)
 .debug_ranges  0x00004618       0x10 c:/program files (x86)/microchip/xc32/v1.43/bin/bin/../../lib/gcc/pic32mx/4.8.3/../../../../pic32mx/lib\libe.a(_orderdf2.o)
 .debug_ranges  0x00004628       0x10 c:/program files (x86)/microchip/xc32/v1.43/bin/bin/../../lib/gcc/pic32mx/4.8.3/../../../../pic32mx/lib\libe.a(_fixdfdi.o)
 .debug_ranges  0x00004638       0xd8 c:/program files (x86)/microchip/xc32/v1.43/bin/bin/../../lib/gcc/pic32mx/4.8.3\libgcc.a(_umoddi3.o)
 .debug_ranges  0x00004710       0x30 c:/program files (x86)/microchip/xc32/v1.43/bin/bin/../../lib/gcc/pic32mx/4.8.3/../../../../pic32mx/lib\libpic32.a(sbrk.o)
 .debug_ranges  0x00004740       0x10 c:/program files (x86)/microchip/xc32/v1.43/bin/bin/../../lib/gcc/pic32mx/4.8.3/../../../../pic32mx/lib\libpic32.a(write.o)
 .debug_ranges  0x00004750       0x10 c:/program files (x86)/microchip/xc32/v1.43/bin/bin/../../lib/gcc/pic32mx/4.8.3/../../../../pic32mx/lib\libpic32.a(_mon_putc.o)

.gnu.attributes
                0x00000000       0x10
 *(.gnu.attributes)
 .gnu.attributes
                0x00000000       0x10 c:/program files (x86)/microchip/xc32/v1.43/bin/bin/../../lib/gcc/pic32mx/4.8.3/../../../../pic32mx/lib\software-debug-break.o
 .gnu.attributes
                0x00000010       0x10 build/default/debug/_ext/1278673032/net_pres_enc_glue.o
 .gnu.attributes
                0x00000020       0x10 build/default/debug/_ext/639803181/sys_clk_pic32mx.o
 .gnu.attributes
                0x00000030       0x10 build/default/debug/_ext/340578644/sys_devcon.o
 .gnu.attributes
                0x00000040       0x10 build/default/debug/_ext/340578644/sys_devcon_pic32mx.o
 .gnu.attributes
                0x00000050       0x10 build/default/debug/_ext/822048611/sys_ports_static.o
 .gnu.attributes
                0x00000060       0x10 build/default/debug/_ext/68765530/sys_reset.o
 .gnu.attributes
                0x00000070       0x10 build/default/debug/_ext/1688732426/system_init.o
 .gnu.attributes
                0x00000080       0x10 build/default/debug/_ext/1688732426/system_interrupt.o
 .gnu.attributes
                0x00000090       0x10 build/default/debug/_ext/1688732426/system_exceptions.o
 .gnu.attributes
                0x000000a0       0x10 build/default/debug/_ext/1688732426/system_tasks.o
 .gnu.attributes
                0x000000b0       0x10 build/default/debug/_ext/1360937237/app.o
 .gnu.attributes
                0x000000c0       0x10 build/default/debug/_ext/1360937237/main.o
 .gnu.attributes
                0x000000d0       0x10 build/default/debug/_ext/1360937237/app_command.o
 .gnu.attributes
                0x000000e0       0x10 build/default/debug/_ext/1749672254/drv_ethmac.o
 .gnu.attributes
                0x000000f0       0x10 build/default/debug/_ext/1749672254/drv_ethmac_lib.o
 .gnu.attributes
                0x00000100       0x10 build/default/debug/_ext/573518448/drv_ethphy.o
 .gnu.attributes
                0x00000110       0x10 build/default/debug/_ext/573518448/drv_extphy_smsc8720.o
 .gnu.attributes
                0x00000120       0x10 build/default/debug/_ext/1568515672/drv_miim.o
 .gnu.attributes
                0x00000130       0x10 build/default/debug/_ext/528688037/drv_tmr.o
 .gnu.attributes
                0x00000140       0x10 build/default/debug/_ext/427015431/drv_usart.o
 .gnu.attributes
                0x00000150       0x10 build/default/debug/_ext/427015431/drv_usart_buffer_queue.o
 .gnu.attributes
                0x00000160       0x10 build/default/debug/_ext/427015431/drv_usart_read_write.o
 .gnu.attributes
                0x00000170       0x10 build/default/debug/_ext/2146114523/net_pres.o
 .gnu.attributes
                0x00000180       0x10 build/default/debug/_ext/1167192164/sys_command.o
 .gnu.attributes
                0x00000190       0x10 build/default/debug/_ext/710479984/sys_console.o
 .gnu.attributes
                0x000001a0       0x10 build/default/debug/_ext/710479984/sys_console_uart.o
 .gnu.attributes
                0x000001b0       0x10 build/default/debug/_ext/429005716/sys_debug.o
 .gnu.attributes
                0x000001c0       0x10 build/default/debug/_ext/1670183176/sys_int_pic32.o
 .gnu.attributes
                0x000001d0       0x10 build/default/debug/_ext/1584847572/sys_random.o
 .gnu.attributes
                0x000001e0       0x10 build/default/debug/_ext/1482654414/sys_tmr.o
 .gnu.attributes
                0x000001f0       0x10 build/default/debug/_ext/157393855/helpers.o
 .gnu.attributes
                0x00000200       0x10 build/default/debug/_ext/1836803193/ipv4.o
 .gnu.attributes
                0x00000210       0x10 build/default/debug/_ext/1836803193/tcp.o
 .gnu.attributes
                0x00000220       0x10 build/default/debug/_ext/1836803193/udp.o
 .gnu.attributes
                0x00000230       0x10 build/default/debug/_ext/1836803193/tcpip_heap_alloc.o
 .gnu.attributes
                0x00000240       0x10 build/default/debug/_ext/1836803193/tcpip_heap_internal.o
 .gnu.attributes
                0x00000250       0x10 build/default/debug/_ext/1836803193/arp.o
 .gnu.attributes
                0x00000260       0x10 build/default/debug/_ext/1836803193/dhcp.o
 .gnu.attributes
                0x00000270       0x10 build/default/debug/_ext/1836803193/dns.o
 .gnu.attributes
                0x00000280       0x10 build/default/debug/_ext/1836803193/icmp.o
 .gnu.attributes
                0x00000290       0x10 build/default/debug/_ext/1836803193/nbns.o
 .gnu.attributes
                0x000002a0       0x10 build/default/debug/_ext/1836803193/zero_conf_helper.o
 .gnu.attributes
                0x000002b0       0x10 build/default/debug/_ext/1836803193/zero_conf_link_local.o
 .gnu.attributes
                0x000002c0       0x10 build/default/debug/_ext/1836803193/tcpip_announce.o
 .gnu.attributes
                0x000002d0       0x10 build/default/debug/_ext/1836803193/tcpip_commands.o
 .gnu.attributes
                0x000002e0       0x10 build/default/debug/_ext/1836803193/hash_fnv.o
 .gnu.attributes
                0x000002f0       0x10 build/default/debug/_ext/1836803193/oahash.o
 .gnu.attributes
                0x00000300       0x10 build/default/debug/_ext/1836803193/tcpip_helpers.o
 .gnu.attributes
                0x00000310       0x10 build/default/debug/_ext/1836803193/tcpip_manager.o
 .gnu.attributes
                0x00000320       0x10 build/default/debug/_ext/1836803193/tcpip_notify.o
 .gnu.attributes
                0x00000330       0x10 build/default/debug/_ext/1836803193/tcpip_packet.o
 .gnu.attributes
                0x00000340       0x10 c:/program files (x86)/microchip/xc32/v1.43/bin/bin/../../lib/gcc/pic32mx/4.8.3\libgcc.a(_udivdi3.o)
 .gnu.attributes
                0x00000350       0x10 c:/program files (x86)/microchip/xc32/v1.43/bin/bin/../../lib/gcc/pic32mx/4.8.3/../../../../pic32mx/lib\libpic32.a(default-bootstrap-exception-handler.o)
 .gnu.attributes
                0x00000360       0x10 c:/program files (x86)/microchip/xc32/v1.43/bin/bin/../../lib/gcc/pic32mx/4.8.3/../../../../pic32mx/lib\libpic32.a(default-on-reset.o)
 .gnu.attributes
                0x00000370       0x10 c:/program files (x86)/microchip/xc32/v1.43/bin/bin/../../lib/gcc/pic32mx/4.8.3/../../../../pic32mx/lib\libpic32.a(default-on-bootstrap.o)
 .gnu.attributes
                0x00000380       0x10 c:/program files (x86)/microchip/xc32/v1.43/bin/bin/../../lib/gcc/pic32mx/4.8.3/../../../../pic32mx/lib\libpic32.a(defaultinterrupt.o)
 .gnu.attributes
                0x00000390       0x10 c:/program files (x86)/microchip/xc32/v1.43/bin/bin/../../lib/gcc/pic32mx/4.8.3/../../../../pic32mx/lib\libc.a(atoi.o)
 .gnu.attributes
                0x000003a0       0x10 c:/program files (x86)/microchip/xc32/v1.43/bin/bin/../../lib/gcc/pic32mx/4.8.3/../../../../pic32mx/lib\libc.a(calloc.o)
 .gnu.attributes
                0x000003b0       0x10 c:/program files (x86)/microchip/xc32/v1.43/bin/bin/../../lib/gcc/pic32mx/4.8.3/../../../../pic32mx/lib\libc.a(ctype.o)
 .gnu.attributes
                0x000003c0       0x10 c:/program files (x86)/microchip/xc32/v1.43/bin/bin/../../lib/gcc/pic32mx/4.8.3/../../../../pic32mx/lib\libc.a(ctypef.o)
 .gnu.attributes
                0x000003d0       0x10 c:/program files (x86)/microchip/xc32/v1.43/bin/bin/../../lib/gcc/pic32mx/4.8.3/../../../../pic32mx/lib\libc.a(malloc.o)
 .gnu.attributes
                0x000003e0       0x10 c:/program files (x86)/microchip/xc32/v1.43/bin/bin/../../lib/gcc/pic32mx/4.8.3/../../../../pic32mx/lib\libc.a(rand.o)
 .gnu.attributes
                0x000003f0       0x10 c:/program files (x86)/microchip/xc32/v1.43/bin/bin/../../lib/gcc/pic32mx/4.8.3/../../../../pic32mx/lib\libc.a(strchr.o)
 .gnu.attributes
                0x00000400       0x10 c:/program files (x86)/microchip/xc32/v1.43/bin/bin/../../lib/gcc/pic32mx/4.8.3/../../../../pic32mx/lib\libc.a(strncpy.o)
 .gnu.attributes
                0x00000410       0x10 c:/program files (x86)/microchip/xc32/v1.43/bin/bin/../../lib/gcc/pic32mx/4.8.3/../../../../pic32mx/lib\libc.a(strstr.o)
 .gnu.attributes
                0x00000420       0x10 c:/program files (x86)/microchip/xc32/v1.43/bin/bin/../../lib/gcc/pic32mx/4.8.3/../../../../pic32mx/lib\libc.a(strtol.o)
 .gnu.attributes
                0x00000430       0x10 c:/program files (x86)/microchip/xc32/v1.43/bin/bin/../../lib/gcc/pic32mx/4.8.3/../../../../pic32mx/lib\libc.a(snprintf_cdnopsuxX.eo)
 .gnu.attributes
                0x00000440       0x10 c:/program files (x86)/microchip/xc32/v1.43/bin/bin/../../lib/gcc/pic32mx/4.8.3/../../../../pic32mx/lib\libc.a(sprintf_cdnopsuxX.eo)
 .gnu.attributes
                0x00000450       0x10 c:/program files (x86)/microchip/xc32/v1.43/bin/bin/../../lib/gcc/pic32mx/4.8.3/../../../../pic32mx/lib\libc.a(vsnprintf_cdnopsuxX.eo)
 .gnu.attributes
                0x00000460       0x10 c:/program files (x86)/microchip/xc32/v1.43/bin/bin/../../lib/gcc/pic32mx/4.8.3/../../../../pic32mx/lib\libc.a(vsnprintf.o)
 .gnu.attributes
                0x00000470       0x10 c:/program files (x86)/microchip/xc32/v1.43/bin/bin/../../lib/gcc/pic32mx/4.8.3/../../../../pic32mx/lib\libc.a(errno.o)
 .gnu.attributes
                0x00000480       0x10 c:/program files (x86)/microchip/xc32/v1.43/bin/bin/../../lib/gcc/pic32mx/4.8.3/../../../../pic32mx/lib\libc.a(strncmp.o)
 .gnu.attributes
                0x00000490       0x10 c:/program files (x86)/microchip/xc32/v1.43/bin/bin/../../lib/gcc/pic32mx/4.8.3/../../../../pic32mx/lib\libc.a(doprnt_cdnopsuxX.eo)
 .gnu.attributes
                0x000004a0       0x10 c:/program files (x86)/microchip/xc32/v1.43/bin/bin/../../lib/gcc/pic32mx/4.8.3/../../../../pic32mx/lib\libc.a(doprnt.o)
 .gnu.attributes
                0x000004b0       0x10 c:/program files (x86)/microchip/xc32/v1.43/bin/bin/../../lib/gcc/pic32mx/4.8.3/../../../../pic32mx/lib\libc.a(_fputc_simple.o)
 .gnu.attributes
                0x000004c0       0x10 c:/program files (x86)/microchip/xc32/v1.43/bin/bin/../../lib/gcc/pic32mx/4.8.3/../../../../pic32mx/lib\libc.a(ldpowers.o)
 .gnu.attributes
                0x000004d0       0x10 c:/program files (x86)/microchip/xc32/v1.43/bin/bin/../../lib/gcc/pic32mx/4.8.3/../../../../pic32mx/lib\libc.a(_iob.o)
 .gnu.attributes
                0x000004e0       0x10 c:/program files (x86)/microchip/xc32/v1.43/bin/bin/../../lib/gcc/pic32mx/4.8.3/../../../../pic32mx/lib\libc.a(_flsbuf_simple.o)
 .gnu.attributes
                0x000004f0       0x10 c:/program files (x86)/microchip/xc32/v1.43/bin/bin/../../lib/gcc/pic32mx/4.8.3/../../../../pic32mx/lib\libe.a(_fixunsdfdi.o)
 .gnu.attributes
                0x00000500       0x10 c:/program files (x86)/microchip/xc32/v1.43/bin/bin/../../lib/gcc/pic32mx/4.8.3/../../../../pic32mx/lib\libe.a(_orderdf2.o)
 .gnu.attributes
                0x00000510       0x10 c:/program files (x86)/microchip/xc32/v1.43/bin/bin/../../lib/gcc/pic32mx/4.8.3/../../../../pic32mx/lib\libe.a(_fixdfdi.o)
 .gnu.attributes
                0x00000520       0x10 c:/program files (x86)/microchip/xc32/v1.43/bin/bin/../../lib/gcc/pic32mx/4.8.3\libgcc.a(_umoddi3.o)
 .gnu.attributes
                0x00000530       0x10 c:/program files (x86)/microchip/xc32/v1.43/bin/bin/../../lib/gcc/pic32mx/4.8.3\libgcc.a(floatunsidf.o)
 .gnu.attributes
                0x00000540       0x10 c:/program files (x86)/microchip/xc32/v1.43/bin/bin/../../lib/gcc/pic32mx/4.8.3/../../../../pic32mx/lib\libpic32.a(sbrk.o)
 .gnu.attributes
                0x00000550       0x10 c:/program files (x86)/microchip/xc32/v1.43/bin/bin/../../lib/gcc/pic32mx/4.8.3/../../../../pic32mx/lib\libpic32.a(write.o)
 .gnu.attributes
                0x00000560       0x10 c:/program files (x86)/microchip/xc32/v1.43/bin/bin/../../lib/gcc/pic32mx/4.8.3/../../../../pic32mx/lib\libpic32.a(_mon_putc.o)
 .gnu.attributes
                0x00000570       0x10 c:/program files (x86)/microchip/xc32/v1.43/bin/bin/../../lib/gcc/pic32mx/4.8.3/../../../../pic32mx/lib\libpic32.a(xc32_uart.o)
LOAD c:/program files (x86)/microchip/xc32/v1.43/bin/bin/../../lib/gcc/pic32mx/4.8.3\libgcc.a
START GROUP
LOAD c:/program files (x86)/microchip/xc32/v1.43/bin/bin/../../lib/gcc/pic32mx/4.8.3/../../../../pic32mx/lib\libpic32.a
LOAD c:/program files (x86)/microchip/xc32/v1.43/bin/bin/../../lib/gcc/pic32mx/4.8.3/../../../../pic32mx/lib\libdebug.a
LOAD c:/program files (x86)/microchip/xc32/v1.43/bin/bin/../../lib/gcc/pic32mx/4.8.3/../../../../pic32mx/lib\libpic32.a
LOAD c:/program files (x86)/microchip/xc32/v1.43/bin/bin/../../lib/gcc/pic32mx/4.8.3/../../../../pic32mx/lib\libc.a
LOAD c:/program files (x86)/microchip/xc32/v1.43/bin/bin/../../lib/gcc/pic32mx/4.8.3/../../../../pic32mx/lib\libc.a
LOAD c:/program files (x86)/microchip/xc32/v1.43/bin/bin/../../lib/gcc/pic32mx/4.8.3/../../../../pic32mx/lib\libm.a
LOAD c:/program files (x86)/microchip/xc32/v1.43/bin/bin/../../lib/gcc/pic32mx/4.8.3/../../../../pic32mx/lib\libe.a
LOAD c:/program files (x86)/microchip/xc32/v1.43/bin/bin/../../lib/gcc/pic32mx/4.8.3/../../../../pic32mx/lib\libdsp.a
LOAD c:/program files (x86)/microchip/xc32/v1.43/bin/bin/../../lib/gcc/pic32mx/4.8.3\libgcc.a
LOAD c:/program files (x86)/microchip/xc32/v1.43/bin/bin/../../lib/gcc/pic32mx/4.8.3/../../../../pic32mx/lib\libpic32.a
END GROUP
LOAD c:/program files (x86)/microchip/xc32/v1.43/bin/bin/../../lib/gcc/pic32mx/4.8.3\libgcc.a
OUTPUT(dist/default/debug/Ethernet.X.debug.elf elf32-tradlittlemips)
LOAD stack
LOAD data_init

.reginfo        0x00000000       0x18
 .reginfo       0x00000000       0x18 c:/program files (x86)/microchip/xc32/v1.43/bin/bin/../../lib/gcc/pic32mx/4.8.3/../../../../pic32mx/lib/./proc/32MX795F512H/crt0_mips32r2.o

.stack          0xa000cab8      0x400
 .stack         0xa000cab8      0x400 stack

.bss            0xa0000c7c      0x6c4
 .bss           0xa0000c7c      0x3a8 build/default/debug/_ext/1167192164/sys_command.o
 .bss           0xa0001024      0x31c build/default/debug/_ext/1836803193/tcpip_manager.o

.bss            0xa0001340      0x200
 .bss           0xa0001340      0x200 build/default/debug/_ext/710479984/sys_console_uart.o

.data           0xa0001540      0x1b8
 .data          0xa0001540      0x104 build/default/debug/_ext/1749672254/drv_ethmac.o
 .data          0xa0001644       0xb4 build/default/debug/_ext/710479984/sys_console_uart.o
                0xa0001644                consUartData
                0xa00016d4                consUsartDevDesc

.bss            0xa00016f8      0x128
 .bss           0xa00016f8       0x98 build/default/debug/_ext/1568515672/drv_miim.o
 .bss           0xa0001790       0x90 build/default/debug/_ext/1482654414/sys_tmr.o

.bss            0xa0001820       0xc4
 .bss           0xa0001820       0x70 build/default/debug/_ext/573518448/drv_ethphy.o
 .bss           0xa0001890       0x54 build/default/debug/_ext/1836803193/arp.o

.bss            0xa00018e4       0x80
 .bss           0xa00018e4       0x44 c:/program files (x86)/microchip/xc32/v1.43/bin/bin/../../lib/gcc/pic32mx/4.8.3/../../../../pic32mx/lib\libc.a(_iob.o)
                0xa00018e4                _sobuf
                0xa0001904                _sibuf
                0xa0001924                _outdone
 .bss           0xa0001928       0x3c build/default/debug/_ext/528688037/drv_tmr.o

.bss            0xa0001964       0x5c
 .bss           0xa0001964       0x34 build/default/debug/_ext/1836803193/tcpip_commands.o
 .bss           0xa0001998       0x28 build/default/debug/_ext/1836803193/dns.o

.data           0xa00019c0       0x28
 .data          0xa00019c0       0x28 build/default/debug/_ext/1836803193/tcpip_helpers.o

.bss            0xa00019e8       0x44
 .bss           0xa00019e8       0x24 c:/program files (x86)/microchip/xc32/v1.43/bin/bin/../../lib/gcc/pic32mx/4.8.3/../../../../pic32mx/lib\libpic32.a(sbrk.o)
                0xa0001a04                _maxbrk
                0xa0001a08                _minbrk
 .bss           0xa0001a0c       0x20 build/default/debug/_ext/1836803193/ipv4.o

.bss            0xa0001a2c       0x40
 .bss           0xa0001a2c       0x20 build/default/debug/_ext/1836803193/tcpip_announce.o
 .bss           0xa0001a4c       0x20 c:/program files (x86)/microchip/xc32/v1.43/bin/bin/../../lib/gcc/pic32mx/4.8.3/../../../../pic32mx/lib\libc.a(malloc.o)
                0xa0001a4c                __allocx
                0xa0001a54                __alloct
                0xa0001a58                __allocp
                0xa0001a5c                __allocs

.data           0xa0001a6c       0x1c
 .data          0xa0001a6c       0x1c build/default/debug/_ext/1688732426/system_init.o
                0xa0001a6c                tcpipHeapConfig

.bss            0xa0001a88       0x30
 .bss           0xa0001a88       0x18 build/default/debug/_ext/710479984/sys_console.o
 .bss           0xa0001aa0       0x18 build/default/debug/_ext/1584847572/sys_random.o

.bss            0xa0001ab8       0x20
 .bss           0xa0001ab8       0x10 build/default/debug/_ext/1836803193/tcpip_heap_alloc.o
 .bss           0xa0001ac8       0x10 build/default/debug/_ext/1836803193/dhcp.o

.bss            0xa0001ad8       0x1c
 .bss           0xa0001ad8       0x10 c:/program files (x86)/microchip/xc32/v1.43/bin/bin/../../lib/gcc/pic32mx/4.8.3/../../../../pic32mx/lib\libc.a(rand.o)
 .bss           0xa0001ae8        0xc build/default/debug/_ext/1688732426/system_init.o
                0xa0001ae8                debugInit

.bss.errno      0xa0001af4        0x4
 .bss.errno     0xa0001af4        0x4 c:/program files (x86)/microchip/xc32/v1.43/bin/bin/../../lib/gcc/pic32mx/4.8.3/../../../../pic32mx/lib\libc.a(errno.o)
                0xa0001af4                errno

.text.vfprintf  0x9d000000     0x1c64
 .text.vfprintf
                0x9d000000     0x1c64 c:/program files (x86)/microchip/xc32/v1.43/bin/bin/../../lib/gcc/pic32mx/4.8.3/../../../../pic32mx/lib\libc.a(doprnt.o)
                0x9d000000                vfprintf

.rodata         0x9d001c64     0x1c18
 .rodata        0x9d001c64     0x1c18 build/default/debug/_ext/1836803193/tcpip_commands.o

.text.TCPIP_TCP_Task
                0x9d00387c     0x1510
 .text.TCPIP_TCP_Task
                0x9d00387c     0x1510 build/default/debug/_ext/1836803193/tcp.o
                0x9d00387c                TCPIP_TCP_Task

.text._vfprintf_cdnopsuxX
                0x9d004d8c      0xc8c
 .text._vfprintf_cdnopsuxX
                0x9d004d8c      0xc8c c:/program files (x86)/microchip/xc32/v1.43/bin/bin/../../lib/gcc/pic32mx/4.8.3/../../../../pic32mx/lib\libc.a(doprnt_cdnopsuxX.eo)
                0x9d004d8c                _vfprintf_0
                0x9d004d8c                _vfprintf_s
                0x9d004d8c                _vfprintf_cdnopsuxX
                0x9d004d8c                _vfprintf_cdnopuxX

.text.TCPIP_STACK_Task
                0x9d005a18      0x8e4
 .text.TCPIP_STACK_Task
                0x9d005a18      0x8e4 build/default/debug/_ext/1836803193/tcpip_manager.o
                0x9d005a18                TCPIP_STACK_Task

.text._Command_DNS_Service
                0x9d0062fc      0x8c4
 .text._Command_DNS_Service
                0x9d0062fc      0x8c4 build/default/debug/_ext/1836803193/tcpip_commands.o

.text._TcpSend  0x9d006bc0      0x828
 .text._TcpSend
                0x9d006bc0      0x828 build/default/debug/_ext/1836803193/tcp.o

.text.TCPIP_DHCP_Task
                0x9d0073e8      0x7c4
 .text.TCPIP_DHCP_Task
                0x9d0073e8      0x7c4 build/default/debug/_ext/1836803193/dhcp.o
                0x9d0073e8                TCPIP_DHCP_Task

.text.DRV_ETHMAC_PIC32MACInitialize
                0x9d007bac      0x728
 .text.DRV_ETHMAC_PIC32MACInitialize
                0x9d007bac      0x728 build/default/debug/_ext/1749672254/drv_ethmac.o
                0x9d007bac                DRV_ETHMAC_PIC32MACInitialize

.text.TCPIP_ZCLL_Task
                0x9d0082d4      0x604
 .text.TCPIP_ZCLL_Task
                0x9d0082d4      0x604 build/default/debug/_ext/1836803193/zero_conf_link_local.o
                0x9d0082d4                TCPIP_ZCLL_Task

.text.TCPIP_STACK_Initialize
                0x9d0088d8      0x5a0
 .text.TCPIP_STACK_Initialize
                0x9d0088d8      0x5a0 build/default/debug/_ext/1836803193/tcpip_manager.o
                0x9d0088d8                TCPIP_STACK_Initialize

.text.TCPIP_ARP_Task
                0x9d008e78      0x548
 .text.TCPIP_ARP_Task
                0x9d008e78      0x548 build/default/debug/_ext/1836803193/arp.o
                0x9d008e78                TCPIP_ARP_Task

.rodata         0x9d0093c0      0x530
 .rodata        0x9d0093c0      0x530 build/default/debug/_ext/1836803193/tcpip_manager.o

.dinit          0x9d0098f0      0x520
 .dinit         0x9d0098f0      0x520 data_init

.text.NET_PRES_Initialize
                0x9d009e10      0x514
 .text.NET_PRES_Initialize
                0x9d009e10      0x514 build/default/debug/_ext/2146114523/net_pres.o
                0x9d009e10                NET_PRES_Initialize

.text.SYS_CMD_Tasks
                0x9d00a324      0x4f0
 .text.SYS_CMD_Tasks
                0x9d00a324      0x4f0 build/default/debug/_ext/1167192164/sys_command.o
                0x9d00a324                SYS_CMD_Tasks

.text.TCPIP_TCP_FifoSizeAdjust
                0x9d00a814      0x4cc
 .text.TCPIP_TCP_FifoSizeAdjust
                0x9d00a814      0x4cc build/default/debug/_ext/1836803193/tcp.o
                0x9d00a814                TCPIP_TCP_FifoSizeAdjust

.text.dp32mul   0x9d00ace0      0x4b8
 .text.dp32mul  0x9d00ace0      0x4b8 c:/program files (x86)/microchip/xc32/v1.43/bin/bin/../../lib/gcc/pic32mx/4.8.3/../../../../pic32mx/lib\libm.a(dp32div.o)
                0x9d00ace0                dpdiv
                0x9d00ace0                __divdf3

.text.APP_Tasks
                0x9d00b198      0x488
 .text.APP_Tasks
                0x9d00b198      0x488 build/default/debug/_ext/1360937237/app.o
                0x9d00b198                APP_Tasks

.text.TCPIP_COMMAND_Task
                0x9d00b620      0x464
 .text.TCPIP_COMMAND_Task
                0x9d00b620      0x464 build/default/debug/_ext/1836803193/tcpip_commands.o
                0x9d00b620                TCPIP_COMMAND_Task

.text           0x9d00ba84      0x8bc
 .text          0x9d00ba84      0x464 c:/program files (x86)/microchip/xc32/v1.43/bin/bin/../../lib/gcc/pic32mx/4.8.3\libgcc.a(_umoddi3.o)
                0x9d00ba84                __umoddi3
 .text          0x9d00bee8      0x458 c:/program files (x86)/microchip/xc32/v1.43/bin/bin/../../lib/gcc/pic32mx/4.8.3\libgcc.a(_udivdi3.o)
                0x9d00bee8                __udivdi3

.text._CommandArp
                0x9d00c340      0x434
 .text._CommandArp
                0x9d00c340      0x434 build/default/debug/_ext/1836803193/tcpip_commands.o

.text.dp32subadd
                0x9d00c774      0x430
 .text.dp32subadd
                0x9d00c774      0x430 c:/program files (x86)/microchip/xc32/v1.43/bin/bin/../../lib/gcc/pic32mx/4.8.3/../../../../pic32mx/lib\libm.a(dp32subadd.o)
                0x9d00c774                dpsub
                0x9d00c774                __subdf3
                0x9d00c77c                __adddf3
                0x9d00c77c                dpadd

.text._CommandMiim
                0x9d00cba4      0x420
 .text._CommandMiim
                0x9d00cba4      0x420 build/default/debug/_ext/1836803193/tcpip_commands.o

.text.TCPIP_Helper_StringToIPv6Address
                0x9d00cfc4      0x3e8
 .text.TCPIP_Helper_StringToIPv6Address
                0x9d00cfc4      0x3e8 build/default/debug/_ext/1836803193/tcpip_helpers.o
                0x9d00cfc4                TCPIP_Helper_StringToIPv6Address

.text._DNS_Send_Query
                0x9d00d3ac      0x3cc
 .text._DNS_Send_Query
                0x9d00d3ac      0x3cc build/default/debug/_ext/1836803193/dns.o

.text._Command_HeapInfo
                0x9d00d778      0x3c4
 .text._Command_HeapInfo
                0x9d00d778      0x3c4 build/default/debug/_ext/1836803193/tcpip_commands.o

.text.TCPIP_DNS_ClientInitialize
                0x9d00db3c      0x3bc
 .text.TCPIP_DNS_ClientInitialize
                0x9d00db3c      0x3bc build/default/debug/_ext/1836803193/dns.o
                0x9d00db3c                TCPIP_DNS_ClientInitialize

.rodata         0x9d00def8      0x398
 .rodata        0x9d00def8      0x398 build/default/debug/_ext/1688732426/system_init.o
                0x9d00def8                TCPIP_STACK_MODULE_CONFIG_TBL
                0x9d00dfc8                TCPIP_HOSTS_CONFIGURATION
                0x9d00e000                tcpipDNSClientInitData
                0x9d00e018                tcpipZCLLInitData
                0x9d00e018                tcpipMACPIC32INTInitData
                0x9d00e038                tcpipPhyInitData
                0x9d00e05c                tcpipDHCPInitData
                0x9d00e05c                tcpipICMPInitData
                0x9d00e05c                tcpipNBNSInitData
                0x9d00e06c                tcpipTCPInitData
                0x9d00e074                tcpipUDPInitData
                0x9d00e07c                tcpipARPInitData
                0x9d00e07c                tcpipAnnounceInitData
                0x9d00e0a4                sysTmrInitData
                0x9d00e224                drvUsart0InitData
                0x9d00e26c                drvTmr0InitData

.text.DRV_MIIM_Tasks
                0x9d00e290      0x398
 .text.DRV_MIIM_Tasks
                0x9d00e290      0x398 build/default/debug/_ext/1568515672/drv_miim.o
                0x9d00e290                DRV_MIIM_Tasks

.text.Console_UART_Tasks
                0x9d00e628      0x394
 .text.Console_UART_Tasks
                0x9d00e628      0x394 build/default/debug/_ext/710479984/sys_console_uart.o
                0x9d00e628                Console_UART_Tasks

.text._CommandDhcpOptions
                0x9d00e9bc      0x388
 .text._CommandDhcpOptions
                0x9d00e9bc      0x388 build/default/debug/_ext/1836803193/tcpip_commands.o

.text.TCPIP_ARP_Initialize
                0x9d00ed44      0x380
 .text.TCPIP_ARP_Initialize
                0x9d00ed44      0x380 build/default/debug/_ext/1836803193/arp.o
                0x9d00ed44                TCPIP_ARP_Initialize

.text.TCPIP_STACK_BringNetUp
                0x9d00f0c4      0x378
 .text.TCPIP_STACK_BringNetUp
                0x9d00f0c4      0x378 build/default/debug/_ext/1836803193/tcpip_manager.o

.text._TCP_Open
                0x9d00f43c      0x36c
 .text._TCP_Open
                0x9d00f43c      0x36c build/default/debug/_ext/1836803193/tcp.o

.text._Command_NetInfo
                0x9d00f7a8      0x36c
 .text._Command_NetInfo
                0x9d00f7a8      0x36c build/default/debug/_ext/1836803193/tcpip_commands.o

.text._DHCPReceive
                0x9d00fb14      0x348
 .text._DHCPReceive
                0x9d00fb14      0x348 build/default/debug/_ext/1836803193/dhcp.o

.text.TCPIP_NBNS_Task
                0x9d00fe5c      0x330
 .text.TCPIP_NBNS_Task
                0x9d00fe5c      0x330 build/default/debug/_ext/1836803193/nbns.o
                0x9d00fe5c                TCPIP_NBNS_Task

.text.dp32mul   0x9d01018c      0x32c
 .text.dp32mul  0x9d01018c      0x32c c:/program files (x86)/microchip/xc32/v1.43/bin/bin/../../lib/gcc/pic32mx/4.8.3/../../../../pic32mx/lib\libm.a(dp32mul.o)
                0x9d01018c                __muldf3
                0x9d01018c                dpmul

.text.TCPIP_UDP_Task
                0x9d0104b8      0x328
 .text.TCPIP_UDP_Task
                0x9d0104b8      0x328 build/default/debug/_ext/1836803193/udp.o
                0x9d0104b8                TCPIP_UDP_Task

.text._DHCPSend
                0x9d0107e0      0x31c
 .text._DHCPSend
                0x9d0107e0      0x31c build/default/debug/_ext/1836803193/dhcp.o

.text.TCPIP_UDP_Flush
                0x9d010afc      0x314
 .text.TCPIP_UDP_Flush
                0x9d010afc      0x314 build/default/debug/_ext/1836803193/udp.o
                0x9d010afc                TCPIP_UDP_Flush

.text.ParseCmdBuffer
                0x9d010e10      0x30c
 .text.ParseCmdBuffer
                0x9d010e10      0x30c build/default/debug/_ext/1167192164/sys_command.o

.text.SYS_TMR_Tasks
                0x9d01111c      0x308
 .text.SYS_TMR_Tasks
                0x9d01111c      0x308 build/default/debug/_ext/1482654414/sys_tmr.o
                0x9d01111c                SYS_TMR_Tasks

.text.TCPIP_IPV4_PacketTransmit
                0x9d011424      0x2e8
 .text.TCPIP_IPV4_PacketTransmit
                0x9d011424      0x2e8 build/default/debug/_ext/1836803193/ipv4.o
                0x9d011424                TCPIP_IPV4_PacketTransmit

.text.CommandHelp
                0x9d01170c      0x2dc
 .text.CommandHelp
                0x9d01170c      0x2dc build/default/debug/_ext/1167192164/sys_command.o

.text._DNS_ProcessPacket
                0x9d0119e8      0x2dc
 .text._DNS_ProcessPacket
                0x9d0119e8      0x2dc build/default/debug/_ext/1836803193/dns.o

.text.TCPIP_UDP_OptionsSet
                0x9d011cc4      0x2cc
 .text.TCPIP_UDP_OptionsSet
                0x9d011cc4      0x2cc build/default/debug/_ext/1836803193/udp.o
                0x9d011cc4                TCPIP_UDP_OptionsSet

.text.TCPIP_IPV4_Task
                0x9d011f90      0x2c0
 .text.TCPIP_IPV4_Task
                0x9d011f90      0x2c0 build/default/debug/_ext/1836803193/ipv4.o
                0x9d011f90                TCPIP_IPV4_Task

.text.DRV_USART_BufferAddWrite
                0x9d012250      0x2b0
 .text.DRV_USART_BufferAddWrite
                0x9d012250      0x2b0 build/default/debug/_ext/427015431/drv_usart_buffer_queue.o
                0x9d012250                DRV_USART_BufferAddWrite

.text.TCPIP_IPV4_PacketFormatTx
                0x9d012500      0x2ac
 .text.TCPIP_IPV4_PacketFormatTx
                0x9d012500      0x2ac build/default/debug/_ext/1836803193/ipv4.o
                0x9d012500                TCPIP_IPV4_PacketFormatTx

.text.TCPIP_ANNOUNCE_Send
                0x9d0127ac      0x2a8
 .text.TCPIP_ANNOUNCE_Send
                0x9d0127ac      0x2a8 build/default/debug/_ext/1836803193/tcpip_announce.o

.text._TCPIP_HEAP_Free
                0x9d012a54      0x2a0
 .text._TCPIP_HEAP_Free
                0x9d012a54      0x2a0 build/default/debug/_ext/1836803193/tcpip_heap_internal.o

.text.TCPIP_TCP_ArrayPut
                0x9d012cf4      0x29c
 .text.TCPIP_TCP_ArrayPut
                0x9d012cf4      0x29c build/default/debug/_ext/1836803193/tcp.o
                0x9d012cf4                TCPIP_TCP_ArrayPut

.text.malloc    0x9d012f90      0x28c
 .text.malloc   0x9d012f90      0x28c c:/program files (x86)/microchip/xc32/v1.43/bin/bin/../../lib/gcc/pic32mx/4.8.3/../../../../pic32mx/lib\libc.a(malloc.o)
                0x9d012f90                malloc

.text.DRV_ETHMAC_PIC32MACParametersGet
                0x9d01321c      0x288
 .text.DRV_ETHMAC_PIC32MACParametersGet
                0x9d01321c      0x288 build/default/debug/_ext/1749672254/drv_ethmac.o
                0x9d01321c                DRV_ETHMAC_PIC32MACParametersGet

.text._Command_MacInfo
                0x9d0134a4      0x284
 .text._Command_MacInfo
                0x9d0134a4      0x284 build/default/debug/_ext/1836803193/tcpip_commands.o

.text.DRV_USART_BufferAddRead
                0x9d013728      0x27c
 .text.DRV_USART_BufferAddRead
                0x9d013728      0x27c build/default/debug/_ext/427015431/drv_usart_buffer_queue.o
                0x9d013728                DRV_USART_BufferAddRead

.rodata         0x9d0139a4      0x264
 .rodata        0x9d0139a4      0x264 build/default/debug/_ext/1167192164/sys_command.o
                0x9d013be0                sysConsoleApi

.text.DRV_USART_Read
                0x9d013c08      0x260
 .text.DRV_USART_Read
                0x9d013c08      0x260 build/default/debug/_ext/427015431/drv_usart_read_write.o
                0x9d013c08                DRV_USART_Read

.text           0x9d013e68      0x25c
 .text          0x9d013e68      0x25c build/default/debug/_ext/1836803193/tcpip_helper_c32.o
                0x9d013e68                TCPIP_Helper_htonl
                0x9d013e74                TCPIP_Helper_htons
                0x9d013e80                TCPIP_Helper_htonll
                0x9d013e94                TCPIP_Helper_CalcIPChecksum

.text.DRV_ETHMAC_PIC32MACPacketRx
                0x9d0140c4      0x24c
 .text.DRV_ETHMAC_PIC32MACPacketRx
                0x9d0140c4      0x24c build/default/debug/_ext/1749672254/drv_ethmac.o
                0x9d0140c4                DRV_ETHMAC_PIC32MACPacketRx

.text._UDPOpen  0x9d014310      0x244
 .text._UDPOpen
                0x9d014310      0x244 build/default/debug/_ext/1836803193/udp.o

.text._DHCPOptionHostName
                0x9d014554      0x244
 .text._DHCPOptionHostName
                0x9d014554      0x244 build/default/debug/_ext/1836803193/dhcp.o

.text.TCPIP_DHCP_Initialize
                0x9d014798      0x244
 .text.TCPIP_DHCP_Initialize
                0x9d014798      0x244 build/default/debug/_ext/1836803193/dhcp.o
                0x9d014798                TCPIP_DHCP_Initialize

.text.TCPIP_DNS_EntryQuery
                0x9d0149dc      0x240
 .text.TCPIP_DNS_EntryQuery
                0x9d0149dc      0x240 build/default/debug/_ext/1836803193/dns.o
                0x9d0149dc                TCPIP_DNS_EntryQuery

.text.scale     0x9d014c1c      0x23c
 .text.scale    0x9d014c1c      0x23c c:/program files (x86)/microchip/xc32/v1.43/bin/bin/../../lib/gcc/pic32mx/4.8.3/../../../../pic32mx/lib\libc.a(doprnt.o)

.text.TCPIP_UDP_Bind
                0x9d014e58      0x22c
 .text.TCPIP_UDP_Bind
                0x9d014e58      0x22c build/default/debug/_ext/1836803193/udp.o
                0x9d014e58                TCPIP_UDP_Bind

.text.DRV_ETHMAC_LibRxBuffersAppend
                0x9d015084      0x21c
 .text.DRV_ETHMAC_LibRxBuffersAppend
                0x9d015084      0x21c build/default/debug/_ext/1749672254/drv_ethmac_lib.o
                0x9d015084                DRV_ETHMAC_LibRxBuffersAppend

.rodata         0x9d0152a0      0x218
 .rodata        0x9d0152a0      0x218 build/default/debug/_ext/427015431/drv_usart.o

.text._Command_AddressService
                0x9d0154b8      0x218
 .text._Command_AddressService
                0x9d0154b8      0x218 build/default/debug/_ext/1836803193/tcpip_commands.o

.text._DRV_USART_BufferQueueTxTasks
                0x9d0156d0      0x210
 .text._DRV_USART_BufferQueueTxTasks
                0x9d0156d0      0x210 build/default/debug/_ext/427015431/drv_usart.o
                0x9d0156d0                _DRV_USART_BufferQueueTxTasks

.text._Command_StackOnOff
                0x9d0158e0      0x208
 .text._Command_StackOnOff
                0x9d0158e0      0x208 build/default/debug/_ext/1836803193/tcpip_commands.o

.text._Command_NetworkOnOff
                0x9d015ae8      0x1fc
 .text._Command_NetworkOnOff
                0x9d015ae8      0x1fc build/default/debug/_ext/1836803193/tcpip_commands.o

.text._LoadNetworkConfig
                0x9d015ce4      0x1fc
 .text._LoadNetworkConfig
                0x9d015ce4      0x1fc build/default/debug/_ext/1836803193/tcpip_manager.o

.text._DRV_USART_HardwareSetup
                0x9d015ee0      0x1ec
 .text._DRV_USART_HardwareSetup
                0x9d015ee0      0x1ec build/default/debug/_ext/427015431/drv_usart.o
                0x9d015ee0                _DRV_USART_HardwareSetup

.text._Command_IPAddressSet
                0x9d0160cc      0x1e0
 .text._Command_IPAddressSet
                0x9d0160cc      0x1e0 build/default/debug/_ext/1836803193/tcpip_commands.o

.text._DNS_IsNameResolved
                0x9d0162ac      0x1dc
 .text._DNS_IsNameResolved
                0x9d0162ac      0x1dc build/default/debug/_ext/1836803193/dns.o

.text.TCPIP_ANNOUNCE_Initialize
                0x9d016488      0x1dc
 .text.TCPIP_ANNOUNCE_Initialize
                0x9d016488      0x1dc build/default/debug/_ext/1836803193/tcpip_announce.o
                0x9d016488                TCPIP_ANNOUNCE_Initialize

.text._DNS_RESPONSE_HashEntryUpdate
                0x9d016664      0x1d8
 .text._DNS_RESPONSE_HashEntryUpdate
                0x9d016664      0x1d8 build/default/debug/_ext/1836803193/dns.o

.text.DRV_ETHMAC_PIC32MACPacketTx
                0x9d01683c      0x1d4
 .text.DRV_ETHMAC_PIC32MACPacketTx
                0x9d01683c      0x1d4 build/default/debug/_ext/1749672254/drv_ethmac.o
                0x9d01683c                DRV_ETHMAC_PIC32MACPacketTx

.text.strtoul   0x9d016a10      0x1d4
 .text.strtoul  0x9d016a10      0x1d4 c:/program files (x86)/microchip/xc32/v1.43/bin/bin/../../lib/gcc/pic32mx/4.8.3/../../../../pic32mx/lib\libc.a(strtol.o)
                0x9d016a10                strtoul

.text._DRV_ETHMAC_AddRxBuffers
                0x9d016be4      0x1d0
 .text._DRV_ETHMAC_AddRxBuffers
                0x9d016be4      0x1d0 build/default/debug/_ext/1749672254/drv_ethmac.o

.text.TCPIP_DNS_ClientTask
                0x9d016db4      0x1d0
 .text.TCPIP_DNS_ClientTask
                0x9d016db4      0x1d0 build/default/debug/_ext/1836803193/dns.o
                0x9d016db4                TCPIP_DNS_ClientTask

.text.TCPIP_Helper_StringToIPAddress
                0x9d016f84      0x1cc
 .text.TCPIP_Helper_StringToIPAddress
                0x9d016f84      0x1cc build/default/debug/_ext/1836803193/tcpip_helpers.o
                0x9d016f84                TCPIP_Helper_StringToIPAddress

.text.fround    0x9d017150      0x1cc
 .text.fround   0x9d017150      0x1cc c:/program files (x86)/microchip/xc32/v1.43/bin/bin/../../lib/gcc/pic32mx/4.8.3/../../../../pic32mx/lib\libc.a(doprnt.o)

.text.TCPIP_UDP_OptionsGet
                0x9d01731c      0x1c8
 .text.TCPIP_UDP_OptionsGet
                0x9d01731c      0x1c8 build/default/debug/_ext/1836803193/udp.o
                0x9d01731c                TCPIP_UDP_OptionsGet

.text.TCPIP_ARP_EntryRemoveNet
                0x9d0174e4      0x1c8
 .text.TCPIP_ARP_EntryRemoveNet
                0x9d0174e4      0x1c8 build/default/debug/_ext/1836803193/arp.o
                0x9d0174e4                TCPIP_ARP_EntryRemoveNet

.rodata         0x9d0176ac      0x1c4
 .rodata        0x9d0176ac      0x1c4 build/default/debug/_ext/1360937237/app.o

.text._DRV_MIIM_ClientDeallocate
                0x9d017870      0x1c4
 .text._DRV_MIIM_ClientDeallocate
                0x9d017870      0x1c4 build/default/debug/_ext/1568515672/drv_miim.o

.text.DRV_USART_Initialize
                0x9d017a34      0x1c0
 .text.DRV_USART_Initialize
                0x9d017a34      0x1c0 build/default/debug/_ext/427015431/drv_usart.o
                0x9d017a34                DRV_USART_Initialize

.text._EthAckPacket
                0x9d017bf4      0x1bc
 .text._EthAckPacket
                0x9d017bf4      0x1bc build/default/debug/_ext/1749672254/drv_ethmac_lib.o

.text._DRV_ETHPHY_SetupPhaseDetect
                0x9d017db0      0x1bc
 .text._DRV_ETHPHY_SetupPhaseDetect
                0x9d017db0      0x1bc build/default/debug/_ext/573518448/drv_ethphy.o

.text._DNS_Resolve
                0x9d017f6c      0x1b0
 .text._DNS_Resolve
                0x9d017f6c      0x1b0 build/default/debug/_ext/1836803193/dns.o

.text.SYS_Initialize
                0x9d01811c      0x1ac
 .text.SYS_Initialize
                0x9d01811c      0x1ac build/default/debug/_ext/1688732426/system_init.o
                0x9d01811c                SYS_Initialize

.text._DRV_MIIM_StartOp
                0x9d0182c8      0x1ac
 .text._DRV_MIIM_StartOp
                0x9d0182c8      0x1ac build/default/debug/_ext/1568515672/drv_miim.o

.text.TCPIP_UDP_ArrayGet
                0x9d018474      0x1ac
 .text.TCPIP_UDP_ArrayGet
                0x9d018474      0x1ac build/default/debug/_ext/1836803193/udp.o
                0x9d018474                TCPIP_UDP_ArrayGet

.text.DRV_TMR_Initialize
                0x9d018620      0x1a4
 .text.DRV_TMR_Initialize
                0x9d018620      0x1a4 build/default/debug/_ext/528688037/drv_tmr.o
                0x9d018620                DRV_TMR_Initialize

.text._DNS_GetAddresses
                0x9d0187c4      0x1a4
 .text._DNS_GetAddresses
                0x9d0187c4      0x1a4 build/default/debug/_ext/1836803193/dns.o

.text           0x9d018968      0x1a0
 .text          0x9d018968      0x1a0 c:/program files (x86)/microchip/xc32/v1.43/bin/bin/../../lib/gcc/pic32mx/4.8.3/../../../../pic32mx/lib\libpic32.a(strcpy.o)
                0x9d018968                strcpy

.text.strtol    0x9d018b08      0x19c
 .text.strtol   0x9d018b08      0x19c c:/program files (x86)/microchip/xc32/v1.43/bin/bin/../../lib/gcc/pic32mx/4.8.3/../../../../pic32mx/lib\libc.a(strtol.o)
                0x9d018b08                strtol

.text.DRV_EXTPHY_MDIXConfigure
                0x9d018ca4      0x198
 .text.DRV_EXTPHY_MDIXConfigure
                0x9d018ca4      0x198 build/default/debug/_ext/573518448/drv_extphy_smsc8720.o

.text.TCPIP_TCP_OptionsSet
                0x9d018e3c      0x198
 .text.TCPIP_TCP_OptionsSet
                0x9d018e3c      0x198 build/default/debug/_ext/1836803193/tcp.o
                0x9d018e3c                TCPIP_TCP_OptionsSet

.text.TCPIP_UDP_Deinitialize
                0x9d018fd4      0x198
 .text.TCPIP_UDP_Deinitialize
                0x9d018fd4      0x198 build/default/debug/_ext/1836803193/udp.o
                0x9d018fd4                TCPIP_UDP_Deinitialize

.text._ARPProbeAddress
                0x9d01916c      0x198
 .text._ARPProbeAddress
                0x9d01916c      0x198 build/default/debug/_ext/1836803193/arp.o

.text.DRV_ETHMAC_LibRxGetPacket
                0x9d019304      0x194
 .text.DRV_ETHMAC_LibRxGetPacket
                0x9d019304      0x194 build/default/debug/_ext/1749672254/drv_ethmac_lib.o
                0x9d019304                DRV_ETHMAC_LibRxGetPacket

.text._TCPIP_HEAP_Malloc
                0x9d019498      0x194
 .text._TCPIP_HEAP_Malloc
                0x9d019498      0x194 build/default/debug/_ext/1836803193/tcpip_heap_internal.o

.text._sbrk_init
                0x9d01962c      0x194
 .text._sbrk_init
                0x9d01962c      0x194 c:/program files (x86)/microchip/xc32/v1.43/bin/bin/../../lib/gcc/pic32mx/4.8.3/../../../../pic32mx/lib\libpic32.a(sbrk.o)
                0x9d01962c                _sbrk_init

.text._SYS_TMR_ClientCreate
                0x9d0197c0      0x18c
 .text._SYS_TMR_ClientCreate
                0x9d0197c0      0x18c build/default/debug/_ext/1482654414/sys_tmr.o

.text.TCPIP_TCP_ArrayGet
                0x9d01994c      0x18c
 .text.TCPIP_TCP_ArrayGet
                0x9d01994c      0x18c build/default/debug/_ext/1836803193/tcp.o
                0x9d01994c                TCPIP_TCP_ArrayGet

.text.DRV_USART_Open
                0x9d019ad8      0x188
 .text.DRV_USART_Open
                0x9d019ad8      0x188 build/default/debug/_ext/427015431/drv_usart.o
                0x9d019ad8                DRV_USART_Open

.text.DRV_MIIM_Setup
                0x9d019c60      0x184
 .text.DRV_MIIM_Setup
                0x9d019c60      0x184 build/default/debug/_ext/1568515672/drv_miim.o
                0x9d019c60                DRV_MIIM_Setup

.text._CommandMiimOp
                0x9d019de4      0x184
 .text._CommandMiimOp
                0x9d019de4      0x184 build/default/debug/_ext/1836803193/tcpip_commands.o

.text._DRV_PHY_SMITransferDo
                0x9d019f68      0x178
 .text._DRV_PHY_SMITransferDo
                0x9d019f68      0x178 build/default/debug/_ext/573518448/drv_ethphy.o

.text._ZeroconfARPPktNotify
                0x9d01a0e0      0x178
 .text._ZeroconfARPPktNotify
                0x9d01a0e0      0x178 build/default/debug/_ext/1836803193/zero_conf_link_local.o

.text.DRV_ETHMAC_LibRxAcknowledgeBuffer
                0x9d01a258      0x174
 .text.DRV_ETHMAC_LibRxAcknowledgeBuffer
                0x9d01a258      0x174 build/default/debug/_ext/1749672254/drv_ethmac_lib.o
                0x9d01a258                DRV_ETHMAC_LibRxAcknowledgeBuffer

.text._DRV_USART_BufferQueueRxTasks
                0x9d01a3cc      0x174
 .text._DRV_USART_BufferQueueRxTasks
                0x9d01a3cc      0x174 build/default/debug/_ext/427015431/drv_usart.o
                0x9d01a3cc                _DRV_USART_BufferQueueRxTasks

.text.TCPIP_TCP_Initialize
                0x9d01a540      0x174
 .text.TCPIP_TCP_Initialize
                0x9d01a540      0x174 build/default/debug/_ext/1836803193/tcp.o
                0x9d01a540                TCPIP_TCP_Initialize

.text._DRV_ETHPHY_NegResultPhase_ANAD
                0x9d01a6b4      0x170
 .text._DRV_ETHPHY_NegResultPhase_ANAD
                0x9d01a6b4      0x170 build/default/debug/_ext/573518448/drv_ethphy.o

.text           0x9d01a824      0x2d0
 .text          0x9d01a824      0x168 c:/program files (x86)/microchip/xc32/v1.43/bin/bin/../../lib/gcc/pic32mx/4.8.3/../../../../pic32mx/lib\libpic32.a(memcpy.o)
                0x9d01a824                memcpy
 .text          0x9d01a98c      0x168 c:/program files (x86)/microchip/xc32/v1.43/bin/bin/../../lib/gcc/pic32mx/4.8.3/../../../../pic32mx/lib\libpic32.a(strlen.o)
                0x9d01a98c                strlen

.text.TCPIP_HEAP_CreateInternal
                0x9d01aaf4      0x164
 .text.TCPIP_HEAP_CreateInternal
                0x9d01aaf4      0x164 build/default/debug/_ext/1836803193/tcpip_heap_internal.o
                0x9d01aaf4                TCPIP_HEAP_CreateInternal

.text._DHCPStartOperation
                0x9d01ac58      0x164
 .text._DHCPStartOperation
                0x9d01ac58      0x164 build/default/debug/_ext/1836803193/dhcp.o

.text._DHCPProcessReceiveData
                0x9d01adbc      0x164
 .text._DHCPProcessReceiveData
                0x9d01adbc      0x164 build/default/debug/_ext/1836803193/dhcp.o

.text.TCPIP_Helper_IPv6AddressToString
                0x9d01af20      0x164
 .text.TCPIP_Helper_IPv6AddressToString
                0x9d01af20      0x164 build/default/debug/_ext/1836803193/tcpip_helpers.o
                0x9d01af20                TCPIP_Helper_IPv6AddressToString

.text.TCPIP_IPV4_SelectSourceInterface
                0x9d01b084      0x160
 .text.TCPIP_IPV4_SelectSourceInterface
                0x9d01b084      0x160 build/default/debug/_ext/1836803193/ipv4.o
                0x9d01b084                TCPIP_IPV4_SelectSourceInterface

.rodata         0x9d01b1e8      0x160
 .rodata        0x9d01b1e8      0x160 c:/program files (x86)/microchip/xc32/v1.43/bin/bin/../../lib/gcc/pic32mx/4.8.3/../../../../pic32mx/lib\libc.a(ldpowers.o)
                0x9d01b1e8                _npowers_
                0x9d01b298                _powers_

.text.TCPIP_TCP_OptionsGet
                0x9d01b348      0x15c
 .text.TCPIP_TCP_OptionsGet
                0x9d01b348      0x15c build/default/debug/_ext/1836803193/tcp.o
                0x9d01b348                TCPIP_TCP_OptionsGet

.text.DRV_ETHMAC_PIC32MACTasks
                0x9d01b4a4      0x158
 .text.DRV_ETHMAC_PIC32MACTasks
                0x9d01b4a4      0x158 build/default/debug/_ext/1749672254/drv_ethmac.o
                0x9d01b4a4                DRV_ETHMAC_PIC32MACTasks

.text.DRV_ETHMAC_LibTxSendPacket
                0x9d01b5fc      0x158
 .text.DRV_ETHMAC_LibTxSendPacket
                0x9d01b5fc      0x158 build/default/debug/_ext/1749672254/drv_ethmac_lib.o
                0x9d01b5fc                DRV_ETHMAC_LibTxSendPacket

.text.NET_PRES_Tasks
                0x9d01b754      0x158
 .text.NET_PRES_Tasks
                0x9d01b754      0x158 build/default/debug/_ext/2146114523/net_pres.o
                0x9d01b754                NET_PRES_Tasks

.text.TCPIP_TCP_Bind
                0x9d01b8ac      0x158
 .text.TCPIP_TCP_Bind
                0x9d01b8ac      0x158 build/default/debug/_ext/1836803193/tcp.o
                0x9d01b8ac                TCPIP_TCP_Bind

.rodata         0x9d01ba04      0x154
 .rodata        0x9d01ba04      0x154 build/default/debug/_ext/1688732426/system_exceptions.o

.text._ARPSendIfPkt
                0x9d01bb58      0x154
 .text._ARPSendIfPkt
                0x9d01bb58      0x154 build/default/debug/_ext/1836803193/arp.o

.text._IntHandlerDrvUsartInstance0
                0x9d01bcac      0x150
 .text._IntHandlerDrvUsartInstance0
                0x9d01bcac      0x150 build/default/debug/_ext/1688732426/system_interrupt.o
                0x9d01bcac                _IntHandlerDrvUsartInstance0

.text._MACDeinit
                0x9d01bdfc      0x150
 .text._MACDeinit
                0x9d01bdfc      0x150 build/default/debug/_ext/1749672254/drv_ethmac.o

.text._TcpDisconnect
                0x9d01bf4c      0x150
 .text._TcpDisconnect
                0x9d01bf4c      0x150 build/default/debug/_ext/1836803193/tcp.o

.text.TCPIP_UDP_Initialize
                0x9d01c09c      0x150
 .text.TCPIP_UDP_Initialize
                0x9d01c09c      0x150 build/default/debug/_ext/1836803193/udp.o
                0x9d01c09c                TCPIP_UDP_Initialize

.text.TCPIP_UDP_OpenServerSkt
                0x9d01c1ec      0x14c
 .text.TCPIP_UDP_OpenServerSkt
                0x9d01c1ec      0x14c build/default/debug/_ext/1836803193/udp.o
                0x9d01c1ec                TCPIP_UDP_OpenServerSkt

.text.DRV_ETHMAC_PIC32MACEventMaskSet
                0x9d01c338      0x148
 .text.DRV_ETHMAC_PIC32MACEventMaskSet
                0x9d01c338      0x148 build/default/debug/_ext/1749672254/drv_ethmac.o
                0x9d01c338                DRV_ETHMAC_PIC32MACEventMaskSet

.text._EthAppendBusyList
                0x9d01c480      0x148
 .text._EthAppendBusyList
                0x9d01c480      0x148 build/default/debug/_ext/1749672254/drv_ethmac_lib.o

.text.DRV_ETHPHY_Setup
                0x9d01c5c8      0x148
 .text.DRV_ETHPHY_Setup
                0x9d01c5c8      0x148 build/default/debug/_ext/573518448/drv_ethphy.o
                0x9d01c5c8                DRV_ETHPHY_Setup

.text.DRV_MIIM_OperationResult
                0x9d01c710      0x148
 .text.DRV_MIIM_OperationResult
                0x9d01c710      0x148 build/default/debug/_ext/1568515672/drv_miim.o
                0x9d01c710                DRV_MIIM_OperationResult

.text._TcpCloseSocket
                0x9d01c858      0x148
 .text._TcpCloseSocket
                0x9d01c858      0x148 build/default/debug/_ext/1836803193/tcp.o

.text.fputc     0x9d01c9a0      0x144
 .text.fputc    0x9d01c9a0      0x144 c:/program files (x86)/microchip/xc32/v1.43/bin/bin/../../lib/gcc/pic32mx/4.8.3/../../../../pic32mx/lib\libc.a(_fputc_simple.o)
                0x9d01c9a0                fputc

.rodata         0x9d01cae4      0x140
 .rodata        0x9d01cae4      0x140 build/default/debug/_ext/573518448/drv_ethphy.o
                0x9d01cb20                DRV_ETHPHY_OBJECT_BASE_Default

.text._DRV_ETHPHY_SetupPhaseReset
                0x9d01cc24      0x140
 .text._DRV_ETHPHY_SetupPhaseReset
                0x9d01cc24      0x140 build/default/debug/_ext/573518448/drv_ethphy.o

.text.DisplayNodeMsg
                0x9d01cd64      0x140
 .text.DisplayNodeMsg
                0x9d01cd64      0x140 build/default/debug/_ext/1167192164/sys_command.o

.text._UDPv4TxAckFnc
                0x9d01cea4      0x140
 .text._UDPv4TxAckFnc
                0x9d01cea4      0x140 build/default/debug/_ext/1836803193/udp.o

.text.TCPIP_ICMP_Task
                0x9d01cfe4      0x140
 .text.TCPIP_ICMP_Task
                0x9d01cfe4      0x140 build/default/debug/_ext/1836803193/icmp.o
                0x9d01cfe4                TCPIP_ICMP_Task

.text.IntHandlerDrvTmrInstance0
                0x9d01d124      0x134
 .text.IntHandlerDrvTmrInstance0
                0x9d01d124      0x134 build/default/debug/_ext/1688732426/system_interrupt.o
                0x9d01d124                IntHandlerDrvTmrInstance0

.text._Command_GatewayAddressSet
                0x9d01d258      0x134
 .text._Command_GatewayAddressSet
                0x9d01d258      0x134 build/default/debug/_ext/1836803193/tcpip_commands.o

.text.TCPIP_Helper_StringToMACAddress
                0x9d01d38c      0x134
 .text.TCPIP_Helper_StringToMACAddress
                0x9d01d38c      0x134 build/default/debug/_ext/1836803193/tcpip_helpers.o
                0x9d01d38c                TCPIP_Helper_StringToMACAddress

.text.TCPIP_STACK_NetUp
                0x9d01d4c0      0x134
 .text.TCPIP_STACK_NetUp
                0x9d01d4c0      0x134 build/default/debug/_ext/1836803193/tcpip_manager.o
                0x9d01d4c0                TCPIP_STACK_NetUp

.text._IntHandler_ETHMAC
                0x9d01d5f4      0x130
 .text._IntHandler_ETHMAC
                0x9d01d5f4      0x130 build/default/debug/_ext/1688732426/system_interrupt.o
                0x9d01d5f4                _IntHandler_ETHMAC

.text._ARPDeleteResources
                0x9d01d724      0x130
 .text._ARPDeleteResources
                0x9d01d724      0x130 build/default/debug/_ext/1836803193/arp.o

.text._Command_MACAddressSet
                0x9d01d854      0x130
 .text._Command_MACAddressSet
                0x9d01d854      0x130 build/default/debug/_ext/1836803193/tcpip_commands.o

.text.DRV_ETHMAC_LibDescriptorsPoolAdd
                0x9d01d984      0x12c
 .text.DRV_ETHMAC_LibDescriptorsPoolAdd
                0x9d01d984      0x12c build/default/debug/_ext/1749672254/drv_ethmac_lib.o
                0x9d01d984                DRV_ETHMAC_LibDescriptorsPoolAdd

.text.DRV_TMR_AlarmRegister
                0x9d01dab0      0x12c
 .text.DRV_TMR_AlarmRegister
                0x9d01dab0      0x12c build/default/debug/_ext/528688037/drv_tmr.o
                0x9d01dab0                DRV_TMR_AlarmRegister

.text.TCPIP_STACK_KillStack
                0x9d01dbdc      0x12c
 .text.TCPIP_STACK_KillStack
                0x9d01dbdc      0x12c build/default/debug/_ext/1836803193/tcpip_manager.o

.text._flsbuf   0x9d01dd08      0x12c
 .text._flsbuf  0x9d01dd08      0x12c c:/program files (x86)/microchip/xc32/v1.43/bin/bin/../../lib/gcc/pic32mx/4.8.3/../../../../pic32mx/lib\libc.a(_flsbuf_simple.o)
                0x9d01dd08                _flsbuf

.text.dpcmp     0x9d01de34      0x12c
 .text.dpcmp    0x9d01de34      0x12c c:/program files (x86)/microchip/xc32/v1.43/bin/bin/../../lib/gcc/pic32mx/4.8.3/../../../../pic32mx/lib\libm.a(dpcmp.o)
                0x9d01de34                __ltdf2
                0x9d01de34                __gedf2
                0x9d01de34                dpcmp
                0x9d01de34                __ledf2
                0x9d01de34                __nedf2
                0x9d01de34                __eqdf2
                0x9d01de34                __gtdf2

.text.DRV_MIIM_Open
                0x9d01df60      0x128
 .text.DRV_MIIM_Open
                0x9d01df60      0x128 build/default/debug/_ext/1568515672/drv_miim.o
                0x9d01df60                DRV_MIIM_Open

.rodata         0x9d01e088      0x124
 .rodata        0x9d01e088      0x124 build/default/debug/_ext/1749672254/drv_ethmac.o
                0x9d01e154                DRV_ETHMAC_PIC32MACObject

.text._Tcpv4TxAckFnc
                0x9d01e1ac      0x124
 .text._Tcpv4TxAckFnc
                0x9d01e1ac      0x124 build/default/debug/_ext/1836803193/tcp.o

.text._OAHashFindBkt
                0x9d01e2d0      0x124
 .text._OAHashFindBkt
                0x9d01e2d0      0x124 build/default/debug/_ext/1836803193/oahash.o

.text.DRV_ETHMAC_PIC32MACRxFilterHashTableEntrySet
                0x9d01e3f4      0x120
 .text.DRV_ETHMAC_PIC32MACRxFilterHashTableEntrySet
                0x9d01e3f4      0x120 build/default/debug/_ext/1749672254/drv_ethmac.o
                0x9d01e3f4                DRV_ETHMAC_PIC32MACRxFilterHashTableEntrySet

.text.TCPIP_Helper_PacketCopy
                0x9d01e514      0x120
 .text.TCPIP_Helper_PacketCopy
                0x9d01e514      0x120 build/default/debug/_ext/1836803193/tcpip_helpers.o
                0x9d01e514                TCPIP_Helper_PacketCopy

.text           0x9d01e634      0x120
 .text          0x9d01e634      0x120 c:/program files (x86)/microchip/xc32/v1.43/bin/bin/../../lib/gcc/pic32mx/4.8.3/../../../../pic32mx/lib\libpic32.a(strcmp.o)
                0x9d01e634                strcmp

.text.DRV_USART_BaudSet
                0x9d01e754      0x11c
 .text.DRV_USART_BaudSet
                0x9d01e754      0x11c build/default/debug/_ext/427015431/drv_usart.o
                0x9d01e754                DRV_USART_BaudSet

.text.TCPIP_IPV4_ArpHandler
                0x9d01e870      0x11c
 .text.TCPIP_IPV4_ArpHandler
                0x9d01e870      0x11c build/default/debug/_ext/1836803193/ipv4.o

.text._GetMaxSegSizeOption
                0x9d01e98c      0x11c
 .text._GetMaxSegSizeOption
                0x9d01e98c      0x11c build/default/debug/_ext/1836803193/tcp.o

.text.TCPIP_UDP_RemoteBind
                0x9d01eaa8      0x11c
 .text.TCPIP_UDP_RemoteBind
                0x9d01eaa8      0x11c build/default/debug/_ext/1836803193/udp.o
                0x9d01eaa8                TCPIP_UDP_RemoteBind

.text.TCPIP_ARP_IsResolved
                0x9d01ebc4      0x11c
 .text.TCPIP_ARP_IsResolved
                0x9d01ebc4      0x11c build/default/debug/_ext/1836803193/arp.o
                0x9d01ebc4                TCPIP_ARP_IsResolved

.text._DHCPSetLeaseTimeParams
                0x9d01ece0      0x118
 .text._DHCPSetLeaseTimeParams
                0x9d01ece0      0x118 build/default/debug/_ext/1836803193/dhcp.o

.text.DRV_ETHMAC_PIC32MACStatisticsGet
                0x9d01edf8      0x114
 .text.DRV_ETHMAC_PIC32MACStatisticsGet
                0x9d01edf8      0x114 build/default/debug/_ext/1749672254/drv_ethmac.o
                0x9d01edf8                DRV_ETHMAC_PIC32MACStatisticsGet

.text.TCPIP_ARP_EntryQuery
                0x9d01ef0c      0x114
 .text.TCPIP_ARP_EntryQuery
                0x9d01ef0c      0x114 build/default/debug/_ext/1836803193/arp.o
                0x9d01ef0c                TCPIP_ARP_EntryQuery

.text._Command_PrimaryDNSAddressSet
                0x9d01f020      0x114
 .text._Command_PrimaryDNSAddressSet
                0x9d01f020      0x114 build/default/debug/_ext/1836803193/tcpip_commands.o

.text.TCPIP_Helper_PacketChecksum
                0x9d01f134      0x114
 .text.TCPIP_Helper_PacketChecksum
                0x9d01f134      0x114 build/default/debug/_ext/1836803193/tcpip_helpers.o
                0x9d01f134                TCPIP_Helper_PacketChecksum

.text._DRV_ETHPHY_SetupPhaseNegotiate_SubPhase3
                0x9d01f248      0x110
 .text._DRV_ETHPHY_SetupPhaseNegotiate_SubPhase3
                0x9d01f248      0x110 build/default/debug/_ext/573518448/drv_ethphy.o

.text._MacRxPacketAck
                0x9d01f358      0x10c
 .text._MacRxPacketAck
                0x9d01f358      0x10c build/default/debug/_ext/1749672254/drv_ethmac.o

.text.SYS_CMD_ADDGRP
                0x9d01f464      0x10c
 .text.SYS_CMD_ADDGRP
                0x9d01f464      0x10c build/default/debug/_ext/1167192164/sys_command.o
                0x9d01f464                SYS_CMD_ADDGRP

.text.TCPIP_DHCP_InfoGet
                0x9d01f570      0x10c
 .text.TCPIP_DHCP_InfoGet
                0x9d01f570      0x10c build/default/debug/_ext/1836803193/dhcp.o
                0x9d01f570                TCPIP_DHCP_InfoGet

.text._UDPv4AllocateSktTxBuffer
                0x9d01f67c      0x108
 .text._UDPv4AllocateSktTxBuffer
                0x9d01f67c      0x108 build/default/debug/_ext/1836803193/udp.o

.text._TcpSocketSetIdleState
                0x9d01f784      0x104
 .text._TcpSocketSetIdleState
                0x9d01f784      0x104 build/default/debug/_ext/1836803193/tcp.o

.text._DNS_ValidateIf
                0x9d01f888      0x104
 .text._DNS_ValidateIf
                0x9d01f888      0x104 build/default/debug/_ext/1836803193/dns.o

.rodata         0x9d01f98c      0x104
 .rodata        0x9d01f98c      0x104 c:/program files (x86)/microchip/xc32/v1.43/bin/bin/../../lib/gcc/pic32mx/4.8.3/../../../../pic32mx/lib\libc.a(ctype.o)
                0x9d01f98c                _ctype

.text.DRV_MIIM_Initialize
                0x9d01fa90      0x100
 .text.DRV_MIIM_Initialize
                0x9d01fa90      0x100 build/default/debug/_ext/1568515672/drv_miim.o
                0x9d01fa90                DRV_MIIM_Initialize

.text.TCPIP_TCP_ServerOpen
                0x9d01fb90      0x100
 .text.TCPIP_TCP_ServerOpen
                0x9d01fb90      0x100 build/default/debug/_ext/1836803193/tcp.o
                0x9d01fb90                TCPIP_TCP_ServerOpen

.text._DHCPEnable
                0x9d01fc90      0x100
 .text._DHCPEnable
                0x9d01fc90      0x100 build/default/debug/_ext/1836803193/dhcp.o

.text.DRV_ETHMAC_Tasks_ISR
                0x9d01fd90       0xf8
 .text.DRV_ETHMAC_Tasks_ISR
                0x9d01fd90       0xf8 build/default/debug/_ext/1749672254/drv_ethmac.o
                0x9d01fd90                DRV_ETHMAC_Tasks_ISR

.text._DRV_ETHPHY_SetupPhaseIdle
                0x9d01fe88       0xf8
 .text._DRV_ETHPHY_SetupPhaseIdle
                0x9d01fe88       0xf8 build/default/debug/_ext/573518448/drv_ethphy.o

.text.Console_UART_Write
                0x9d01ff80       0xf8
 .text.Console_UART_Write
                0x9d01ff80       0xf8 build/default/debug/_ext/710479984/sys_console_uart.o
                0x9d01ff80                Console_UART_Write

.text._UDPsetPacketInfo
                0x9d020078       0xf8
 .text._UDPsetPacketInfo
                0x9d020078       0xf8 build/default/debug/_ext/1836803193/udp.o

.text._TCPIP_StackSyncFunction
                0x9d020170       0xf8
 .text._TCPIP_StackSyncFunction
                0x9d020170       0xf8 build/default/debug/_ext/1836803193/tcpip_manager.o

.text.DRV_ETHMAC_LibMACOpen
                0x9d020268       0xf0
 .text.DRV_ETHMAC_LibMACOpen
                0x9d020268       0xf0 build/default/debug/_ext/1749672254/drv_ethmac_lib.o
                0x9d020268                DRV_ETHMAC_LibMACOpen

.text.TCPIP_UDP_Disconnect
                0x9d020358       0xf0
 .text.TCPIP_UDP_Disconnect
                0x9d020358       0xf0 build/default/debug/_ext/1836803193/udp.o
                0x9d020358                TCPIP_UDP_Disconnect

.text._DHCPClientClose
                0x9d020448       0xf0
 .text._DHCPClientClose
                0x9d020448       0xf0 build/default/debug/_ext/1836803193/dhcp.o

.text._Command_TcpInfo
                0x9d020538       0xf0
 .text._Command_TcpInfo
                0x9d020538       0xf0 build/default/debug/_ext/1836803193/tcpip_commands.o

.text.DRV_ETHMAC_PIC32MACProcess
                0x9d020628       0xec
 .text.DRV_ETHMAC_PIC32MACProcess
                0x9d020628       0xec build/default/debug/_ext/1749672254/drv_ethmac.o
                0x9d020628                DRV_ETHMAC_PIC32MACProcess

.text._DRV_ETHPHY_SetupPhaseNegotiate_SubPhase0
                0x9d020714       0xec
 .text._DRV_ETHPHY_SetupPhaseNegotiate_SubPhase0
                0x9d020714       0xec build/default/debug/_ext/573518448/drv_ethphy.o

.text.SYS_TMR_SystemCountGet
                0x9d020800       0xec
 .text.SYS_TMR_SystemCountGet
                0x9d020800       0xec build/default/debug/_ext/1482654414/sys_tmr.o
                0x9d020800                SYS_TMR_SystemCountGet

.text.TCPIP_IPV4_DeInitialize
                0x9d0208ec       0xec
 .text.TCPIP_IPV4_DeInitialize
                0x9d0208ec       0xec build/default/debug/_ext/1836803193/ipv4.o
                0x9d0208ec                TCPIP_IPV4_DeInitialize

.text._DRV_TMR_ClockSourceSet
                0x9d0209d8       0xe8
 .text._DRV_TMR_ClockSourceSet
                0x9d0209d8       0xe8 build/default/debug/_ext/528688037/drv_tmr.o

.text._SYS_TMR_ClientParamSet
                0x9d020ac0       0xe8
 .text._SYS_TMR_ClientParamSet
                0x9d020ac0       0xe8 build/default/debug/_ext/1482654414/sys_tmr.o

.text._DHCPPacketFilter
                0x9d020ba8       0xe8
 .text._DHCPPacketFilter
                0x9d020ba8       0xe8 build/default/debug/_ext/1836803193/dhcp.o

.text.__fixdfdi
                0x9d020c90       0xe8
 .text.__fixdfdi
                0x9d020c90       0xe8 c:/program files (x86)/microchip/xc32/v1.43/bin/bin/../../lib/gcc/pic32mx/4.8.3/../../../../pic32mx/lib\libe.a(_fixdfdi.o)
                0x9d020c90                __fixdfdi

.text.TCPIP_IPV4_MacPacketSwitchTxToRx
                0x9d020d78       0xe4
 .text.TCPIP_IPV4_MacPacketSwitchTxToRx
                0x9d020d78       0xe4 build/default/debug/_ext/1836803193/ipv4.o
                0x9d020d78                TCPIP_IPV4_MacPacketSwitchTxToRx

.text.TCPIP_TCP_ArrayPeek
                0x9d020e5c       0xe4
 .text.TCPIP_TCP_ArrayPeek
                0x9d020e5c       0xe4 build/default/debug/_ext/1836803193/tcp.o
                0x9d020e5c                TCPIP_TCP_ArrayPeek

.text.TCPIP_NBNS_Initialize
                0x9d020f40       0xe4
 .text.TCPIP_NBNS_Initialize
                0x9d020f40       0xe4 build/default/debug/_ext/1836803193/nbns.o
                0x9d020f40                TCPIP_NBNS_Initialize

.text.SYS_DEVCON_PerformanceConfig
                0x9d021024       0xe0
 .text.SYS_DEVCON_PerformanceConfig
                0x9d021024       0xe0 build/default/debug/_ext/340578644/sys_devcon_pic32mx.o
                0x9d021024                SYS_DEVCON_PerformanceConfig

.text._APP_ParseUrl
                0x9d021104       0xe0
 .text._APP_ParseUrl
                0x9d021104       0xe0 build/default/debug/_ext/1360937237/app.o
                0x9d021104                _APP_ParseUrl

.text.DRV_ETHMAC_LibInit
                0x9d0211e4       0xe0
 .text.DRV_ETHMAC_LibInit
                0x9d0211e4       0xe0 build/default/debug/_ext/1749672254/drv_ethmac_lib.o
                0x9d0211e4                DRV_ETHMAC_LibInit

.text._DRV_ETHPHY_NegCompletePhaseAN_Restart
                0x9d0212c4       0xe0
 .text._DRV_ETHPHY_NegCompletePhaseAN_Restart
                0x9d0212c4       0xe0 build/default/debug/_ext/573518448/drv_ethphy.o

.text._TcpAbort
                0x9d0213a4       0xe0
 .text._TcpAbort
                0x9d0213a4       0xe0 build/default/debug/_ext/1836803193/tcp.o

.text.TCPIP_OAHASH_EntryLookup
                0x9d021484       0xe0
 .text.TCPIP_OAHASH_EntryLookup
                0x9d021484       0xe0 build/default/debug/_ext/1836803193/oahash.o
                0x9d021484                TCPIP_OAHASH_EntryLookup

.text.TCPIP_STACK_AddressServiceEvent
                0x9d021564       0xe0
 .text.TCPIP_STACK_AddressServiceEvent
                0x9d021564       0xe0 build/default/debug/_ext/1836803193/tcpip_manager.o
                0x9d021564                TCPIP_STACK_AddressServiceEvent

.text.TCPIP_STACK_BringNetDown
                0x9d021644       0xe0
 .text.TCPIP_STACK_BringNetDown
                0x9d021644       0xe0 build/default/debug/_ext/1836803193/tcpip_manager.o

.text.SYS_CMD_DELETE
                0x9d021724       0xdc
 .text.SYS_CMD_DELETE
                0x9d021724       0xdc build/default/debug/_ext/1167192164/sys_command.o
                0x9d021724                SYS_CMD_DELETE

.text.TCPIP_TCP_SocketInfoGet
                0x9d021800       0xdc
 .text.TCPIP_TCP_SocketInfoGet
                0x9d021800       0xdc build/default/debug/_ext/1836803193/tcp.o
                0x9d021800                TCPIP_TCP_SocketInfoGet

.text.TCPIP_ARP_CacheEntriesNoGet
                0x9d0218dc       0xdc
 .text.TCPIP_ARP_CacheEntriesNoGet
                0x9d0218dc       0xdc build/default/debug/_ext/1836803193/arp.o
                0x9d0218dc                TCPIP_ARP_CacheEntriesNoGet

.text.TCPIP_DHCP_ConnectionHandler
                0x9d0219b8       0xdc
 .text.TCPIP_DHCP_ConnectionHandler
                0x9d0219b8       0xdc build/default/debug/_ext/1836803193/dhcp.o
                0x9d0219b8                TCPIP_DHCP_ConnectionHandler

.text._Command_BIOSNameSet
                0x9d021a94       0xdc
 .text._Command_BIOSNameSet
                0x9d021a94       0xdc build/default/debug/_ext/1836803193/tcpip_commands.o

.text._Command_DefaultInterfaceSet
                0x9d021b70       0xdc
 .text._Command_DefaultInterfaceSet
                0x9d021b70       0xdc build/default/debug/_ext/1836803193/tcpip_commands.o

.text._TCPIP_PKT_PacketAlloc
                0x9d021c4c       0xdc
 .text._TCPIP_PKT_PacketAlloc
                0x9d021c4c       0xdc build/default/debug/_ext/1836803193/tcpip_packet.o
                0x9d021c4c                _TCPIP_PKT_PacketAlloc

.text.general_exception
                0x9d021d28       0xdc
 .text.general_exception
                0x9d021d28       0xdc c:/program files (x86)/microchip/xc32/v1.43/bin/bin/../../lib/gcc/pic32mx/4.8.3/../../../../pic32mx/lib\libpic32.a(general-exception.o)
                0x9d021d28                _general_exception_context

.text.DRV_TMR_CounterFrequencyGet
                0x9d021e04       0xd8
 .text.DRV_TMR_CounterFrequencyGet
                0x9d021e04       0xd8 build/default/debug/_ext/528688037/drv_tmr.o
                0x9d021e04                DRV_TMR_CounterFrequencyGet

.text.SYS_CMD_Initialize
                0x9d021edc       0xd8
 .text.SYS_CMD_Initialize
                0x9d021edc       0xd8 build/default/debug/_ext/1167192164/sys_command.o
                0x9d021edc                SYS_CMD_Initialize

.text.TCPIP_TCP_Deinitialize
                0x9d021fb4       0xd8
 .text.TCPIP_TCP_Deinitialize
                0x9d021fb4       0xd8 build/default/debug/_ext/1836803193/tcp.o
                0x9d021fb4                TCPIP_TCP_Deinitialize

.text._TCPIP_HEAP_MaxSize
                0x9d02208c       0xd8
 .text._TCPIP_HEAP_MaxSize
                0x9d02208c       0xd8 build/default/debug/_ext/1836803193/tcpip_heap_internal.o

.text._ARPUpdateEntry
                0x9d022164       0xd8
 .text._ARPUpdateEntry
                0x9d022164       0xd8 build/default/debug/_ext/1836803193/arp.o

.text._Command_UdpInfo
                0x9d02223c       0xd8
 .text._Command_UdpInfo
                0x9d02223c       0xd8 build/default/debug/_ext/1836803193/tcpip_commands.o

.text.TCPIP_Commands_Initialize
                0x9d022314       0xd8
 .text.TCPIP_Commands_Initialize
                0x9d022314       0xd8 build/default/debug/_ext/1836803193/tcpip_commands.o
                0x9d022314                TCPIP_Commands_Initialize

.text._MacTxPendingPackets
                0x9d0223ec       0xd4
 .text._MacTxPendingPackets
                0x9d0223ec       0xd4 build/default/debug/_ext/1749672254/drv_ethmac.o

.text._DRV_USART_BufferQueueErrorTasks
                0x9d0224c0       0xd4
 .text._DRV_USART_BufferQueueErrorTasks
                0x9d0224c0       0xd4 build/default/debug/_ext/427015431/drv_usart.o
                0x9d0224c0                _DRV_USART_BufferQueueErrorTasks

.text.TCPIP_HEAP_CallocDebug
                0x9d022594       0xd4
 .text.TCPIP_HEAP_CallocDebug
                0x9d022594       0xd4 build/default/debug/_ext/1836803193/tcpip_heap_alloc.o
                0x9d022594                TCPIP_HEAP_CallocDebug

.text.TCPIP_ZCLL_Initialize
                0x9d022668       0xd4
 .text.TCPIP_ZCLL_Initialize
                0x9d022668       0xd4 build/default/debug/_ext/1836803193/zero_conf_link_local.o
                0x9d022668                TCPIP_ZCLL_Initialize

.text._mon_putc
                0x9d02273c       0xd4
 .text._mon_putc
                0x9d02273c       0xd4 c:/program files (x86)/microchip/xc32/v1.43/bin/bin/../../lib/gcc/pic32mx/4.8.3/../../../../pic32mx/lib\libpic32.a(_mon_putc.o)
                0x9d02273c                _mon_putc

.text._DRV_ETHMAC_LinkStateNegResult
                0x9d022810       0xd0
 .text._DRV_ETHMAC_LinkStateNegResult
                0x9d022810       0xd0 build/default/debug/_ext/1749672254/drv_ethmac.o

.text.DRV_ETHPHY_Open
                0x9d0228e0       0xd0
 .text.DRV_ETHPHY_Open
                0x9d0228e0       0xd0 build/default/debug/_ext/573518448/drv_ethphy.o
                0x9d0228e0                DRV_ETHPHY_Open

.text.TCPIP_HEAP_MallocDebug
                0x9d0229b0       0xd0
 .text.TCPIP_HEAP_MallocDebug
                0x9d0229b0       0xd0 build/default/debug/_ext/1836803193/tcpip_heap_alloc.o
                0x9d0229b0                TCPIP_HEAP_MallocDebug

.rodata         0x9d022a80       0xd0
 .rodata        0x9d022a80       0xd0 c:/program files (x86)/microchip/xc32/v1.43/bin/bin/../../lib/gcc/pic32mx/4.8.3/../../../../pic32mx/lib\libc.a(doprnt_cdnopsuxX.eo)

.text._DRV_ETHPHY_ResetPhaseRead
                0x9d022b50       0xcc
 .text._DRV_ETHPHY_ResetPhaseRead
                0x9d022b50       0xcc build/default/debug/_ext/573518448/drv_ethphy.o

.text.TCPIP_ARP_EntryRemove
                0x9d022c1c       0xcc
 .text.TCPIP_ARP_EntryRemove
                0x9d022c1c       0xcc build/default/debug/_ext/1836803193/arp.o
                0x9d022c1c                TCPIP_ARP_EntryRemove

.text._DRV_TMR_ClockPrescaleSet
                0x9d022ce8       0xc8
 .text._DRV_TMR_ClockPrescaleSet
                0x9d022ce8       0xc8 build/default/debug/_ext/528688037/drv_tmr.o

.text.DRV_TMR_Tasks
                0x9d022db0       0xc8
 .text.DRV_TMR_Tasks
                0x9d022db0       0xc8 build/default/debug/_ext/528688037/drv_tmr.o
                0x9d022db0                DRV_TMR_Tasks

.text.TCPIP_OAHASH_EntryLookupOrInsert
                0x9d022e78       0xc8
 .text.TCPIP_OAHASH_EntryLookupOrInsert
                0x9d022e78       0xc8 build/default/debug/_ext/1836803193/oahash.o
                0x9d022e78                TCPIP_OAHASH_EntryLookupOrInsert

.text._TCPIPStackModuleRxPurge
                0x9d022f40       0xc8
 .text._TCPIPStackModuleRxPurge
                0x9d022f40       0xc8 build/default/debug/_ext/1836803193/tcpip_manager.o
                0x9d022f40                _TCPIPStackModuleRxPurge

.text._sbrk     0x9d023008       0xc8
 .text._sbrk    0x9d023008       0xc8 c:/program files (x86)/microchip/xc32/v1.43/bin/bin/../../lib/gcc/pic32mx/4.8.3/../../../../pic32mx/lib\libpic32.a(sbrk.o)
                0x9d023008                _sbrk

.text._DRV_ETHPHY_NegCompletePhaseRead2
                0x9d0230d0       0xc4
 .text._DRV_ETHPHY_NegCompletePhaseRead2
                0x9d0230d0       0xc4 build/default/debug/_ext/573518448/drv_ethphy.o

.text.TCPIP_UDP_SocketInfoGet
                0x9d023194       0xc4
 .text.TCPIP_UDP_SocketInfoGet
                0x9d023194       0xc4 build/default/debug/_ext/1836803193/udp.o
                0x9d023194                TCPIP_UDP_SocketInfoGet

.text._DHCPOptionWriteSrvIdent
                0x9d023258       0xc4
 .text._DHCPOptionWriteSrvIdent
                0x9d023258       0xc4 build/default/debug/_ext/1836803193/dhcp.o

.text._DRV_MIIM_ReleaseOpDcpt
                0x9d02331c       0xc0
 .text._DRV_MIIM_ReleaseOpDcpt
                0x9d02331c       0xc0 build/default/debug/_ext/1568515672/drv_miim.o

.text.SYS_CMD_PRINT
                0x9d0233dc       0xc0
 .text.SYS_CMD_PRINT
                0x9d0233dc       0xc0 build/default/debug/_ext/1167192164/sys_command.o
                0x9d0233dc                SYS_CMD_PRINT

.text.SYS_TMR_Initialize
                0x9d02349c       0xc0
 .text.SYS_TMR_Initialize
                0x9d02349c       0xc0 build/default/debug/_ext/1482654414/sys_tmr.o
                0x9d02349c                SYS_TMR_Initialize

.text.TCPIP_IPV4_MacPacketTransmit
                0x9d02355c       0xc0
 .text.TCPIP_IPV4_MacPacketTransmit
                0x9d02355c       0xc0 build/default/debug/_ext/1836803193/ipv4.o
                0x9d02355c                TCPIP_IPV4_MacPacketTransmit

.text._DHCPOptionProcessDns
                0x9d02361c       0xc0
 .text._DHCPOptionProcessDns
                0x9d02361c       0xc0 build/default/debug/_ext/1836803193/dhcp.o

.text.TCPIP_ANNOUNCE_Task
                0x9d0236dc       0xc0
 .text.TCPIP_ANNOUNCE_Task
                0x9d0236dc       0xc0 build/default/debug/_ext/1836803193/tcpip_announce.o
                0x9d0236dc                TCPIP_ANNOUNCE_Task

.text.SendCommandPrint
                0x9d02379c       0xbc
 .text.SendCommandPrint
                0x9d02379c       0xbc build/default/debug/_ext/1167192164/sys_command.o

.text.SYS_CMDIO_ADD
                0x9d023858       0xbc
 .text.SYS_CMDIO_ADD
                0x9d023858       0xbc build/default/debug/_ext/1167192164/sys_command.o
                0x9d023858                SYS_CMDIO_ADD

.text.TCPIP_UDP_ArrayPut
                0x9d023914       0xbc
 .text.TCPIP_UDP_ArrayPut
                0x9d023914       0xbc build/default/debug/_ext/1836803193/udp.o
                0x9d023914                TCPIP_UDP_ArrayPut

.text._DHCPOptionWriteIPRequest
                0x9d0239d0       0xbc
 .text._DHCPOptionWriteIPRequest
                0x9d0239d0       0xbc build/default/debug/_ext/1836803193/dhcp.o

.text.TCPIP_DNS_Disable
                0x9d023a8c       0xbc
 .text.TCPIP_DNS_Disable
                0x9d023a8c       0xbc build/default/debug/_ext/1836803193/dns.o
                0x9d023a8c                TCPIP_DNS_Disable

.text._DRV_ETHPHY_NegResultPhase_BMSTAT
                0x9d023b48       0xb8
 .text._DRV_ETHPHY_NegResultPhase_BMSTAT
                0x9d023b48       0xb8 build/default/debug/_ext/573518448/drv_ethphy.o

.text.TCPIP_DNS_OAHASH_DeleteEntry
                0x9d023c00       0xb8
 .text.TCPIP_DNS_OAHASH_DeleteEntry
                0x9d023c00       0xb8 build/default/debug/_ext/1836803193/dns.o

.text.TCPIP_DNS_GetIPAddressesNumber
                0x9d023cb8       0xb8
 .text.TCPIP_DNS_GetIPAddressesNumber
                0x9d023cb8       0xb8 build/default/debug/_ext/1836803193/dns.o
                0x9d023cb8                TCPIP_DNS_GetIPAddressesNumber

.text.TCPIP_PKT_DataSegmentGet
                0x9d023d70       0xb8
 .text.TCPIP_PKT_DataSegmentGet
                0x9d023d70       0xb8 build/default/debug/_ext/1836803193/tcpip_packet.o
                0x9d023d70                TCPIP_PKT_DataSegmentGet

.text._EthTxSchedBuffer
                0x9d023e28       0xb4
 .text._EthTxSchedBuffer
                0x9d023e28       0xb4 build/default/debug/_ext/1749672254/drv_ethmac_lib.o

.text.Console_UART_Read
                0x9d023edc       0xb4
 .text.Console_UART_Read
                0x9d023edc       0xb4 build/default/debug/_ext/710479984/sys_console_uart.o
                0x9d023edc                Console_UART_Read

.text.TCPIP_UDP_BcastIPV4AddressSet
                0x9d023f90       0xb4
 .text.TCPIP_UDP_BcastIPV4AddressSet
                0x9d023f90       0xb4 build/default/debug/_ext/1836803193/udp.o
                0x9d023f90                TCPIP_UDP_BcastIPV4AddressSet

.text._TCPIP_HEAP_Delete
                0x9d024044       0xb4
 .text._TCPIP_HEAP_Delete
                0x9d024044       0xb4 build/default/debug/_ext/1836803193/tcpip_heap_internal.o

.text._ARPNotifyClients
                0x9d0240f8       0xb4
 .text._ARPNotifyClients
                0x9d0240f8       0xb4 build/default/debug/_ext/1836803193/arp.o

.text.TCPIP_DHCP_Disable
                0x9d0241ac       0xb4
 .text.TCPIP_DHCP_Disable
                0x9d0241ac       0xb4 build/default/debug/_ext/1836803193/dhcp.o
                0x9d0241ac                TCPIP_DHCP_Disable

.text.TCPIP_STACK_NetDown
                0x9d024260       0xb4
 .text.TCPIP_STACK_NetDown
                0x9d024260       0xb4 build/default/debug/_ext/1836803193/tcpip_manager.o
                0x9d024260                TCPIP_STACK_NetDown

.text.DRV_ETHMAC_LibTxAcknowledgeBuffer
                0x9d024314       0xb0
 .text.DRV_ETHMAC_LibTxAcknowledgeBuffer
                0x9d024314       0xb0 build/default/debug/_ext/1749672254/drv_ethmac_lib.o
                0x9d024314                DRV_ETHMAC_LibTxAcknowledgeBuffer

.text.DRV_MIIM_OperationAbort
                0x9d0243c4       0xb0
 .text.DRV_MIIM_OperationAbort
                0x9d0243c4       0xb0 build/default/debug/_ext/1568515672/drv_miim.o
                0x9d0243c4                DRV_MIIM_OperationAbort

.text.DRV_USART_LineControlSet
                0x9d024474       0xb0
 .text.DRV_USART_LineControlSet
                0x9d024474       0xb0 build/default/debug/_ext/427015431/drv_usart.o
                0x9d024474                DRV_USART_LineControlSet

.text._SYS_TMR_ClientCheckSrvLock
                0x9d024524       0xb0
 .text._SYS_TMR_ClientCheckSrvLock
                0x9d024524       0xb0 build/default/debug/_ext/1482654414/sys_tmr.o

.text._DNS_AddSelectionIf
                0x9d0245d4       0xb0
 .text._DNS_AddSelectionIf
                0x9d0245d4       0xb0 build/default/debug/_ext/1836803193/dns.o

.text._DRV_ETHMAC_LinkStateWaitLinkUp
                0x9d024684       0xac
 .text._DRV_ETHMAC_LinkStateWaitLinkUp
                0x9d024684       0xac build/default/debug/_ext/1749672254/drv_ethmac.o

.text.TCPIP_TCP_RemoteBind
                0x9d024730       0xac
 .text.TCPIP_TCP_RemoteBind
                0x9d024730       0xac build/default/debug/_ext/1836803193/tcp.o
                0x9d024730                TCPIP_TCP_RemoteBind

.text._DNS_Enable
                0x9d0247dc       0xac
 .text._DNS_Enable
                0x9d0247dc       0xac build/default/debug/_ext/1836803193/dns.o

.text._TCPIPStackInsertRxPacket
                0x9d024888       0xac
 .text._TCPIPStackInsertRxPacket
                0x9d024888       0xac build/default/debug/_ext/1836803193/tcpip_manager.o
                0x9d024888                _TCPIPStackInsertRxPacket

.text.fptodp    0x9d024934       0xac
 .text.fptodp   0x9d024934       0xac c:/program files (x86)/microchip/xc32/v1.43/bin/bin/../../lib/gcc/pic32mx/4.8.3/../../../../pic32mx/lib\libm.a(fptodp.o)
                0x9d024934                fptodp
                0x9d024934                __extendsfdf2

.text.DRV_ETHMAC_PIC32MACRegisterStatisticsGet
                0x9d0249e0       0xa8
 .text.DRV_ETHMAC_PIC32MACRegisterStatisticsGet
                0x9d0249e0       0xa8 build/default/debug/_ext/1749672254/drv_ethmac.o
                0x9d0249e0                DRV_ETHMAC_PIC32MACRegisterStatisticsGet

.text.DRV_ETHPHY_VendorSMIReadStart
                0x9d024a88       0xa8
 .text.DRV_ETHPHY_VendorSMIReadStart
                0x9d024a88       0xa8 build/default/debug/_ext/573518448/drv_ethphy.o
                0x9d024a88                DRV_ETHPHY_VendorSMIReadStart

.text.DRV_ETHPHY_VendorSMIWriteStart
                0x9d024b30       0xa8
 .text.DRV_ETHPHY_VendorSMIWriteStart
                0x9d024b30       0xa8 build/default/debug/_ext/573518448/drv_ethphy.o
                0x9d024b30                DRV_ETHPHY_VendorSMIWriteStart

.text._DRV_ETHPHY_ResetPhaseWrite
                0x9d024bd8       0xa8
 .text._DRV_ETHPHY_ResetPhaseWrite
                0x9d024bd8       0xa8 build/default/debug/_ext/573518448/drv_ethphy.o

.text.TCPIP_PKT_PacketMACFormat
                0x9d024c80       0xa8
 .text.TCPIP_PKT_PacketMACFormat
                0x9d024c80       0xa8 build/default/debug/_ext/1836803193/tcpip_packet.o
                0x9d024c80                TCPIP_PKT_PacketMACFormat

.text           0x9d024d28       0xa8
 .text          0x9d024d28       0xa8 c:/program files (x86)/microchip/xc32/v1.43/bin/bin/../../lib/gcc/pic32mx/4.8.3/../../../../pic32mx/lib\libpic32.a(memset.o)
                0x9d024d28                memset

.text.atoi      0x9d024dd0       0xa8
 .text.atoi     0x9d024dd0       0xa8 c:/program files (x86)/microchip/xc32/v1.43/bin/bin/../../lib/gcc/pic32mx/4.8.3/../../../../pic32mx/lib\libc.a(atoi.o)
                0x9d024dd0                atoi

.text.libm      0x9d024e78       0xa8
 .text.libm     0x9d024e78       0xa8 c:/program files (x86)/microchip/xc32/v1.43/bin/bin/../../lib/gcc/pic32mx/4.8.3/../../../../pic32mx/lib\libm.a(dpfrexp.o)
                0x9d024e78                dpfrexp
                0x9d024e78                frexpl
                0x9d024e78                frexp

.text.DRV_ETHPHY_Initialize
                0x9d024f20       0xa4
 .text.DRV_ETHPHY_Initialize
                0x9d024f20       0xa4 build/default/debug/_ext/573518448/drv_ethphy.o
                0x9d024f20                DRV_ETHPHY_Initialize

.text.DRV_USART_TasksReceive
                0x9d024fc4       0xa4
 .text.DRV_USART_TasksReceive
                0x9d024fc4       0xa4 build/default/debug/_ext/427015431/drv_usart.o
                0x9d024fc4                DRV_USART_TasksReceive

.text.DRV_USART_TasksTransmit
                0x9d025068       0xa4
 .text.DRV_USART_TasksTransmit
                0x9d025068       0xa4 build/default/debug/_ext/427015431/drv_usart.o
                0x9d025068                DRV_USART_TasksTransmit

.text.DRV_USART_TasksError
                0x9d02510c       0xa4
 .text.DRV_USART_TasksError
                0x9d02510c       0xa4 build/default/debug/_ext/427015431/drv_usart.o
                0x9d02510c                DRV_USART_TasksError

.text.TCPIP_IPV4_Initialize
                0x9d0251b0       0xa4
 .text.TCPIP_IPV4_Initialize
                0x9d0251b0       0xa4 build/default/debug/_ext/1836803193/ipv4.o
                0x9d0251b0                TCPIP_IPV4_Initialize

.text.Console_UART_Status
                0x9d025254       0xa0
 .text.Console_UART_Status
                0x9d025254       0xa0 build/default/debug/_ext/710479984/sys_console_uart.o
                0x9d025254                Console_UART_Status

.text._TcpClientSocketConnect
                0x9d0252f4       0xa0
 .text._TcpClientSocketConnect
                0x9d0252f4       0xa0 build/default/debug/_ext/1836803193/tcp.o

.text._TCPSendWinIncUpdate
                0x9d025394       0xa0
 .text._TCPSendWinIncUpdate
                0x9d025394       0xa0 build/default/debug/_ext/1836803193/tcp.o

.text.TCPIP_UDP_PutIsReady
                0x9d025434       0xa0
 .text.TCPIP_UDP_PutIsReady
                0x9d025434       0xa0 build/default/debug/_ext/1836803193/udp.o
                0x9d025434                TCPIP_UDP_PutIsReady

.rodata         0x9d0254d4       0xa0
 .rodata        0x9d0254d4       0xa0 build/default/debug/_ext/1836803193/dhcp.o

.text.TCPIP_DNS_RemoveAll
                0x9d025574       0xa0
 .text.TCPIP_DNS_RemoveAll
                0x9d025574       0xa0 build/default/debug/_ext/1836803193/dns.o
                0x9d025574                TCPIP_DNS_RemoveAll

.text.TCPIP_Helper_SingleListNodeRemove
                0x9d025614       0xa0
 .text.TCPIP_Helper_SingleListNodeRemove
                0x9d025614       0xa0 build/default/debug/_ext/1836803193/tcpip_helpers.o
                0x9d025614                TCPIP_Helper_SingleListNodeRemove

.text._TCPIP_PKT_PacketFree
                0x9d0256b4       0xa0
 .text._TCPIP_PKT_PacketFree
                0x9d0256b4       0xa0 build/default/debug/_ext/1836803193/tcpip_packet.o
                0x9d0256b4                _TCPIP_PKT_PacketFree

.rodata         0x9d025754       0x9c
 .rodata        0x9d025754       0x9c build/default/debug/_ext/1360937237/app_command.o

.text._DRV_ETHMAC_LinkStateGetLink
                0x9d0257f0       0x9c
 .text._DRV_ETHMAC_LinkStateGetLink
                0x9d0257f0       0x9c build/default/debug/_ext/1749672254/drv_ethmac.o

.text.Helper_SingleListNodeRemove
                0x9d02588c       0x9c
 .text.Helper_SingleListNodeRemove
                0x9d02588c       0x9c build/default/debug/_ext/1568515672/drv_miim.o
                0x9d02588c                Helper_SingleListNodeRemove

.text._DRV_USART_ErrorConditionClear
                0x9d025928       0x9c
 .text._DRV_USART_ErrorConditionClear
                0x9d025928       0x9c build/default/debug/_ext/427015431/drv_usart.o
                0x9d025928                _DRV_USART_ErrorConditionClear

.text.TCPIP_ARP_Probe
                0x9d0259c4       0x9c
 .text.TCPIP_ARP_Probe
                0x9d0259c4       0x9c build/default/debug/_ext/1836803193/arp.o
                0x9d0259c4                TCPIP_ARP_Probe

.text._DNSDeleteCacheEntries
                0x9d025a60       0x9c
 .text._DNSDeleteCacheEntries
                0x9d025a60       0x9c build/default/debug/_ext/1836803193/dns.o

.text.TCPIP_STACK_StringToMACId
                0x9d025afc       0x9c
 .text.TCPIP_STACK_StringToMACId
                0x9d025afc       0x9c build/default/debug/_ext/1836803193/tcpip_manager.o
                0x9d025afc                TCPIP_STACK_StringToMACId

.text.write     0x9d025b98       0x9c
 .text.write    0x9d025b98       0x9c c:/program files (x86)/microchip/xc32/v1.43/bin/bin/../../lib/gcc/pic32mx/4.8.3/../../../../pic32mx/lib\libpic32.a(write.o)
                0x9d025b98                write

.text.DRV_ETHMAC_PIC32MACEventAcknowledge
                0x9d025c34       0x98
 .text.DRV_ETHMAC_PIC32MACEventAcknowledge
                0x9d025c34       0x98 build/default/debug/_ext/1749672254/drv_ethmac.o
                0x9d025c34                DRV_ETHMAC_PIC32MACEventAcknowledge

.text._EthTxSchedList
                0x9d025ccc       0x98
 .text._EthTxSchedList
                0x9d025ccc       0x98 build/default/debug/_ext/1749672254/drv_ethmac_lib.o

.text.DRV_ETHMAC_LibDescriptorsPoolCleanUp
                0x9d025d64       0x98
 .text.DRV_ETHMAC_LibDescriptorsPoolCleanUp
                0x9d025d64       0x98 build/default/debug/_ext/1749672254/drv_ethmac_lib.o
                0x9d025d64                DRV_ETHMAC_LibDescriptorsPoolCleanUp

.text._DRV_ETHPHY_LinkStatPhaseRead
                0x9d025dfc       0x98
 .text._DRV_ETHPHY_LinkStatPhaseRead
                0x9d025dfc       0x98 build/default/debug/_ext/573518448/drv_ethphy.o

.text._DRV_ETHPHY_SetupPhaseNegotiate_SubPhase6
                0x9d025e94       0x98
 .text._DRV_ETHPHY_SetupPhaseNegotiate_SubPhase6
                0x9d025e94       0x98 build/default/debug/_ext/573518448/drv_ethphy.o

.text._DRV_MIIM_GetClientAndLock
                0x9d025f2c       0x98
 .text._DRV_MIIM_GetClientAndLock
                0x9d025f2c       0x98 build/default/debug/_ext/1568515672/drv_miim.o

.text._TcpCleanup
                0x9d025fc4       0x98
 .text._TcpCleanup
                0x9d025fc4       0x98 build/default/debug/_ext/1836803193/tcp.o

.text.TCPIP_TCP_DestinationIPAddressSet
                0x9d02605c       0x98
 .text.TCPIP_TCP_DestinationIPAddressSet
                0x9d02605c       0x98 build/default/debug/_ext/1836803193/tcp.o
                0x9d02605c                TCPIP_TCP_DestinationIPAddressSet

.text._UDPSetNewRxPacket
                0x9d0260f4       0x98
 .text._UDPSetNewRxPacket
                0x9d0260f4       0x98 build/default/debug/_ext/1836803193/udp.o

.text.TCPIP_Helper_IPAddressToString
                0x9d02618c       0x98
 .text.TCPIP_Helper_IPAddressToString
                0x9d02618c       0x98 build/default/debug/_ext/1836803193/tcpip_helpers.o
                0x9d02618c                TCPIP_Helper_IPAddressToString

.text.TCPIP_Helper_FormatNetBIOSName
                0x9d026224       0x98
 .text.TCPIP_Helper_FormatNetBIOSName
                0x9d026224       0x98 build/default/debug/_ext/1836803193/tcpip_helpers.o
                0x9d026224                TCPIP_Helper_FormatNetBIOSName

.text           0x9d0262bc       0x98
 .text          0x9d0262bc       0x98 c:/program files (x86)/microchip/xc32/v1.43/bin/bin/../../lib/gcc/pic32mx/4.8.3/../../../../pic32mx/lib\libpic32.a(memcmp.o)
                0x9d0262bc                memcmp

.text._DRV_MIIM_GetObjectAndLock
                0x9d026354       0x94
 .text._DRV_MIIM_GetObjectAndLock
                0x9d026354       0x94 build/default/debug/_ext/1568515672/drv_miim.o

.text.DRV_MIIM_RegisterCallback
                0x9d0263e8       0x94
 .text.DRV_MIIM_RegisterCallback
                0x9d0263e8       0x94 build/default/debug/_ext/1568515672/drv_miim.o
                0x9d0263e8                DRV_MIIM_RegisterCallback

.text.TCPIP_UDP_DestinationIPAddressSet
                0x9d02647c       0x94
 .text.TCPIP_UDP_DestinationIPAddressSet
                0x9d02647c       0x94 build/default/debug/_ext/1836803193/udp.o
                0x9d02647c                TCPIP_UDP_DestinationIPAddressSet

.text.TCPIP_ARP_Deinitialize
                0x9d026510       0x94
 .text.TCPIP_ARP_Deinitialize
                0x9d026510       0x94 build/default/debug/_ext/1836803193/arp.o
                0x9d026510                TCPIP_ARP_Deinitialize

.text._DNS_CleanCacheEntry
                0x9d0265a4       0x94
 .text._DNS_CleanCacheEntry
                0x9d0265a4       0x94 build/default/debug/_ext/1836803193/dns.o

.text.TCPIP_Helper_ProtectedSingleListNodeRemove
                0x9d026638       0x94
 .text.TCPIP_Helper_ProtectedSingleListNodeRemove
                0x9d026638       0x94 build/default/debug/_ext/1836803193/tcpip_helpers.o
                0x9d026638                TCPIP_Helper_ProtectedSingleListNodeRemove

.text.SYS_PORTS_Initialize
                0x9d0266cc       0x90
 .text.SYS_PORTS_Initialize
                0x9d0266cc       0x90 build/default/debug/_ext/822048611/sys_ports_static.o
                0x9d0266cc                SYS_PORTS_Initialize

.text._DRV_ETHMAC_LinkStateNegComplete
                0x9d02675c       0x90
 .text._DRV_ETHMAC_LinkStateNegComplete
                0x9d02675c       0x90 build/default/debug/_ext/1749672254/drv_ethmac.o

.text.SYS_CONSOLE_Status
                0x9d0267ec       0x90
 .text.SYS_CONSOLE_Status
                0x9d0267ec       0x90 build/default/debug/_ext/710479984/sys_console.o
                0x9d0267ec                SYS_CONSOLE_Status

.text.TCPIP_ARP_EntryGet
                0x9d02687c       0x90
 .text.TCPIP_ARP_EntryGet
                0x9d02687c       0x90 build/default/debug/_ext/1836803193/arp.o
                0x9d02687c                TCPIP_ARP_EntryGet

.text._DHCPOptionClientId
                0x9d02690c       0x90
 .text._DHCPOptionClientId
                0x9d02690c       0x90 build/default/debug/_ext/1836803193/dhcp.o

.text.TCPIP_DNS_ClientDeinitialize
                0x9d02699c       0x90
 .text.TCPIP_DNS_ClientDeinitialize
                0x9d02699c       0x90 build/default/debug/_ext/1836803193/dns.o
                0x9d02699c                TCPIP_DNS_ClientDeinitialize

.text.TCPIP_Helper_ProtectedSingleListHeadRemove
                0x9d026a2c       0x90
 .text.TCPIP_Helper_ProtectedSingleListHeadRemove
                0x9d026a2c       0x90 build/default/debug/_ext/1836803193/tcpip_helpers.o
                0x9d026a2c                TCPIP_Helper_ProtectedSingleListHeadRemove

.text.TCPIP_Helper_ProtectedSingleListRemoveAll
                0x9d026abc       0x90
 .text.TCPIP_Helper_ProtectedSingleListRemoveAll
                0x9d026abc       0x90 build/default/debug/_ext/1836803193/tcpip_helpers.o
                0x9d026abc                TCPIP_Helper_ProtectedSingleListRemoveAll

.text._TCPIPStackIpAddFromAnyNet
                0x9d026b4c       0x90
 .text._TCPIPStackIpAddFromAnyNet
                0x9d026b4c       0x90 build/default/debug/_ext/1836803193/tcpip_manager.o
                0x9d026b4c                _TCPIPStackIpAddFromAnyNet

.text.strstr    0x9d026bdc       0x90
 .text.strstr   0x9d026bdc       0x90 c:/program files (x86)/microchip/xc32/v1.43/bin/bin/../../lib/gcc/pic32mx/4.8.3/../../../../pic32mx/lib\libc.a(strstr.o)
                0x9d026bdc                strstr

.text.TCPIP_UDP_TxOffsetSet
                0x9d026c6c       0x8c
 .text.TCPIP_UDP_TxOffsetSet
                0x9d026c6c       0x8c build/default/debug/_ext/1836803193/udp.o
                0x9d026c6c                TCPIP_UDP_TxOffsetSet

.text._DHCPCleanup
                0x9d026cf8       0x8c
 .text._DHCPCleanup
                0x9d026cf8       0x8c build/default/debug/_ext/1836803193/dhcp.o

.text._DHCPNotifyClients
                0x9d026d84       0x8c
 .text._DHCPNotifyClients
                0x9d026d84       0x8c build/default/debug/_ext/1836803193/dhcp.o

.text._DNSDiscardName
                0x9d026e10       0x8c
 .text._DNSDiscardName
                0x9d026e10       0x8c build/default/debug/_ext/1836803193/dns.o

.text._TCPIP_AnnounceCleanup
                0x9d026e9c       0x8c
 .text._TCPIP_AnnounceCleanup
                0x9d026e9c       0x8c build/default/debug/_ext/1836803193/tcpip_announce.o

.text.TCPIP_STACK_NetAliasNameGet
                0x9d026f28       0x8c
 .text.TCPIP_STACK_NetAliasNameGet
                0x9d026f28       0x8c build/default/debug/_ext/1836803193/tcpip_manager.o
                0x9d026f28                TCPIP_STACK_NetAliasNameGet

.text.TCPIP_STACK_NetBiosNameSet
                0x9d026fb4       0x8c
 .text.TCPIP_STACK_NetBiosNameSet
                0x9d026fb4       0x8c build/default/debug/_ext/1836803193/tcpip_manager.o
                0x9d026fb4                TCPIP_STACK_NetBiosNameSet

.text.rand      0x9d027040       0x8c
 .text.rand     0x9d027040       0x8c c:/program files (x86)/microchip/xc32/v1.43/bin/bin/../../lib/gcc/pic32mx/4.8.3/../../../../pic32mx/lib\libc.a(rand.o)
                0x9d027040                rand

.text.dptoul    0x9d0270cc       0x8c
 .text.dptoul   0x9d0270cc       0x8c c:/program files (x86)/microchip/xc32/v1.43/bin/bin/../../lib/gcc/pic32mx/4.8.3/../../../../pic32mx/lib\libm.a(dptoul.o)
                0x9d0270cc                dptoul
                0x9d0270cc                __fixunsdfsi

.text.__orderdf2
                0x9d027158       0x8c
 .text.__orderdf2
                0x9d027158       0x8c c:/program files (x86)/microchip/xc32/v1.43/bin/bin/../../lib/gcc/pic32mx/4.8.3/../../../../pic32mx/lib\libe.a(_orderdf2.o)
                0x9d027158                __orderdf2

.text.DRV_ETHMAC_LibClose
                0x9d0271e4       0x88
 .text.DRV_ETHMAC_LibClose
                0x9d0271e4       0x88 build/default/debug/_ext/1749672254/drv_ethmac_lib.o
                0x9d0271e4                DRV_ETHMAC_LibClose

.text.SYS_CONSOLE_Write
                0x9d02726c       0x88
 .text.SYS_CONSOLE_Write
                0x9d02726c       0x88 build/default/debug/_ext/710479984/sys_console.o
                0x9d02726c                SYS_CONSOLE_Write

.text.hexatob   0x9d0272f4       0x88
 .text.hexatob  0x9d0272f4       0x88 build/default/debug/_ext/157393855/helpers.o
                0x9d0272f4                hexatob

.text.TCPIP_UDP_Close
                0x9d02737c       0x88
 .text.TCPIP_UDP_Close
                0x9d02737c       0x88 build/default/debug/_ext/1836803193/udp.o
                0x9d02737c                TCPIP_UDP_Close

.rodata         0x9d027404       0x88
 .rodata        0x9d027404       0x88 build/default/debug/_ext/1836803193/dns.o

.text.TCPIP_Helper_ProtectedSingleListTailAdd
                0x9d02748c       0x88
 .text.TCPIP_Helper_ProtectedSingleListTailAdd
                0x9d02748c       0x88 build/default/debug/_ext/1836803193/tcpip_helpers.o
                0x9d02748c                TCPIP_Helper_ProtectedSingleListTailAdd

.text._TCPIPStackModuleSignalRequest
                0x9d027514       0x88
 .text._TCPIPStackModuleSignalRequest
                0x9d027514       0x88 build/default/debug/_ext/1836803193/tcpip_manager.o
                0x9d027514                _TCPIPStackModuleSignalRequest

.text.DRV_ETHPHY_VendorSMIReadResultGet
                0x9d02759c       0x84
 .text.DRV_ETHPHY_VendorSMIReadResultGet
                0x9d02759c       0x84 build/default/debug/_ext/573518448/drv_ethphy.o
                0x9d02759c                DRV_ETHPHY_VendorSMIReadResultGet

.text._DRV_MIIM_GetOpDcpt
                0x9d027620       0x84
 .text._DRV_MIIM_GetOpDcpt
                0x9d027620       0x84 build/default/debug/_ext/1568515672/drv_miim.o

.text._DRV_TMR_ModuleObj
                0x9d0276a4       0x84
 .text._DRV_TMR_ModuleObj
                0x9d0276a4       0x84 build/default/debug/_ext/528688037/drv_tmr.o

.text.TCPIP_UDP_RxOffsetSet
                0x9d027728       0x84
 .text.TCPIP_UDP_RxOffsetSet
                0x9d027728       0x84 build/default/debug/_ext/1836803193/udp.o
                0x9d027728                TCPIP_UDP_RxOffsetSet

.text.TCPIP_UDP_SourceIPAddressSet
                0x9d0277ac       0x84
 .text.TCPIP_UDP_SourceIPAddressSet
                0x9d0277ac       0x84 build/default/debug/_ext/1836803193/udp.o
                0x9d0277ac                TCPIP_UDP_SourceIPAddressSet

.text.zgzc_wait_for
                0x9d027830       0x84
 .text.zgzc_wait_for
                0x9d027830       0x84 build/default/debug/_ext/1836803193/zero_conf_helper.o
                0x9d027830                zgzc_wait_for

.text._FieldSetMacName
                0x9d0278b4       0x84
 .text._FieldSetMacName
                0x9d0278b4       0x84 build/default/debug/_ext/1836803193/tcpip_announce.o
                0x9d0278b4                _FieldSetMacName

.text.TCPIP_STACK_NetHandleGet
                0x9d027938       0x84
 .text.TCPIP_STACK_NetHandleGet
                0x9d027938       0x84 build/default/debug/_ext/1836803193/tcpip_manager.o
                0x9d027938                TCPIP_STACK_NetHandleGet

.text._DRV_ETHPHY_NegCompletePhaseAN_Complete
                0x9d0279bc       0x80
 .text._DRV_ETHPHY_NegCompletePhaseAN_Complete
                0x9d0279bc       0x80 build/default/debug/_ext/573518448/drv_ethphy.o

.text.ReadCommandCharacter
                0x9d027a3c       0x80
 .text.ReadCommandCharacter
                0x9d027a3c       0x80 build/default/debug/_ext/1167192164/sys_command.o

.text.TCPIP_HEAP_Create
                0x9d027abc       0x80
 .text.TCPIP_HEAP_Create
                0x9d027abc       0x80 build/default/debug/_ext/1836803193/tcpip_heap_alloc.o
                0x9d027abc                TCPIP_HEAP_Create

.text.TCPIP_DNS_OAHASH_KeyCopy
                0x9d027b3c       0x80
 .text.TCPIP_DNS_OAHASH_KeyCopy
                0x9d027b3c       0x80 build/default/debug/_ext/1836803193/dns.o

.text.TCPIP_ICMP_Initialize
                0x9d027bbc       0x80
 .text.TCPIP_ICMP_Initialize
                0x9d027bbc       0x80 build/default/debug/_ext/1836803193/icmp.o
                0x9d027bbc                TCPIP_ICMP_Initialize

.text._ZCLLEnable
                0x9d027c3c       0x80
 .text._ZCLLEnable
                0x9d027c3c       0x80 build/default/debug/_ext/1836803193/zero_conf_link_local.o

.text._FieldSetHostName
                0x9d027cbc       0x80
 .text._FieldSetHostName
                0x9d027cbc       0x80 build/default/debug/_ext/1836803193/tcpip_announce.o
                0x9d027cbc                _FieldSetHostName

.text.TCPIP_Helper_MACAddressToString
                0x9d027d3c       0x80
 .text.TCPIP_Helper_MACAddressToString
                0x9d027d3c       0x80 build/default/debug/_ext/1836803193/tcpip_helpers.o
                0x9d027d3c                TCPIP_Helper_MACAddressToString

.rodata         0x9d027dc0       0x80
 .rodata        0x9d027dc0       0x80 c:/program files (x86)/microchip/xc32/v1.43/bin/bin/../../lib/gcc/pic32mx/4.8.3/../../../../pic32mx/lib\libc.a(doprnt.o)

.text.__fixunsdfdi
                0x9d027e40       0x80
 .text.__fixunsdfdi
                0x9d027e40       0x80 c:/program files (x86)/microchip/xc32/v1.43/bin/bin/../../lib/gcc/pic32mx/4.8.3/../../../../pic32mx/lib\libe.a(_fixunsdfdi.o)
                0x9d027e40                __fixunsdfdi

.text.CommandCleanup
                0x9d027ec0       0x7c
 .text.CommandCleanup
                0x9d027ec0       0x7c build/default/debug/_ext/1167192164/sys_command.o

.text.SYS_CONSOLE_Read
                0x9d027f3c       0x7c
 .text.SYS_CONSOLE_Read
                0x9d027f3c       0x7c build/default/debug/_ext/710479984/sys_console.o
                0x9d027f3c                SYS_CONSOLE_Read

.text._TCP_EphemeralPortAllocate
                0x9d027fb8       0x7c
 .text._TCP_EphemeralPortAllocate
                0x9d027fb8       0x7c build/default/debug/_ext/1836803193/tcp.o

.text._UDPAllocateEphemeralPort
                0x9d028034       0x7c
 .text._UDPAllocateEphemeralPort
                0x9d028034       0x7c build/default/debug/_ext/1836803193/udp.o

.text.TCPIP_ARP_HandlerRegister
                0x9d0280b0       0x7c
 .text.TCPIP_ARP_HandlerRegister
                0x9d0280b0       0x7c build/default/debug/_ext/1836803193/arp.o
                0x9d0280b0                TCPIP_ARP_HandlerRegister

.text.TCPIP_PKT_Initialize
                0x9d02812c       0x7c
 .text.TCPIP_PKT_Initialize
                0x9d02812c       0x7c build/default/debug/_ext/1836803193/tcpip_packet.o
                0x9d02812c                TCPIP_PKT_Initialize

.text.DRV_TMR_CounterValueGet
                0x9d0281a8       0x78
 .text.DRV_TMR_CounterValueGet
                0x9d0281a8       0x78 build/default/debug/_ext/528688037/drv_tmr.o
                0x9d0281a8                DRV_TMR_CounterValueGet

.rodata         0x9d028220       0x78
 .rodata        0x9d028220       0x78 build/default/debug/_ext/427015431/drv_usart_read_write.o

.text.TCPIP_TCP_Close
                0x9d028298       0x78
 .text.TCPIP_TCP_Close
                0x9d028298       0x78 build/default/debug/_ext/1836803193/tcp.o
                0x9d028298                TCPIP_TCP_Close

.text._DHCPOptionProcessRouter
                0x9d028310       0x78
 .text._DHCPOptionProcessRouter
                0x9d028310       0x78 build/default/debug/_ext/1836803193/dhcp.o

.text.TCPIP_DHCP_IsEnabled
                0x9d028388       0x78
 .text.TCPIP_DHCP_IsEnabled
                0x9d028388       0x78 build/default/debug/_ext/1836803193/dhcp.o
                0x9d028388                TCPIP_DHCP_IsEnabled

.text.TCPIP_DHCP_HandlerRegister
                0x9d028400       0x78
 .text.TCPIP_DHCP_HandlerRegister
                0x9d028400       0x78 build/default/debug/_ext/1836803193/dhcp.o
                0x9d028400                TCPIP_DHCP_HandlerRegister

.text._DNSClientCleanup
                0x9d028478       0x78
 .text._DNSClientCleanup
                0x9d028478       0x78 build/default/debug/_ext/1836803193/dns.o

.text.TCPIP_ANNOUNCE_Deinitialize
                0x9d0284f0       0x78
 .text.TCPIP_ANNOUNCE_Deinitialize
                0x9d0284f0       0x78 build/default/debug/_ext/1836803193/tcpip_announce.o
                0x9d0284f0                TCPIP_ANNOUNCE_Deinitialize

.text.TCPIP_Helper_ProtectedSingleListDeinitialize
                0x9d028568       0x78
 .text.TCPIP_Helper_ProtectedSingleListDeinitialize
                0x9d028568       0x78 build/default/debug/_ext/1836803193/tcpip_helpers.o
                0x9d028568                TCPIP_Helper_ProtectedSingleListDeinitialize

.text._TCPIP_MacEventCB
                0x9d0285e0       0x78
 .text._TCPIP_MacEventCB
                0x9d0285e0       0x78 build/default/debug/_ext/1836803193/tcpip_manager.o

.text.litodp    0x9d028658       0x78
 .text.litodp   0x9d028658       0x78 c:/program files (x86)/microchip/xc32/v1.43/bin/bin/../../lib/gcc/pic32mx/4.8.3/../../../../pic32mx/lib\libm.a(litodp.o)
                0x9d028658                __floatsidf
                0x9d028658                litodp

.text.DRV_ETHMAC_PIC32MACConfigGet
                0x9d0286d0       0x74
 .text.DRV_ETHMAC_PIC32MACConfigGet
                0x9d0286d0       0x74 build/default/debug/_ext/1749672254/drv_ethmac.o
                0x9d0286d0                DRV_ETHMAC_PIC32MACConfigGet

.text._MacRxFreeCallback
                0x9d028744       0x74
 .text._MacRxFreeCallback
                0x9d028744       0x74 build/default/debug/_ext/1749672254/drv_ethmac.o

.text._DRV_ETHPHY_SetupPhaseNegotiate_SubPhase1
                0x9d0287b8       0x74
 .text._DRV_ETHPHY_SetupPhaseNegotiate_SubPhase1
                0x9d0287b8       0x74 build/default/debug/_ext/573518448/drv_ethphy.o

.text.SYS_CONSOLE_Initialize
                0x9d02882c       0x74
 .text.SYS_CONSOLE_Initialize
                0x9d02882c       0x74 build/default/debug/_ext/710479984/sys_console.o
                0x9d02882c                SYS_CONSOLE_Initialize

.text._TcpSocketSetSourceInterface
                0x9d0288a0       0x74
 .text._TcpSocketSetSourceInterface
                0x9d0288a0       0x74 build/default/debug/_ext/1836803193/tcp.o

.text._TcpSwapHeader
                0x9d028914       0x74
 .text._TcpSwapHeader
                0x9d028914       0x74 build/default/debug/_ext/1836803193/tcp.o

.text._DHCPOptionProcessSubNet
                0x9d028988       0x74
 .text._DHCPOptionProcessSubNet
                0x9d028988       0x74 build/default/debug/_ext/1836803193/dhcp.o

.text.TCPIP_Helper_StringToPowerMode
                0x9d0289fc       0x74
 .text.TCPIP_Helper_StringToPowerMode
                0x9d0289fc       0x74 build/default/debug/_ext/1836803193/tcpip_helpers.o
                0x9d0289fc                TCPIP_Helper_StringToPowerMode

.text._TCPIPStackAnyNetLinked
                0x9d028a70       0x74
 .text._TCPIPStackAnyNetLinked
                0x9d028a70       0x74 build/default/debug/_ext/1836803193/tcpip_manager.o
                0x9d028a70                _TCPIPStackAnyNetLinked

.text._TCPIPStackSignalHandlerRegister
                0x9d028ae4       0x74
 .text._TCPIPStackSignalHandlerRegister
                0x9d028ae4       0x74 build/default/debug/_ext/1836803193/tcpip_manager.o
                0x9d028ae4                _TCPIPStackSignalHandlerRegister

.text.strncpy   0x9d028b58       0x74
 .text.strncpy  0x9d028b58       0x74 c:/program files (x86)/microchip/xc32/v1.43/bin/bin/../../lib/gcc/pic32mx/4.8.3/../../../../pic32mx/lib\libc.a(strncpy.o)
                0x9d028b58                strncpy

.text._EnetPoolFreeDcptList
                0x9d028bcc       0x70
 .text._EnetPoolFreeDcptList
                0x9d028bcc       0x70 build/default/debug/_ext/1749672254/drv_ethmac_lib.o

.text.DRV_MIIM_DeregisterCallback
                0x9d028c3c       0x70
 .text.DRV_MIIM_DeregisterCallback
                0x9d028c3c       0x70 build/default/debug/_ext/1568515672/drv_miim.o
                0x9d028c3c                DRV_MIIM_DeregisterCallback

.text.CommandQuit
                0x9d028cac       0x70
 .text.CommandQuit
                0x9d028cac       0x70 build/default/debug/_ext/1167192164/sys_command.o

.rodata         0x9d028d1c       0x70
 .rodata        0x9d028d1c       0x70 build/default/debug/_ext/1836803193/ipv4.o

.text._UDPFreeTxResources
                0x9d028d8c       0x70
 .text._UDPFreeTxResources
                0x9d028d8c       0x70 build/default/debug/_ext/1836803193/udp.o

.text._UDPClose
                0x9d028dfc       0x70
 .text._UDPClose
                0x9d028dfc       0x70 build/default/debug/_ext/1836803193/udp.o

.text._ARPSetEntry
                0x9d028e6c       0x70
 .text._ARPSetEntry
                0x9d028e6c       0x70 build/default/debug/_ext/1836803193/arp.o

.text._ARPRemoveEntry
                0x9d028edc       0x70
 .text._ARPRemoveEntry
                0x9d028edc       0x70 build/default/debug/_ext/1836803193/arp.o

.text.ANNOUNCE_Notify
                0x9d028f4c       0x70
 .text.ANNOUNCE_Notify
                0x9d028f4c       0x70 build/default/debug/_ext/1836803193/tcpip_announce.o

.text._MiimOpen
                0x9d028fbc       0x70
 .text._MiimOpen
                0x9d028fbc       0x70 build/default/debug/_ext/1836803193/tcpip_commands.o

.text._TCPIP_PKT_PacketAcknowledge
                0x9d02902c       0x70
 .text._TCPIP_PKT_PacketAcknowledge
                0x9d02902c       0x70 build/default/debug/_ext/1836803193/tcpip_packet.o
                0x9d02902c                _TCPIP_PKT_PacketAcknowledge

.text.strncmp   0x9d02909c       0x70
 .text.strncmp  0x9d02909c       0x70 c:/program files (x86)/microchip/xc32/v1.43/bin/bin/../../lib/gcc/pic32mx/4.8.3/../../../../pic32mx/lib\libc.a(strncmp.o)
                0x9d02909c                strncmp

.text._MacTxFreeCallback
                0x9d02910c       0x6c
 .text._MacTxFreeCallback
                0x9d02910c       0x6c build/default/debug/_ext/1749672254/drv_ethmac.o

.text._DRV_ETHPHY_SetupPhaseNegotiate_SubPhase2
                0x9d029178       0x6c
 .text._DRV_ETHPHY_SetupPhaseNegotiate_SubPhase2
                0x9d029178       0x6c build/default/debug/_ext/573518448/drv_ethphy.o

.text._TcpSocketKill
                0x9d0291e4       0x6c
 .text._TcpSocketKill
                0x9d0291e4       0x6c build/default/debug/_ext/1836803193/tcp.o

.text.TCPIP_UDP_OpenClientSkt
                0x9d029250       0x6c
 .text.TCPIP_UDP_OpenClientSkt
                0x9d029250       0x6c build/default/debug/_ext/1836803193/udp.o
                0x9d029250                TCPIP_UDP_OpenClientSkt

.text.TCPIP_UDP_SocketNetSet
                0x9d0292bc       0x6c
 .text.TCPIP_UDP_SocketNetSet
                0x9d0292bc       0x6c build/default/debug/_ext/1836803193/udp.o
                0x9d0292bc                TCPIP_UDP_SocketNetSet

.text._DNSGetData
                0x9d029328       0x6c
 .text._DNSGetData
                0x9d029328       0x6c build/default/debug/_ext/1836803193/dns.o

.text._TCPIP_PKT_SocketAlloc
                0x9d029394       0x6c
 .text._TCPIP_PKT_SocketAlloc
                0x9d029394       0x6c build/default/debug/_ext/1836803193/tcpip_packet.o
                0x9d029394                _TCPIP_PKT_SocketAlloc

.text._DRV_ETHPHY_NegRestartPhaseRead
                0x9d029400       0x68
 .text._DRV_ETHPHY_NegRestartPhaseRead
                0x9d029400       0x68 build/default/debug/_ext/573518448/drv_ethphy.o

.text._DRV_ETHPHY_SetupPhaseNegotiate_SubPhase5
                0x9d029468       0x68
 .text._DRV_ETHPHY_SetupPhaseNegotiate_SubPhase5
                0x9d029468       0x68 build/default/debug/_ext/573518448/drv_ethphy.o

.text._DRV_TMR_Resume
                0x9d0294d0       0x68
 .text._DRV_TMR_Resume
                0x9d0294d0       0x68 build/default/debug/_ext/528688037/drv_tmr.o

.text.Console_UART_Flush
                0x9d029538       0x68
 .text.Console_UART_Flush
                0x9d029538       0x68 build/default/debug/_ext/710479984/sys_console_uart.o
                0x9d029538                Console_UART_Flush

.text.SYS_RANDOM_Initialize
                0x9d0295a0       0x68
 .text.SYS_RANDOM_Initialize
                0x9d0295a0       0x68 build/default/debug/_ext/1584847572/sys_random.o
                0x9d0295a0                SYS_RANDOM_Initialize

.text.TCPIP_ARP_HashEntryDelete
                0x9d029608       0x68
 .text.TCPIP_ARP_HashEntryDelete
                0x9d029608       0x68 build/default/debug/_ext/1836803193/arp.o
                0x9d029608                TCPIP_ARP_HashEntryDelete

.text._DHCPSetRunFail
                0x9d029670       0x68
 .text._DHCPSetRunFail
                0x9d029670       0x68 build/default/debug/_ext/1836803193/dhcp.o

.text._DHCPSetTimeout
                0x9d0296d8       0x68
 .text._DHCPSetTimeout
                0x9d0296d8       0x68 build/default/debug/_ext/1836803193/dhcp.o

.text.TCPIP_DNS_RemoveEntry
                0x9d029740       0x68
 .text.TCPIP_DNS_RemoveEntry
                0x9d029740       0x68 build/default/debug/_ext/1836803193/dns.o
                0x9d029740                TCPIP_DNS_RemoveEntry

.text.TCPIP_ZCLL_Enable
                0x9d0297a8       0x68
 .text.TCPIP_ZCLL_Enable
                0x9d0297a8       0x68 build/default/debug/_ext/1836803193/zero_conf_link_local.o
                0x9d0297a8                TCPIP_ZCLL_Enable

.text.TCPIP_STACK_IsBcastAddress
                0x9d029810       0x68
 .text.TCPIP_STACK_IsBcastAddress
                0x9d029810       0x68 build/default/debug/_ext/1836803193/tcpip_manager.o
                0x9d029810                TCPIP_STACK_IsBcastAddress

.text._TCPIPStackModuleRxInsert
                0x9d029878       0x68
 .text._TCPIPStackModuleRxInsert
                0x9d029878       0x68 build/default/debug/_ext/1836803193/tcpip_manager.o
                0x9d029878                _TCPIPStackModuleRxInsert

.text._sprintf_cdnopsuxX
                0x9d0298e0       0x68
 .text._sprintf_cdnopsuxX
                0x9d0298e0       0x68 c:/program files (x86)/microchip/xc32/v1.43/bin/bin/../../lib/gcc/pic32mx/4.8.3/../../../../pic32mx/lib\libc.a(sprintf_cdnopsuxX.eo)
                0x9d0298e0                _sprintf_0
                0x9d0298e0                _sprintf_cdnopuxX
                0x9d0298e0                _sprintf_s
                0x9d0298e0                _sprintf_cdnopsuxX

.text._APP_PumpDNS
                0x9d029948       0x64
 .text._APP_PumpDNS
                0x9d029948       0x64 build/default/debug/_ext/1360937237/app.o
                0x9d029948                _APP_PumpDNS

.text._DRV_ETHPHY_NegCompletePhaseRead1
                0x9d0299ac       0x64
 .text._DRV_ETHPHY_NegCompletePhaseRead1
                0x9d0299ac       0x64 build/default/debug/_ext/573518448/drv_ethphy.o

.text._DRV_ETHPHY_LinkStatPhaseRefresh
                0x9d029a10       0x64
 .text._DRV_ETHPHY_LinkStatPhaseRefresh
                0x9d029a10       0x64 build/default/debug/_ext/573518448/drv_ethphy.o

.text.DRV_MIIM_Deinitialize
                0x9d029a74       0x64
 .text.DRV_MIIM_Deinitialize
                0x9d029a74       0x64 build/default/debug/_ext/1568515672/drv_miim.o
                0x9d029a74                DRV_MIIM_Deinitialize

.text.DRV_TMR_Start
                0x9d029ad8       0x64
 .text.DRV_TMR_Start
                0x9d029ad8       0x64 build/default/debug/_ext/528688037/drv_tmr.o
                0x9d029ad8                DRV_TMR_Start

.text.SendCommandCharacter
                0x9d029b3c       0x64
 .text.SendCommandCharacter
                0x9d029b3c       0x64 build/default/debug/_ext/1167192164/sys_command.o

.text.TCPIP_IPV4_Cleanup
                0x9d029ba0       0x64
 .text.TCPIP_IPV4_Cleanup
                0x9d029ba0       0x64 build/default/debug/_ext/1836803193/ipv4.o

.text.TCPIP_TCP_FifoTxFullGet
                0x9d029c04       0x64
 .text.TCPIP_TCP_FifoTxFullGet
                0x9d029c04       0x64 build/default/debug/_ext/1836803193/tcp.o
                0x9d029c04                TCPIP_TCP_FifoTxFullGet

.text.TCPIP_TCP_SignalHandlerRegister
                0x9d029c68       0x64
 .text.TCPIP_TCP_SignalHandlerRegister
                0x9d029c68       0x64 build/default/debug/_ext/1836803193/tcp.o
                0x9d029c68                TCPIP_TCP_SignalHandlerRegister

.text.TCPIP_UDP_SignalHandlerRegister
                0x9d029ccc       0x64
 .text.TCPIP_UDP_SignalHandlerRegister
                0x9d029ccc       0x64 build/default/debug/_ext/1836803193/udp.o
                0x9d029ccc                TCPIP_UDP_SignalHandlerRegister

.text.TCPIP_DHCP_Deinitialize
                0x9d029d30       0x64
 .text.TCPIP_DHCP_Deinitialize
                0x9d029d30       0x64 build/default/debug/_ext/1836803193/dhcp.o
                0x9d029d30                TCPIP_DHCP_Deinitialize

.text.TCPIP_DNS_ClientInfoGet
                0x9d029d94       0x64
 .text.TCPIP_DNS_ClientInfoGet
                0x9d029d94       0x64 build/default/debug/_ext/1836803193/dns.o
                0x9d029d94                TCPIP_DNS_ClientInfoGet

.text.TCPIP_ZCLL_Disable
                0x9d029df8       0x64
 .text.TCPIP_ZCLL_Disable
                0x9d029df8       0x64 build/default/debug/_ext/1836803193/zero_conf_link_local.o
                0x9d029df8                TCPIP_ZCLL_Disable

.text.SYS_Tasks
                0x9d029e5c       0x60
 .text.SYS_Tasks
                0x9d029e5c       0x60 build/default/debug/_ext/1688732426/system_tasks.o
                0x9d029e5c                SYS_Tasks

.text.APP_Commands_Init
                0x9d029ebc       0x60
 .text.APP_Commands_Init
                0x9d029ebc       0x60 build/default/debug/_ext/1360937237/app_command.o
                0x9d029ebc                APP_Commands_Init

.text.IPv4RegisterFilter
                0x9d029f1c       0x60
 .text.IPv4RegisterFilter
                0x9d029f1c       0x60 build/default/debug/_ext/1836803193/ipv4.o
                0x9d029f1c                IPv4RegisterFilter

.text.TCPIP_TCP_Connect
                0x9d029f7c       0x60
 .text.TCPIP_TCP_Connect
                0x9d029f7c       0x60 build/default/debug/_ext/1836803193/tcp.o
                0x9d029f7c                TCPIP_TCP_Connect

.text.TCPIP_TCP_Discard
                0x9d029fdc       0x60
 .text.TCPIP_TCP_Discard
                0x9d029fdc       0x60 build/default/debug/_ext/1836803193/tcp.o
                0x9d029fdc                TCPIP_TCP_Discard

.text.TCPIP_UDP_GetIsReady
                0x9d02a03c       0x60
 .text.TCPIP_UDP_GetIsReady
                0x9d02a03c       0x60 build/default/debug/_ext/1836803193/udp.o
                0x9d02a03c                TCPIP_UDP_GetIsReady

.text.TCPIP_ARP_CallbacksRegister
                0x9d02a09c       0x60
 .text.TCPIP_ARP_CallbacksRegister
                0x9d02a09c       0x60 build/default/debug/_ext/1836803193/arp.o
                0x9d02a09c                TCPIP_ARP_CallbacksRegister

.text._DHCPOptionProcessMsgType
                0x9d02a0fc       0x60
 .text._DHCPOptionProcessMsgType
                0x9d02a0fc       0x60 build/default/debug/_ext/1836803193/dhcp.o

.rodata         0x9d02a15c       0x60
 .rodata        0x9d02a15c       0x60 build/default/debug/_ext/1836803193/zero_conf_link_local.o

.text.TCPIP_OAHASH_EntriesRemoveAll
                0x9d02a1bc       0x60
 .text.TCPIP_OAHASH_EntriesRemoveAll
                0x9d02a1bc       0x60 build/default/debug/_ext/1836803193/oahash.o
                0x9d02a1bc                TCPIP_OAHASH_EntriesRemoveAll

.rodata         0x9d02a21c       0x60
 .rodata        0x9d02a21c       0x60 build/default/debug/_ext/1836803193/tcpip_helpers.o

.text._general_exception_handler
                0x9d02a27c       0x5c
 .text._general_exception_handler
                0x9d02a27c       0x5c build/default/debug/_ext/1688732426/system_exceptions.o
                0x9d02a27c                _general_exception_handler

.text._MacTxDiscardQueues
                0x9d02a2d8       0x5c
 .text._MacTxDiscardQueues
                0x9d02a2d8       0x5c build/default/debug/_ext/1749672254/drv_ethmac.o

.text.DRV_ETHPHY_LinkStatusGet
                0x9d02a334       0x5c
 .text.DRV_ETHPHY_LinkStatusGet
                0x9d02a334       0x5c build/default/debug/_ext/573518448/drv_ethphy.o
                0x9d02a334                DRV_ETHPHY_LinkStatusGet

.text.DRV_ETHPHY_NegotiationResultGet
                0x9d02a390       0x5c
 .text.DRV_ETHPHY_NegotiationResultGet
                0x9d02a390       0x5c build/default/debug/_ext/573518448/drv_ethphy.o
                0x9d02a390                DRV_ETHPHY_NegotiationResultGet

.text.DRV_TMR_AlarmEnable
                0x9d02a3ec       0x5c
 .text.DRV_TMR_AlarmEnable
                0x9d02a3ec       0x5c build/default/debug/_ext/528688037/drv_tmr.o
                0x9d02a3ec                DRV_TMR_AlarmEnable

.text._TCPSocketTxFreeSize
                0x9d02a448       0x5c
 .text._TCPSocketTxFreeSize
                0x9d02a448       0x5c build/default/debug/_ext/1836803193/tcp.o

.text.TCPIP_UDP_IsConnected
                0x9d02a4a4       0x5c
 .text.TCPIP_UDP_IsConnected
                0x9d02a4a4       0x5c build/default/debug/_ext/1836803193/udp.o
                0x9d02a4a4                TCPIP_UDP_IsConnected

.text._DNS_NetIsValid
                0x9d02a500       0x5c
 .text._DNS_NetIsValid
                0x9d02a500       0x5c build/default/debug/_ext/1836803193/dns.o

.text._FieldSetMacAddr
                0x9d02a55c       0x5c
 .text._FieldSetMacAddr
                0x9d02a55c       0x5c build/default/debug/_ext/1836803193/tcpip_announce.o
                0x9d02a55c                _FieldSetMacAddr

.text.fnv_32_hash
                0x9d02a5b8       0x5c
 .text.fnv_32_hash
                0x9d02a5b8       0x5c build/default/debug/_ext/1836803193/hash_fnv.o
                0x9d02a5b8                fnv_32_hash

.text.TCPIP_Helper_ProtectedSingleListLock
                0x9d02a614       0x5c
 .text.TCPIP_Helper_ProtectedSingleListLock
                0x9d02a614       0x5c build/default/debug/_ext/1836803193/tcpip_helpers.o
                0x9d02a614                TCPIP_Helper_ProtectedSingleListLock

.text.TCPIP_STACK_MACIdToNet
                0x9d02a670       0x5c
 .text.TCPIP_STACK_MACIdToNet
                0x9d02a670       0x5c build/default/debug/_ext/1836803193/tcpip_manager.o
                0x9d02a670                TCPIP_STACK_MACIdToNet

.text._vsnprintf_cdnopsuxX
                0x9d02a6cc       0x5c
 .text._vsnprintf_cdnopsuxX
                0x9d02a6cc       0x5c c:/program files (x86)/microchip/xc32/v1.43/bin/bin/../../lib/gcc/pic32mx/4.8.3/../../../../pic32mx/lib\libc.a(vsnprintf_cdnopsuxX.eo)
                0x9d02a6cc                _vsnprintf_cdnopsuxX

.text.vsnprintf
                0x9d02a728       0x5c
 .text.vsnprintf
                0x9d02a728       0x5c c:/program files (x86)/microchip/xc32/v1.43/bin/bin/../../lib/gcc/pic32mx/4.8.3/../../../../pic32mx/lib\libc.a(vsnprintf.o)
                0x9d02a728                vsnprintf

.text.SYS_DEVCON_SystemUnlock
                0x9d02a784       0x58
 .text.SYS_DEVCON_SystemUnlock
                0x9d02a784       0x58 build/default/debug/_ext/340578644/sys_devcon.o
                0x9d02a784                SYS_DEVCON_SystemUnlock

.text.TCPIP_STACK_Init
                0x9d02a7dc       0x58
 .text.TCPIP_STACK_Init
                0x9d02a7dc       0x58 build/default/debug/_ext/1688732426/system_init.o
                0x9d02a7dc                TCPIP_STACK_Init

.text.DRV_ETHMAC_PIC32MACLinkCheck
                0x9d02a834       0x58
 .text.DRV_ETHMAC_PIC32MACLinkCheck
                0x9d02a834       0x58 build/default/debug/_ext/1749672254/drv_ethmac.o
                0x9d02a834                DRV_ETHMAC_PIC32MACLinkCheck

.text.DRV_TMR_Open
                0x9d02a88c       0x58
 .text.DRV_TMR_Open
                0x9d02a88c       0x58 build/default/debug/_ext/528688037/drv_tmr.o
                0x9d02a88c                DRV_TMR_Open

.text.SendCommandMessage
                0x9d02a8e4       0x58
 .text.SendCommandMessage
                0x9d02a8e4       0x58 build/default/debug/_ext/1167192164/sys_command.o

.text.TCPIP_IPV4_CheckPktTx
                0x9d02a93c       0x58
 .text.TCPIP_IPV4_CheckPktTx
                0x9d02a93c       0x58 build/default/debug/_ext/1836803193/ipv4.o

.text._TCP_PortIsAvailable
                0x9d02a994       0x58
 .text._TCP_PortIsAvailable
                0x9d02a994       0x58 build/default/debug/_ext/1836803193/tcp.o

.text._DHCPOptionProcessLease
                0x9d02a9ec       0x58
 .text._DHCPOptionProcessLease
                0x9d02a9ec       0x58 build/default/debug/_ext/1836803193/dhcp.o

.text._DHCPOptionProcessRenewT
                0x9d02aa44       0x58
 .text._DHCPOptionProcessRenewT
                0x9d02aa44       0x58 build/default/debug/_ext/1836803193/dhcp.o

.text._DHCPOptionProcessRebindT
                0x9d02aa9c       0x58
 .text._DHCPOptionProcessRebindT
                0x9d02aa9c       0x58 build/default/debug/_ext/1836803193/dhcp.o

.text.TCPIP_ZCLL_Deinitialize
                0x9d02aaf4       0x58
 .text.TCPIP_ZCLL_Deinitialize
                0x9d02aaf4       0x58 build/default/debug/_ext/1836803193/zero_conf_link_local.o
                0x9d02aaf4                TCPIP_ZCLL_Deinitialize

.text.TCPIP_STACK_InitializeDataGet
                0x9d02ab4c       0x58
 .text.TCPIP_STACK_InitializeDataGet
                0x9d02ab4c       0x58 build/default/debug/_ext/1836803193/tcpip_manager.o
                0x9d02ab4c                TCPIP_STACK_InitializeDataGet

.text.TCPIP_STACK_NetByAddress
                0x9d02aba4       0x58
 .text.TCPIP_STACK_NetByAddress
                0x9d02aba4       0x58 build/default/debug/_ext/1836803193/tcpip_manager.o
                0x9d02aba4                TCPIP_STACK_NetByAddress

.text.TCPIP_Notification_Remove
                0x9d02abfc       0x58
 .text.TCPIP_Notification_Remove
                0x9d02abfc       0x58 build/default/debug/_ext/1836803193/tcpip_notify.o
                0x9d02abfc                TCPIP_Notification_Remove

.text.main_entry
                0x9d02ac54       0x54
 .text.main_entry
                0x9d02ac54       0x54 c:/program files (x86)/microchip/xc32/v1.43/bin/bin/../../lib/gcc/pic32mx/4.8.3/../../../../pic32mx/lib/./proc/32MX795F512H/crt0_mips32r2.o
                0x9d02ac88                __crt0_exit

.text.DRV_ETHMAC_PIC32MACOpen
                0x9d02aca8       0x54
 .text.DRV_ETHMAC_PIC32MACOpen
                0x9d02aca8       0x54 build/default/debug/_ext/1749672254/drv_ethmac.o
                0x9d02aca8                DRV_ETHMAC_PIC32MACOpen

.text._DRV_ETHMAC_LinkStateStartLink
                0x9d02acfc       0x54
 .text._DRV_ETHMAC_LinkStateStartLink
                0x9d02acfc       0x54 build/default/debug/_ext/1749672254/drv_ethmac.o

.text._EnetDescriptorsCount
                0x9d02ad50       0x54
 .text._EnetDescriptorsCount
                0x9d02ad50       0x54 build/default/debug/_ext/1749672254/drv_ethmac_lib.o

.text.SYS_INT_SourceDisable
                0x9d02ada4       0x54
 .text.SYS_INT_SourceDisable
                0x9d02ada4       0x54 build/default/debug/_ext/1670183176/sys_int_pic32.o
                0x9d02ada4                SYS_INT_SourceDisable

.text.TCPIP_ZCLL_ServiceEnable
                0x9d02adf8       0x54
 .text.TCPIP_ZCLL_ServiceEnable
                0x9d02adf8       0x54 build/default/debug/_ext/1836803193/zero_conf_link_local.o
                0x9d02adf8                TCPIP_ZCLL_ServiceEnable

.text._TCPIP_Helper_SecurePortEntry
                0x9d02ae4c       0x54
 .text._TCPIP_Helper_SecurePortEntry
                0x9d02ae4c       0x54 build/default/debug/_ext/1836803193/tcpip_helpers.o

.text.TCPIP_STACK_AddressServiceSelect
                0x9d02aea0       0x54
 .text.TCPIP_STACK_AddressServiceSelect
                0x9d02aea0       0x54 build/default/debug/_ext/1836803193/tcpip_manager.o
                0x9d02aea0                TCPIP_STACK_AddressServiceSelect

.text.TCPIP_Notification_Add
                0x9d02aef4       0x54
 .text.TCPIP_Notification_Add
                0x9d02aef4       0x54 build/default/debug/_ext/1836803193/tcpip_notify.o
                0x9d02aef4                TCPIP_Notification_Add

.text._XtlEventsTcp2Eth
                0x9d02af48       0x50
 .text._XtlEventsTcp2Eth
                0x9d02af48       0x50 build/default/debug/_ext/1749672254/drv_ethmac.o

.text.DRV_ETHPHY_HWConfigFlagsGet
                0x9d02af98       0x50
 .text.DRV_ETHPHY_HWConfigFlagsGet
                0x9d02af98       0x50 build/default/debug/_ext/573518448/drv_ethphy.o
                0x9d02af98                DRV_ETHPHY_HWConfigFlagsGet

.text._DRV_ETHPHY_NegResultPhase_ANLPAD
                0x9d02afe8       0x50
 .text._DRV_ETHPHY_NegResultPhase_ANLPAD
                0x9d02afe8       0x50 build/default/debug/_ext/573518448/drv_ethphy.o

.text._DRV_ETHPHY_NegResultPhase_ANEXP
                0x9d02b038       0x50
 .text._DRV_ETHPHY_NegResultPhase_ANEXP
                0x9d02b038       0x50 build/default/debug/_ext/573518448/drv_ethphy.o

.text.DRV_MIIM_Close
                0x9d02b088       0x50
 .text.DRV_MIIM_Close
                0x9d02b088       0x50 build/default/debug/_ext/1568515672/drv_miim.o
                0x9d02b088                DRV_MIIM_Close

.rodata         0x9d02b0d8       0x50
 .rodata        0x9d02b0d8       0x50 build/default/debug/_ext/1568515672/drv_miim.o
                0x9d02b0d8                DRV_MIIM_OBJECT_BASE_Default

.text._DRV_TMR_Suspend
                0x9d02b128       0x50
 .text._DRV_TMR_Suspend
                0x9d02b128       0x50 build/default/debug/_ext/528688037/drv_tmr.o

.text.SYS_TMR_ObjectDelete
                0x9d02b178       0x50
 .text.SYS_TMR_ObjectDelete
                0x9d02b178       0x50 build/default/debug/_ext/1482654414/sys_tmr.o
                0x9d02b178                SYS_TMR_ObjectDelete

.text._TCPSetSourceAddress
                0x9d02b1c8       0x50
 .text._TCPSetSourceAddress
                0x9d02b1c8       0x50 build/default/debug/_ext/1836803193/tcp.o

.text._TCPSetHalfFlushFlag
                0x9d02b218       0x50
 .text._TCPSetHalfFlushFlag
                0x9d02b218       0x50 build/default/debug/_ext/1836803193/tcp.o

.text._TcpFlush
                0x9d02b268       0x50
 .text._TcpFlush
                0x9d02b268       0x50 build/default/debug/_ext/1836803193/tcp.o

.rodata         0x9d02b2b8       0x50
 .rodata        0x9d02b2b8       0x50 build/default/debug/_ext/1836803193/tcp.o

.text._TCPIP_HEAP_FreeSize
                0x9d02b308       0x50
 .text._TCPIP_HEAP_FreeSize
                0x9d02b308       0x50 build/default/debug/_ext/1836803193/tcpip_heap_internal.o

.text._DHCPOptionWriteParamRequest
                0x9d02b358       0x50
 .text._DHCPOptionWriteParamRequest
                0x9d02b358       0x50 build/default/debug/_ext/1836803193/dhcp.o

.text._DHCPOptionProcessSrvIdent
                0x9d02b3a8       0x50
 .text._DHCPOptionProcessSrvIdent
                0x9d02b3a8       0x50 build/default/debug/_ext/1836803193/dhcp.o

.text.TCPIP_DNS_OAHASH_KeyHash
                0x9d02b3f8       0x50
 .text.TCPIP_DNS_OAHASH_KeyHash
                0x9d02b3f8       0x50 build/default/debug/_ext/1836803193/dns.o

.text.TCPIP_NBNS_Deinitialize
                0x9d02b448       0x50
 .text.TCPIP_NBNS_Deinitialize
                0x9d02b448       0x50 build/default/debug/_ext/1836803193/nbns.o
                0x9d02b448                TCPIP_NBNS_Deinitialize

.text._ZCLLDisable
                0x9d02b498       0x50
 .text._ZCLLDisable
                0x9d02b498       0x50 build/default/debug/_ext/1836803193/zero_conf_link_local.o

.text.TCPIP_Helper_ProtectedSingleListInitialize
                0x9d02b4e8       0x50
 .text.TCPIP_Helper_ProtectedSingleListInitialize
                0x9d02b4e8       0x50 build/default/debug/_ext/1836803193/tcpip_helpers.o
                0x9d02b4e8                TCPIP_Helper_ProtectedSingleListInitialize

.text.TCPIP_Helper_ProtectedSingleListUnlock
                0x9d02b538       0x50
 .text.TCPIP_Helper_ProtectedSingleListUnlock
                0x9d02b538       0x50 build/default/debug/_ext/1836803193/tcpip_helpers.o
                0x9d02b538                TCPIP_Helper_ProtectedSingleListUnlock

.text.TCPIP_STACK_NetMACStatisticsGet
                0x9d02b588       0x50
 .text.TCPIP_STACK_NetMACStatisticsGet
                0x9d02b588       0x50 build/default/debug/_ext/1836803193/tcpip_manager.o
                0x9d02b588                TCPIP_STACK_NetMACStatisticsGet

.text.TCPIP_STACK_NetMACRegisterStatisticsGet
                0x9d02b5d8       0x50
 .text.TCPIP_STACK_NetMACRegisterStatisticsGet
                0x9d02b5d8       0x50 build/default/debug/_ext/1836803193/tcpip_manager.o
                0x9d02b5d8                TCPIP_STACK_NetMACRegisterStatisticsGet

.text._TCPIPStackModuleSignalGet
                0x9d02b628       0x50
 .text._TCPIPStackModuleSignalGet
                0x9d02b628       0x50 build/default/debug/_ext/1836803193/tcpip_manager.o
                0x9d02b628                _TCPIPStackModuleSignalGet

.text.sbrk      0x9d02b678       0x50
 .text.sbrk     0x9d02b678       0x50 c:/program files (x86)/microchip/xc32/v1.43/bin/bin/../../lib/gcc/pic32mx/4.8.3/../../../../pic32mx/lib\libpic32.a(sbrk.o)
                0x9d02b678                sbrk

.text.SYS_RESET_SoftwareReset
                0x9d02b6c8       0x4c
 .text.SYS_RESET_SoftwareReset
                0x9d02b6c8       0x4c build/default/debug/_ext/68765530/sys_reset.o
                0x9d02b6c8                SYS_RESET_SoftwareReset

.text._MACTxPacketAckCallback
                0x9d02b714       0x4c
 .text._MACTxPacketAckCallback
                0x9d02b714       0x4c build/default/debug/_ext/1749672254/drv_ethmac.o

.text.DRV_ETHPHY_Close
                0x9d02b760       0x4c
 .text.DRV_ETHPHY_Close
                0x9d02b760       0x4c build/default/debug/_ext/573518448/drv_ethphy.o
                0x9d02b760                DRV_ETHPHY_Close

.text._DRV_ETHPHY_ClientOpReset
                0x9d02b7ac       0x4c
 .text._DRV_ETHPHY_ClientOpReset
                0x9d02b7ac       0x4c build/default/debug/_ext/573518448/drv_ethphy.o

.text._DRV_ETHPHY_ClientOpNegRestart
                0x9d02b7f8       0x4c
 .text._DRV_ETHPHY_ClientOpNegRestart
                0x9d02b7f8       0x4c build/default/debug/_ext/573518448/drv_ethphy.o

.text._DRV_ETHPHY_ClientOpNegResult
                0x9d02b844       0x4c
 .text._DRV_ETHPHY_ClientOpNegResult
                0x9d02b844       0x4c build/default/debug/_ext/573518448/drv_ethphy.o

.text._DRV_ETHPHY_ClientOpNegComplete
                0x9d02b890       0x4c
 .text._DRV_ETHPHY_ClientOpNegComplete
                0x9d02b890       0x4c build/default/debug/_ext/573518448/drv_ethphy.o

.text._DRV_PHY_NegCompleteSetOperResult
                0x9d02b8dc       0x4c
 .text._DRV_PHY_NegCompleteSetOperResult
                0x9d02b8dc       0x4c build/default/debug/_ext/573518448/drv_ethphy.o

.text._DRV_ETHPHY_ClientOpLinkStat
                0x9d02b928       0x4c
 .text._DRV_ETHPHY_ClientOpLinkStat
                0x9d02b928       0x4c build/default/debug/_ext/573518448/drv_ethphy.o

.text._DRV_ETHPHY_ClientOpSetup
                0x9d02b974       0x4c
 .text._DRV_ETHPHY_ClientOpSetup
                0x9d02b974       0x4c build/default/debug/_ext/573518448/drv_ethphy.o

.text._DRV_ETHPHY_SetupPhaseNegotiate
                0x9d02b9c0       0x4c
 .text._DRV_ETHPHY_SetupPhaseNegotiate
                0x9d02b9c0       0x4c build/default/debug/_ext/573518448/drv_ethphy.o

.text.DRV_ETHPHY_Reset
                0x9d02ba0c       0x4c
 .text.DRV_ETHPHY_Reset
                0x9d02ba0c       0x4c build/default/debug/_ext/573518448/drv_ethphy.o
                0x9d02ba0c                DRV_ETHPHY_Reset

.text.DRV_ETHPHY_NegotiationIsComplete
                0x9d02ba58       0x4c
 .text.DRV_ETHPHY_NegotiationIsComplete
                0x9d02ba58       0x4c build/default/debug/_ext/573518448/drv_ethphy.o
                0x9d02ba58                DRV_ETHPHY_NegotiationIsComplete

.text._DRV_ETHPHY_ClientOpSmiRead
                0x9d02baa4       0x4c
 .text._DRV_ETHPHY_ClientOpSmiRead
                0x9d02baa4       0x4c build/default/debug/_ext/573518448/drv_ethphy.o

.text._DRV_ETHPHY_SetupPhaseNegotiate_SubPhase4
                0x9d02baf0       0x4c
 .text._DRV_ETHPHY_SetupPhaseNegotiate_SubPhase4
                0x9d02baf0       0x4c build/default/debug/_ext/573518448/drv_ethphy.o

.text.SYS_CONSOLE_Tasks
                0x9d02bb3c       0x4c
 .text.SYS_CONSOLE_Tasks
                0x9d02bb3c       0x4c build/default/debug/_ext/710479984/sys_console.o
                0x9d02bb3c                SYS_CONSOLE_Tasks

.text.UARTDeviceEventHandler
                0x9d02bb88       0x4c
 .text.UARTDeviceEventHandler
                0x9d02bb88       0x4c build/default/debug/_ext/710479984/sys_console_uart.o
                0x9d02bb88                UARTDeviceEventHandler

.text.SYS_TMR_TickCountGetLong
                0x9d02bbd4       0x4c
 .text.SYS_TMR_TickCountGetLong
                0x9d02bbd4       0x4c build/default/debug/_ext/1482654414/sys_tmr.o
                0x9d02bbd4                SYS_TMR_TickCountGetLong

.text.TCPIP_TCP_Flush
                0x9d02bc20       0x4c
 .text.TCPIP_TCP_Flush
                0x9d02bc20       0x4c build/default/debug/_ext/1836803193/tcp.o
                0x9d02bc20                TCPIP_TCP_Flush

.text.TCPIP_UDP_Discard
                0x9d02bc6c       0x4c
 .text.TCPIP_UDP_Discard
                0x9d02bc6c       0x4c build/default/debug/_ext/1836803193/udp.o
                0x9d02bc6c                TCPIP_UDP_Discard

.text._TCPIP_HEAP_Calloc
                0x9d02bcb8       0x4c
 .text._TCPIP_HEAP_Calloc
                0x9d02bcb8       0x4c build/default/debug/_ext/1836803193/tcpip_heap_internal.o

.text._ARPRemoveCacheEntries
                0x9d02bd04       0x4c
 .text._ARPRemoveCacheEntries
                0x9d02bd04       0x4c build/default/debug/_ext/1836803193/arp.o

.text.TCPIP_NBNS_Cleanup
                0x9d02bd50       0x4c
 .text.TCPIP_NBNS_Cleanup
                0x9d02bd50       0x4c build/default/debug/_ext/1836803193/nbns.o

.text.TCPIP_STACK_NetAddressMacSet
                0x9d02bd9c       0x4c
 .text.TCPIP_STACK_NetAddressMacSet
                0x9d02bd9c       0x4c build/default/debug/_ext/1836803193/tcpip_manager.o
                0x9d02bd9c                TCPIP_STACK_NetAddressMacSet

.text.TCPIP_STACK_MACIdToString
                0x9d02bde8       0x4c
 .text.TCPIP_STACK_MACIdToString
                0x9d02bde8       0x4c build/default/debug/_ext/1836803193/tcpip_manager.o
                0x9d02bde8                TCPIP_STACK_MACIdToString

.text.TCPIP_STACK_DNSServiceCanStart
                0x9d02be34       0x4c
 .text.TCPIP_STACK_DNSServiceCanStart
                0x9d02be34       0x4c build/default/debug/_ext/1836803193/tcpip_manager.o
                0x9d02be34                TCPIP_STACK_DNSServiceCanStart

.text._TCPIPStackSignalHandlerSetParams
                0x9d02be80       0x4c
 .text._TCPIPStackSignalHandlerSetParams
                0x9d02be80       0x4c build/default/debug/_ext/1836803193/tcpip_manager.o
                0x9d02be80                _TCPIPStackSignalHandlerSetParams

.text.TCPIP_Notification_RemoveAll
                0x9d02becc       0x4c
 .text.TCPIP_Notification_RemoveAll
                0x9d02becc       0x4c build/default/debug/_ext/1836803193/tcpip_notify.o
                0x9d02becc                TCPIP_Notification_RemoveAll

.text.calloc    0x9d02bf18       0x4c
 .text.calloc   0x9d02bf18       0x4c c:/program files (x86)/microchip/xc32/v1.43/bin/bin/../../lib/gcc/pic32mx/4.8.3/../../../../pic32mx/lib\libc.a(calloc.o)
                0x9d02bf18                calloc

.text.SYS_CLK_SecondaryOscillatorEnable
                0x9d02bf64       0x48
 .text.SYS_CLK_SecondaryOscillatorEnable
                0x9d02bf64       0x48 build/default/debug/_ext/639803181/sys_clk_pic32mx.o
                0x9d02bf64                SYS_CLK_SecondaryOscillatorEnable

.text.SYS_DEVCON_SystemLock
                0x9d02bfac       0x48
 .text.SYS_DEVCON_SystemLock
                0x9d02bfac       0x48 build/default/debug/_ext/340578644/sys_devcon.o
                0x9d02bfac                SYS_DEVCON_SystemLock

.text.DRV_ETHPHY_Tasks
                0x9d02bff4       0x48
 .text.DRV_ETHPHY_Tasks
                0x9d02bff4       0x48 build/default/debug/_ext/573518448/drv_ethphy.o
                0x9d02bff4                DRV_ETHPHY_Tasks

.text.DRV_ETHPHY_RestartNegotiation
                0x9d02c03c       0x48
 .text.DRV_ETHPHY_RestartNegotiation
                0x9d02c03c       0x48 build/default/debug/_ext/573518448/drv_ethphy.o
                0x9d02c03c                DRV_ETHPHY_RestartNegotiation

.text.DRV_ETHPHY_Reinitialize
                0x9d02c084       0x48
 .text.DRV_ETHPHY_Reinitialize
                0x9d02c084       0x48 build/default/debug/_ext/573518448/drv_ethphy.o
                0x9d02c084                DRV_ETHPHY_Reinitialize

.text.DRV_TMR_Close
                0x9d02c0cc       0x48
 .text.DRV_TMR_Close
                0x9d02c0cc       0x48 build/default/debug/_ext/528688037/drv_tmr.o
                0x9d02c0cc                DRV_TMR_Close

.text.TCPIP_TCP_WasReset
                0x9d02c114       0x48
 .text.TCPIP_TCP_WasReset
                0x9d02c114       0x48 build/default/debug/_ext/1836803193/tcp.o
                0x9d02c114                TCPIP_TCP_WasReset

.text.TCPIP_TCP_SignalHandlerDeregister
                0x9d02c15c       0x48
 .text.TCPIP_TCP_SignalHandlerDeregister
                0x9d02c15c       0x48 build/default/debug/_ext/1836803193/tcp.o
                0x9d02c15c                TCPIP_TCP_SignalHandlerDeregister

.text._UDPIsAvailablePort
                0x9d02c1a4       0x48
 .text._UDPIsAvailablePort
                0x9d02c1a4       0x48 build/default/debug/_ext/1836803193/udp.o

.text.TCPIP_UDP_DestinationPortSet
                0x9d02c1ec       0x48
 .text.TCPIP_UDP_DestinationPortSet
                0x9d02c1ec       0x48 build/default/debug/_ext/1836803193/udp.o
                0x9d02c1ec                TCPIP_UDP_DestinationPortSet

.text.TCPIP_UDP_SignalHandlerDeregister
                0x9d02c234       0x48
 .text.TCPIP_UDP_SignalHandlerDeregister
                0x9d02c234       0x48 build/default/debug/_ext/1836803193/udp.o
                0x9d02c234                TCPIP_UDP_SignalHandlerDeregister

.text._TCPIP_HEAP_Size
                0x9d02c27c       0x48
 .text._TCPIP_HEAP_Size
                0x9d02c27c       0x48 build/default/debug/_ext/1836803193/tcpip_heap_internal.o

.text._TCPIP_HEAP_LastError
                0x9d02c2c4       0x48
 .text._TCPIP_HEAP_LastError
                0x9d02c2c4       0x48 build/default/debug/_ext/1836803193/tcpip_heap_internal.o

.text.TCPIP_ARP_HandlerDeRegister
                0x9d02c30c       0x48
 .text.TCPIP_ARP_HandlerDeRegister
                0x9d02c30c       0x48 build/default/debug/_ext/1836803193/arp.o
                0x9d02c30c                TCPIP_ARP_HandlerDeRegister

.text._DHCPOptionWriteMsgType
                0x9d02c354       0x48
 .text._DHCPOptionWriteMsgType
                0x9d02c354       0x48 build/default/debug/_ext/1836803193/dhcp.o

.text.TCPIP_Helper_SingleListAppend
                0x9d02c39c       0x48
 .text.TCPIP_Helper_SingleListAppend
                0x9d02c39c       0x48 build/default/debug/_ext/1836803193/tcpip_helpers.o
                0x9d02c39c                TCPIP_Helper_SingleListAppend

.text.TCPIP_STACK_IPAddToNet
                0x9d02c3e4       0x48
 .text.TCPIP_STACK_IPAddToNet
                0x9d02c3e4       0x48 build/default/debug/_ext/1836803193/tcpip_manager.o
                0x9d02c3e4                TCPIP_STACK_IPAddToNet

.text.TCPIP_STACK_NetworkAddressSet
                0x9d02c42c       0x48
 .text.TCPIP_STACK_NetworkAddressSet
                0x9d02c42c       0x48 build/default/debug/_ext/1836803193/tcpip_manager.o
                0x9d02c42c                TCPIP_STACK_NetworkAddressSet

.text.TCPIP_STACK_NetAddressSet
                0x9d02c474       0x48
 .text.TCPIP_STACK_NetAddressSet
                0x9d02c474       0x48 build/default/debug/_ext/1836803193/tcpip_manager.o
                0x9d02c474                TCPIP_STACK_NetAddressSet

.text._bootstrap_exception_handler
                0x9d02c4bc       0x48
 .text._bootstrap_exception_handler
                0x9d02c4bc       0x48 c:/program files (x86)/microchip/xc32/v1.43/bin/bin/../../lib/gcc/pic32mx/4.8.3/../../../../pic32mx/lib\libpic32.a(default-bootstrap-exception-handler.o)
                0x9d02c4bc                _bootstrap_exception_handler

.vector_default
                0x9d02c504       0x48
 .vector_default
                0x9d02c504       0x48 c:/program files (x86)/microchip/xc32/v1.43/bin/bin/../../lib/gcc/pic32mx/4.8.3/../../../../pic32mx/lib\libpic32.a(defaultinterrupt.o)
                0x9d02c504                _DefaultInterrupt

.text.SYS_CLK_Initialize
                0x9d02c54c       0x44
 .text.SYS_CLK_Initialize
                0x9d02c54c       0x44 build/default/debug/_ext/639803181/sys_clk_pic32mx.o
                0x9d02c54c                SYS_CLK_Initialize

.text.IsCommandReady
                0x9d02c590       0x44
 .text.IsCommandReady
                0x9d02c590       0x44 build/default/debug/_ext/1167192164/sys_command.o

.text.Ipv4DeRegisterFilter
                0x9d02c5d4       0x44
 .text.Ipv4DeRegisterFilter
                0x9d02c5d4       0x44 build/default/debug/_ext/1836803193/ipv4.o
                0x9d02c5d4                Ipv4DeRegisterFilter

.text.TCPIP_TCP_IsConnected
                0x9d02c618       0x44
 .text.TCPIP_TCP_IsConnected
                0x9d02c618       0x44 build/default/debug/_ext/1836803193/tcp.o
                0x9d02c618                TCPIP_TCP_IsConnected

.rodata         0x9d02c65c       0x44
 .rodata        0x9d02c65c       0x44 build/default/debug/_ext/1836803193/udp.o

.text.TCPIP_UDP_TxPointerGet
                0x9d02c6a0       0x44
 .text.TCPIP_UDP_TxPointerGet
                0x9d02c6a0       0x44 build/default/debug/_ext/1836803193/udp.o
                0x9d02c6a0                TCPIP_UDP_TxPointerGet

.text._SwapARPPacket
                0x9d02c6e4       0x44
 .text._SwapARPPacket
                0x9d02c6e4       0x44 build/default/debug/_ext/1836803193/arp.o

.text.TCPIP_DHCP_HandlerDeRegister
                0x9d02c728       0x44
 .text.TCPIP_DHCP_HandlerDeRegister
                0x9d02c728       0x44 build/default/debug/_ext/1836803193/dhcp.o
                0x9d02c728                TCPIP_DHCP_HandlerDeRegister

.text._TCPIP_STACK_TickHandler
                0x9d02c76c       0x44
 .text._TCPIP_STACK_TickHandler
                0x9d02c76c       0x44 build/default/debug/_ext/1836803193/tcpip_manager.o

.text.TCPIP_STACK_NetMask
                0x9d02c7b0       0x44
 .text.TCPIP_STACK_NetMask
                0x9d02c7b0       0x44 build/default/debug/_ext/1836803193/tcpip_manager.o
                0x9d02c7b0                TCPIP_STACK_NetMask

.text.TCPIP_STACK_NetIsBcastAddress
                0x9d02c7f4       0x44
 .text.TCPIP_STACK_NetIsBcastAddress
                0x9d02c7f4       0x44 build/default/debug/_ext/1836803193/tcpip_manager.o
                0x9d02c7f4                TCPIP_STACK_NetIsBcastAddress

.text.TCPIP_STACK_NetIsLinked
                0x9d02c838       0x44
 .text.TCPIP_STACK_NetIsLinked
                0x9d02c838       0x44 build/default/debug/_ext/1836803193/tcpip_manager.o
                0x9d02c838                TCPIP_STACK_NetIsLinked

.text.TCPIP_STACK_NetAddressMac
                0x9d02c87c       0x44
 .text.TCPIP_STACK_NetAddressMac
                0x9d02c87c       0x44 build/default/debug/_ext/1836803193/tcpip_manager.o
                0x9d02c87c                TCPIP_STACK_NetAddressMac

.text           0x9d02c8c0       0x88
 .text          0x9d02c8c0       0x44 c:/program files (x86)/microchip/xc32/v1.43/bin/bin/../../lib/gcc/pic32mx/4.8.3/../../../../pic32mx/lib\pic32_software_reset.o
                0x9d02c8c0                __pic32_software_reset
 .text          0x9d02c904       0x44 c:/program files (x86)/microchip/xc32/v1.43/bin/bin/../../lib/gcc/pic32mx/4.8.3\libgcc.a(floatunsidf.o)
                0x9d02c904                __floatunsidf

.text._APP_Commands_ChangeIP
                0x9d02c948       0x40
 .text._APP_Commands_ChangeIP
                0x9d02c948       0x40 build/default/debug/_ext/1360937237/app_command.o

.text._DRV_PHY_SetOperDoneResult
                0x9d02c988       0x40
 .text._DRV_PHY_SetOperDoneResult
                0x9d02c988       0x40 build/default/debug/_ext/573518448/drv_ethphy.o

.text._DRV_ETHPHY_NegCompletePhaseResultNoWait
                0x9d02c9c8       0x40
 .text._DRV_ETHPHY_NegCompletePhaseResultNoWait
                0x9d02c9c8       0x40 build/default/debug/_ext/573518448/drv_ethphy.o

.text.TCPIP_TCP_ClientOpen
                0x9d02ca08       0x40
 .text.TCPIP_TCP_ClientOpen
                0x9d02ca08       0x40 build/default/debug/_ext/1836803193/tcp.o
                0x9d02ca08                TCPIP_TCP_ClientOpen

.text.TCPIP_TCP_PutIsReady
                0x9d02ca48       0x40
 .text.TCPIP_TCP_PutIsReady
                0x9d02ca48       0x40 build/default/debug/_ext/1836803193/tcp.o
                0x9d02ca48                TCPIP_TCP_PutIsReady

.text._UDPFreeRxQueue
                0x9d02ca88       0x40
 .text._UDPFreeRxQueue
                0x9d02ca88       0x40 build/default/debug/_ext/1836803193/udp.o

.text.TCPIP_ICMP_Deinitialize
                0x9d02cac8       0x40
 .text.TCPIP_ICMP_Deinitialize
                0x9d02cac8       0x40 build/default/debug/_ext/1836803193/icmp.o
                0x9d02cac8                TCPIP_ICMP_Deinitialize

.text._ZCLLCleanup
                0x9d02cb08       0x40
 .text._ZCLLCleanup
                0x9d02cb08       0x40 build/default/debug/_ext/1836803193/zero_conf_link_local.o

.text.TCPIP_Commands_Deinitialize
                0x9d02cb48       0x40
 .text.TCPIP_Commands_Deinitialize
                0x9d02cb48       0x40 build/default/debug/_ext/1836803193/tcpip_commands.o
                0x9d02cb48                TCPIP_Commands_Deinitialize

.text._MacCallocCallback
                0x9d02cb88       0x3c
 .text._MacCallocCallback
                0x9d02cb88       0x3c build/default/debug/_ext/1749672254/drv_ethmac.o

.text._DRV_ETHMAC_LinkStateDown
                0x9d02cbc4       0x3c
 .text._DRV_ETHMAC_LinkStateDown
                0x9d02cbc4       0x3c build/default/debug/_ext/1749672254/drv_ethmac.o

.text.DRV_ETHMAC_SingleListHeadRemove
                0x9d02cc00       0x3c
 .text.DRV_ETHMAC_SingleListHeadRemove
                0x9d02cc00       0x3c build/default/debug/_ext/1749672254/drv_ethmac_lib.o
                0x9d02cc00                DRV_ETHMAC_SingleListHeadRemove

.text._DRV_ETHPHY_ClientOpSmiWrite
                0x9d02cc3c       0x3c
 .text._DRV_ETHPHY_ClientOpSmiWrite
                0x9d02cc3c       0x3c build/default/debug/_ext/573518448/drv_ethphy.o

.text._DRV_ETHPHY_NegRestartPhaseWrite
                0x9d02cc78       0x3c
 .text._DRV_ETHPHY_NegRestartPhaseWrite
                0x9d02cc78       0x3c build/default/debug/_ext/573518448/drv_ethphy.o

.text.DRV_MIIM_Status
                0x9d02ccb4       0x3c
 .text.DRV_MIIM_Status
                0x9d02ccb4       0x3c build/default/debug/_ext/1568515672/drv_miim.o
                0x9d02ccb4                DRV_MIIM_Status

.text.Helper_SingleListHeadRemove
                0x9d02ccf0       0x3c
 .text.Helper_SingleListHeadRemove
                0x9d02ccf0       0x3c build/default/debug/_ext/1568515672/drv_miim.o
                0x9d02ccf0                Helper_SingleListHeadRemove

.text.DRV_USART_ClientStatus
                0x9d02cd2c       0x3c
 .text.DRV_USART_ClientStatus
                0x9d02cd2c       0x3c build/default/debug/_ext/427015431/drv_usart.o
                0x9d02cd2c                DRV_USART_ClientStatus

.text.Console_UART_ReadC
                0x9d02cd68       0x3c
 .text.Console_UART_ReadC
                0x9d02cd68       0x3c build/default/debug/_ext/710479984/sys_console_uart.o
                0x9d02cd68                Console_UART_ReadC

.text.SYS_DEBUG_Message
                0x9d02cda4       0x3c
 .text.SYS_DEBUG_Message
                0x9d02cda4       0x3c build/default/debug/_ext/429005716/sys_debug.o
                0x9d02cda4                SYS_DEBUG_Message

.text._TCPIsGetReady
                0x9d02cde0       0x3c
 .text._TCPIsGetReady
                0x9d02cde0       0x3c build/default/debug/_ext/1836803193/tcp.o

.text.TCPIP_TCP_Disconnect
                0x9d02ce1c       0x3c
 .text.TCPIP_TCP_Disconnect
                0x9d02ce1c       0x3c build/default/debug/_ext/1836803193/tcp.o
                0x9d02ce1c                TCPIP_TCP_Disconnect

.text._UDPTxPktValid
                0x9d02ce58       0x3c
 .text._UDPTxPktValid
                0x9d02ce58       0x3c build/default/debug/_ext/1836803193/udp.o

.rodata         0x9d02ce94       0x3c
 .rodata        0x9d02ce94       0x3c build/default/debug/_ext/1836803193/tcpip_heap_alloc.o

.text._ARPTxAckFnc
                0x9d02ced0       0x3c
 .text._ARPTxAckFnc
                0x9d02ced0       0x3c build/default/debug/_ext/1836803193/arp.o

.text.TCPIP_ARP_HashKeyHash
                0x9d02cf0c       0x3c
 .text.TCPIP_ARP_HashKeyHash
                0x9d02cf0c       0x3c build/default/debug/_ext/1836803193/arp.o
                0x9d02cf0c                TCPIP_ARP_HashKeyHash

.text.TCPIP_DNS_IsResolved
                0x9d02cf48       0x3c
 .text.TCPIP_DNS_IsResolved
                0x9d02cf48       0x3c build/default/debug/_ext/1836803193/dns.o
                0x9d02cf48                TCPIP_DNS_IsResolved

.text.TCPIP_OAHASH_Initialize
                0x9d02cf84       0x3c
 .text.TCPIP_OAHASH_Initialize
                0x9d02cf84       0x3c build/default/debug/_ext/1836803193/oahash.o
                0x9d02cf84                TCPIP_OAHASH_Initialize

.text.TCPIP_Helper_SingleListHeadRemove
                0x9d02cfc0       0x3c
 .text.TCPIP_Helper_SingleListHeadRemove
                0x9d02cfc0       0x3c build/default/debug/_ext/1836803193/tcpip_helpers.o
                0x9d02cfc0                TCPIP_Helper_SingleListHeadRemove

.text._TCPIPSignalEntryNotify
                0x9d02cffc       0x3c
 .text._TCPIPSignalEntryNotify
                0x9d02cffc       0x3c build/default/debug/_ext/1836803193/tcpip_manager.o

.text.TCPIP_STACK_IndexToNet
                0x9d02d038       0x3c
 .text.TCPIP_STACK_IndexToNet
                0x9d02d038       0x3c build/default/debug/_ext/1836803193/tcpip_manager.o
                0x9d02d038                TCPIP_STACK_IndexToNet

.text._TCPIPStackSetConfigAddress
                0x9d02d074       0x3c
 .text._TCPIPStackSetConfigAddress
                0x9d02d074       0x3c build/default/debug/_ext/1836803193/tcpip_manager.o
                0x9d02d074                _TCPIPStackSetConfigAddress

.text.TCPIP_STACK_Deinitialize
                0x9d02d0b0       0x3c
 .text.TCPIP_STACK_Deinitialize
                0x9d02d0b0       0x3c build/default/debug/_ext/1836803193/tcpip_manager.o
                0x9d02d0b0                TCPIP_STACK_Deinitialize

.text._TCPIPStackPacketTx
                0x9d02d0ec       0x3c
 .text._TCPIPStackPacketTx
                0x9d02d0ec       0x3c build/default/debug/_ext/1836803193/tcpip_manager.o
                0x9d02d0ec                _TCPIPStackPacketTx

.text.DRV_ETHMAC_LibDescriptorGetBuffer
                0x9d02d128       0x38
 .text.DRV_ETHMAC_LibDescriptorGetBuffer
                0x9d02d128       0x38 build/default/debug/_ext/1749672254/drv_ethmac_lib.o
                0x9d02d128                DRV_ETHMAC_LibDescriptorGetBuffer

.text.DRV_ETHMAC_LibRxPendingBuffersGet
                0x9d02d160       0x38
 .text.DRV_ETHMAC_LibRxPendingBuffersGet
                0x9d02d160       0x38 build/default/debug/_ext/1749672254/drv_ethmac_lib.o
                0x9d02d160                DRV_ETHMAC_LibRxPendingBuffersGet

.text.DRV_ETHMAC_LibRxScheduledBuffersGet
                0x9d02d198       0x38
 .text.DRV_ETHMAC_LibRxScheduledBuffersGet
                0x9d02d198       0x38 build/default/debug/_ext/1749672254/drv_ethmac_lib.o
                0x9d02d198                DRV_ETHMAC_LibRxScheduledBuffersGet

.text.DRV_ETHMAC_LibTxPendingBuffersGet
                0x9d02d1d0       0x38
 .text.DRV_ETHMAC_LibTxPendingBuffersGet
                0x9d02d1d0       0x38 build/default/debug/_ext/1749672254/drv_ethmac_lib.o
                0x9d02d1d0                DRV_ETHMAC_LibTxPendingBuffersGet

.text._DRV_PHY_SMIReadStart
                0x9d02d208       0x38
 .text._DRV_PHY_SMIReadStart
                0x9d02d208       0x38 build/default/debug/_ext/573518448/drv_ethphy.o

.text._DRV_PHY_SMIWriteStart
                0x9d02d240       0x38
 .text._DRV_PHY_SMIWriteStart
                0x9d02d240       0x38 build/default/debug/_ext/573518448/drv_ethphy.o

.text._DRV_ETHPHY_ResetPhaseIdle
                0x9d02d278       0x38
 .text._DRV_ETHPHY_ResetPhaseIdle
                0x9d02d278       0x38 build/default/debug/_ext/573518448/drv_ethphy.o

.text.CommandReset
                0x9d02d2b0       0x38
 .text.CommandReset
                0x9d02d2b0       0x38 build/default/debug/_ext/1167192164/sys_command.o

.text._TcpSocketChk
                0x9d02d2e8       0x38
 .text._TcpSocketChk
                0x9d02d2e8       0x38 build/default/debug/_ext/1836803193/tcp.o

.text._UDPSocketDcpt
                0x9d02d320       0x38
 .text._UDPSocketDcpt
                0x9d02d320       0x38 build/default/debug/_ext/1836803193/udp.o

.text._ARPAllocateTxPacket
                0x9d02d358       0x38
 .text._ARPAllocateTxPacket
                0x9d02d358       0x38 build/default/debug/_ext/1836803193/arp.o

.text.TCPIP_ARP_CallbacksDeregister
                0x9d02d390       0x38
 .text.TCPIP_ARP_CallbacksDeregister
                0x9d02d390       0x38 build/default/debug/_ext/1836803193/arp.o
                0x9d02d390                TCPIP_ARP_CallbacksDeregister

.text.TCPIP_DHCP_Enable
                0x9d02d3c8       0x38
 .text.TCPIP_DHCP_Enable
                0x9d02d3c8       0x38 build/default/debug/_ext/1836803193/dhcp.o
                0x9d02d3c8                TCPIP_DHCP_Enable

.text.TCPIP_DHCP_Renew
                0x9d02d400       0x38
 .text.TCPIP_DHCP_Renew
                0x9d02d400       0x38 build/default/debug/_ext/1836803193/dhcp.o
                0x9d02d400                TCPIP_DHCP_Renew

.text.TCPIP_DHCP_Request
                0x9d02d438       0x38
 .text.TCPIP_DHCP_Request
                0x9d02d438       0x38 build/default/debug/_ext/1836803193/dhcp.o
                0x9d02d438                TCPIP_DHCP_Request

.text._FieldSetIpv4Addr
                0x9d02d470       0x38
 .text._FieldSetIpv4Addr
                0x9d02d470       0x38 build/default/debug/_ext/1836803193/tcpip_announce.o
                0x9d02d470                _FieldSetIpv4Addr

.text.TCPIP_STACK_AddressServiceDefaultSet
                0x9d02d4a8       0x38
 .text.TCPIP_STACK_AddressServiceDefaultSet
                0x9d02d4a8       0x38 build/default/debug/_ext/1836803193/tcpip_manager.o
                0x9d02d4a8                TCPIP_STACK_AddressServiceDefaultSet

.text.TCPIP_PKT_PayloadLen
                0x9d02d4e0       0x38
 .text.TCPIP_PKT_PayloadLen
                0x9d02d4e0       0x38 build/default/debug/_ext/1836803193/tcpip_packet.o
                0x9d02d4e0                TCPIP_PKT_PayloadLen

.text.DRV_ETHPHY_PhyAddressGet
                0x9d02d518       0x34
 .text.DRV_ETHPHY_PhyAddressGet
                0x9d02d518       0x34 build/default/debug/_ext/573518448/drv_ethphy.o
                0x9d02d518                DRV_ETHPHY_PhyAddressGet

.text.DRV_ETHPHY_ClientOperationAbort
                0x9d02d54c       0x34
 .text.DRV_ETHPHY_ClientOperationAbort
                0x9d02d54c       0x34 build/default/debug/_ext/573518448/drv_ethphy.o
                0x9d02d54c                DRV_ETHPHY_ClientOperationAbort

.text._DRV_ETHPHY_NegRestartPhaseIdle
                0x9d02d580       0x34
 .text._DRV_ETHPHY_NegRestartPhaseIdle
                0x9d02d580       0x34 build/default/debug/_ext/573518448/drv_ethphy.o

.text._DRV_ETHPHY_NegResultPhaseIdle
                0x9d02d5b4       0x34
 .text._DRV_ETHPHY_NegResultPhaseIdle
                0x9d02d5b4       0x34 build/default/debug/_ext/573518448/drv_ethphy.o

.text._DRV_ETHPHY_NegCompletePhaseIdle
                0x9d02d5e8       0x34
 .text._DRV_ETHPHY_NegCompletePhaseIdle
                0x9d02d5e8       0x34 build/default/debug/_ext/573518448/drv_ethphy.o

.text._DRV_ETHPHY_LinkStatPhaseIdle
                0x9d02d61c       0x34
 .text._DRV_ETHPHY_LinkStatPhaseIdle
                0x9d02d61c       0x34 build/default/debug/_ext/573518448/drv_ethphy.o

.text.TCPIP_TCP_GetIsReady
                0x9d02d650       0x34
 .text.TCPIP_TCP_GetIsReady
                0x9d02d650       0x34 build/default/debug/_ext/1836803193/tcp.o
                0x9d02d650                TCPIP_TCP_GetIsReady

.text._UDPUpdatePacketLock
                0x9d02d684       0x34
 .text._UDPUpdatePacketLock
                0x9d02d684       0x34 build/default/debug/_ext/1836803193/udp.o

.text.TCPIP_STACK_NetAddressBcast
                0x9d02d6b8       0x34
 .text.TCPIP_STACK_NetAddressBcast
                0x9d02d6b8       0x34 build/default/debug/_ext/1836803193/tcpip_manager.o
                0x9d02d6b8                TCPIP_STACK_NetAddressBcast

.text.TCPIP_STACK_DNSServiceSelect
                0x9d02d6ec       0x34
 .text.TCPIP_STACK_DNSServiceSelect
                0x9d02d6ec       0x34 build/default/debug/_ext/1836803193/tcpip_manager.o
                0x9d02d6ec                TCPIP_STACK_DNSServiceSelect

.text.TCPIP_STACK_NetAddress
                0x9d02d720       0x34
 .text.TCPIP_STACK_NetAddress
                0x9d02d720       0x34 build/default/debug/_ext/1836803193/tcpip_manager.o
                0x9d02d720                TCPIP_STACK_NetAddress

.text._TCPIPStackHandleToNetLinked
                0x9d02d754       0x34
 .text._TCPIPStackHandleToNetLinked
                0x9d02d754       0x34 build/default/debug/_ext/1836803193/tcpip_manager.o
                0x9d02d754                _TCPIPStackHandleToNetLinked

.text.TCPIP_STACK_NetIsReady
                0x9d02d788       0x34
 .text.TCPIP_STACK_NetIsReady
                0x9d02d788       0x34 build/default/debug/_ext/1836803193/tcpip_manager.o
                0x9d02d788                TCPIP_STACK_NetIsReady

.text.SYS_INT_SourceRestore
                0x9d02d7bc       0x30
 .text.SYS_INT_SourceRestore
                0x9d02d7bc       0x30 build/default/debug/_ext/1688732426/system_interrupt.o
                0x9d02d7bc                SYS_INT_SourceRestore

.text.DRV_ETHMAC_PIC32MACDeinitialize
                0x9d02d7ec       0x30
 .text.DRV_ETHMAC_PIC32MACDeinitialize
                0x9d02d7ec       0x30 build/default/debug/_ext/1749672254/drv_ethmac.o
                0x9d02d7ec                DRV_ETHMAC_PIC32MACDeinitialize

.text.DRV_ETHMAC_SingleListTailAdd
                0x9d02d81c       0x30
 .text.DRV_ETHMAC_SingleListTailAdd
                0x9d02d81c       0x30 build/default/debug/_ext/1749672254/drv_ethmac_lib.o
                0x9d02d81c                DRV_ETHMAC_SingleListTailAdd

.text.DRV_ETHPHY_VendorDataGet
                0x9d02d84c       0x30
 .text.DRV_ETHPHY_VendorDataGet
                0x9d02d84c       0x30 build/default/debug/_ext/573518448/drv_ethphy.o
                0x9d02d84c                DRV_ETHPHY_VendorDataGet

.text.Helper_SingleListTailAdd
                0x9d02d87c       0x30
 .text.Helper_SingleListTailAdd
                0x9d02d87c       0x30 build/default/debug/_ext/1568515672/drv_miim.o
                0x9d02d87c                Helper_SingleListTailAdd

.text.DRV_MIIM_Read
                0x9d02d8ac       0x30
 .text.DRV_MIIM_Read
                0x9d02d8ac       0x30 build/default/debug/_ext/1568515672/drv_miim.o
                0x9d02d8ac                DRV_MIIM_Read

.text.DRV_MIIM_Write
                0x9d02d8dc       0x30
 .text.DRV_MIIM_Write
                0x9d02d8dc       0x30 build/default/debug/_ext/1568515672/drv_miim.o
                0x9d02d8dc                DRV_MIIM_Write

.text.DRV_MIIM_Scan
                0x9d02d90c       0x30
 .text.DRV_MIIM_Scan
                0x9d02d90c       0x30 build/default/debug/_ext/1568515672/drv_miim.o
                0x9d02d90c                DRV_MIIM_Scan

.text.SYS_CMDIO_GET_HANDLE
                0x9d02d93c       0x30
 .text.SYS_CMDIO_GET_HANDLE
                0x9d02d93c       0x30 build/default/debug/_ext/1167192164/sys_command.o
                0x9d02d93c                SYS_CMDIO_GET_HANDLE

.text.popQueue  0x9d02d96c       0x30
 .text.popQueue
                0x9d02d96c       0x30 build/default/debug/_ext/710479984/sys_console_uart.o

.text.SYS_DEBUG_Initialize
                0x9d02d99c       0x30
 .text.SYS_DEBUG_Initialize
                0x9d02d99c       0x30 build/default/debug/_ext/429005716/sys_debug.o
                0x9d02d99c                SYS_DEBUG_Initialize

.text._DHCPSocketRxSignalHandler
                0x9d02d9cc       0x30
 .text._DHCPSocketRxSignalHandler
                0x9d02d9cc       0x30 build/default/debug/_ext/1836803193/dhcp.o

.text.TCPIP_DHCP_IsActive
                0x9d02d9fc       0x30
 .text.TCPIP_DHCP_IsActive
                0x9d02d9fc       0x30 build/default/debug/_ext/1836803193/dhcp.o
                0x9d02d9fc                TCPIP_DHCP_IsActive

.text._DNSSocketRxSignalHandler
                0x9d02da2c       0x30
 .text._DNSSocketRxSignalHandler
                0x9d02da2c       0x30 build/default/debug/_ext/1836803193/dns.o

.text.TCPIP_ICMP_Cleanup
                0x9d02da5c       0x30
 .text.TCPIP_ICMP_Cleanup
                0x9d02da5c       0x30 build/default/debug/_ext/1836803193/icmp.o

.text.NBNSSocketRxSignalHandler
                0x9d02da8c       0x30
 .text.NBNSSocketRxSignalHandler
                0x9d02da8c       0x30 build/default/debug/_ext/1836803193/nbns.o

.text._TCPIP_AnnounceSocketRxSignalHandler
                0x9d02dabc       0x30
 .text._TCPIP_AnnounceSocketRxSignalHandler
                0x9d02dabc       0x30 build/default/debug/_ext/1836803193/tcpip_announce.o

.text.TCPIP_OAHASH_EntryRemove
                0x9d02daec       0x30
 .text.TCPIP_OAHASH_EntryRemove
                0x9d02daec       0x30 build/default/debug/_ext/1836803193/oahash.o
                0x9d02daec                TCPIP_OAHASH_EntryRemove

.text.TCPIP_Helper_SingleListTailAdd
                0x9d02db1c       0x30
 .text.TCPIP_Helper_SingleListTailAdd
                0x9d02db1c       0x30 build/default/debug/_ext/1836803193/tcpip_helpers.o
                0x9d02db1c                TCPIP_Helper_SingleListTailAdd

.text.TCPIP_STACK_NetAddressGatewaySet
                0x9d02db4c       0x30
 .text.TCPIP_STACK_NetAddressGatewaySet
                0x9d02db4c       0x30 build/default/debug/_ext/1836803193/tcpip_manager.o
                0x9d02db4c                TCPIP_STACK_NetAddressGatewaySet

.text.TCPIP_STACK_NetAddressGet
                0x9d02db7c       0x30
 .text.TCPIP_STACK_NetAddressGet
                0x9d02db7c       0x30 build/default/debug/_ext/1836803193/tcpip_manager.o
                0x9d02db7c                TCPIP_STACK_NetAddressGet

.text.TCPIP_STACK_NetMaskGet
                0x9d02dbac       0x30
 .text.TCPIP_STACK_NetMaskGet
                0x9d02dbac       0x30 build/default/debug/_ext/1836803193/tcpip_manager.o
                0x9d02dbac                TCPIP_STACK_NetMaskGet

.text.TCPIP_STACK_NetworkIsLinked
                0x9d02dbdc       0x30
 .text.TCPIP_STACK_NetworkIsLinked
                0x9d02dbdc       0x30 build/default/debug/_ext/1836803193/tcpip_manager.o
                0x9d02dbdc                TCPIP_STACK_NetworkIsLinked

.text._TCPIPStackModuleRxExtract
                0x9d02dc0c       0x30
 .text._TCPIPStackModuleRxExtract
                0x9d02dc0c       0x30 build/default/debug/_ext/1836803193/tcpip_manager.o
                0x9d02dc0c                _TCPIPStackModuleRxExtract

.text.free      0x9d02dc3c       0x30
 .text.free     0x9d02dc3c       0x30 c:/program files (x86)/microchip/xc32/v1.43/bin/bin/../../lib/gcc/pic32mx/4.8.3/../../../../pic32mx/lib\libc.a(malloc.o)
                0x9d02dc3c                free

.text._APP_Commands_OpenURL
                0x9d02dc6c       0x2c
 .text._APP_Commands_OpenURL
                0x9d02dc6c       0x2c build/default/debug/_ext/1360937237/app_command.o

.text.DRV_USART_BufferEventHandlerSet
                0x9d02dc98       0x2c
 .text.DRV_USART_BufferEventHandlerSet
                0x9d02dc98       0x2c build/default/debug/_ext/427015431/drv_usart_buffer_queue.o
                0x9d02dc98                DRV_USART_BufferEventHandlerSet

.text._SYS_TMR_AlarmCallback
                0x9d02dcc4       0x2c
 .text._SYS_TMR_AlarmCallback
                0x9d02dcc4       0x2c build/default/debug/_ext/1482654414/sys_tmr.o

.text.TCPIP_IPV4_MaxDatagramDataSizeGet
                0x9d02dcf0       0x2c
 .text.TCPIP_IPV4_MaxDatagramDataSizeGet
                0x9d02dcf0       0x2c build/default/debug/_ext/1836803193/ipv4.o
                0x9d02dcf0                TCPIP_IPV4_MaxDatagramDataSizeGet

.text.TCPIP_OAHASH_EntryGet
                0x9d02dd1c       0x2c
 .text.TCPIP_OAHASH_EntryGet
                0x9d02dd1c       0x2c build/default/debug/_ext/1836803193/oahash.o
                0x9d02dd1c                TCPIP_OAHASH_EntryGet

.text.TCPIP_Helper_TCPSecurePortGet
                0x9d02dd48       0x2c
 .text.TCPIP_Helper_TCPSecurePortGet
                0x9d02dd48       0x2c build/default/debug/_ext/1836803193/tcpip_helpers.o
                0x9d02dd48                TCPIP_Helper_TCPSecurePortGet

.text.TCPIP_Helper_UDPSecurePortGet
                0x9d02dd74       0x2c
 .text.TCPIP_Helper_UDPSecurePortGet
                0x9d02dd74       0x2c build/default/debug/_ext/1836803193/tcpip_helpers.o
                0x9d02dd74                TCPIP_Helper_UDPSecurePortGet

.text.TCPIP_STACK_NetDefaultSet
                0x9d02dda0       0x2c
 .text.TCPIP_STACK_NetDefaultSet
                0x9d02dda0       0x2c build/default/debug/_ext/1836803193/tcpip_manager.o
                0x9d02dda0                TCPIP_STACK_NetDefaultSet

.text.TCPIP_STACK_NetNameGet
                0x9d02ddcc       0x2c
 .text.TCPIP_STACK_NetNameGet
                0x9d02ddcc       0x2c build/default/debug/_ext/1836803193/tcpip_manager.o
                0x9d02ddcc                TCPIP_STACK_NetNameGet

.text.TCPIP_STACK_NetAddressDnsPrimarySet
                0x9d02ddf8       0x2c
 .text.TCPIP_STACK_NetAddressDnsPrimarySet
                0x9d02ddf8       0x2c build/default/debug/_ext/1836803193/tcpip_manager.o
                0x9d02ddf8                TCPIP_STACK_NetAddressDnsPrimarySet

.text.TCPIP_Notification_Deinitialize
                0x9d02de24       0x2c
 .text.TCPIP_Notification_Deinitialize
                0x9d02de24       0x2c build/default/debug/_ext/1836803193/tcpip_notify.o
                0x9d02de24                TCPIP_Notification_Deinitialize

.text.strchr    0x9d02de50       0x2c
 .text.strchr   0x9d02de50       0x2c c:/program files (x86)/microchip/xc32/v1.43/bin/bin/../../lib/gcc/pic32mx/4.8.3/../../../../pic32mx/lib\libc.a(strchr.o)
                0x9d02de50                strchr

.text._stub_sbd_memlayout
                0x9d02de7c       0x2c
 .text._stub_sbd_memlayout
                0x9d02de7c       0x2c c:/program files (x86)/microchip/xc32/v1.43/bin/bin/../../lib/gcc/pic32mx/4.8.3/../../../../pic32mx/lib\libpic32.a(sbrk.o)
                0x9d02de7c                _sbd_memlayout
                0x9d02de7c                _stub_sbd_memlayout

.text.DRV_MIIM_ClientStatus
                0x9d02dea8       0x28
 .text.DRV_MIIM_ClientStatus
                0x9d02dea8       0x28 build/default/debug/_ext/1568515672/drv_miim.o
                0x9d02dea8                DRV_MIIM_ClientStatus

.text._DRV_USART_DriverHandleValidate
                0x9d02ded0       0x28
 .text._DRV_USART_DriverHandleValidate
                0x9d02ded0       0x28 build/default/debug/_ext/427015431/drv_usart.o
                0x9d02ded0                _DRV_USART_DriverHandleValidate

.text.Console_UART_RegisterCallback
                0x9d02def8       0x28
 .text.Console_UART_RegisterCallback
                0x9d02def8       0x28 build/default/debug/_ext/710479984/sys_console_uart.o
                0x9d02def8                Console_UART_RegisterCallback

.text.SYS_TMR_TickCountGet
                0x9d02df20       0x28
 .text.SYS_TMR_TickCountGet
                0x9d02df20       0x28 build/default/debug/_ext/1482654414/sys_tmr.o
                0x9d02df20                SYS_TMR_TickCountGet

.text._FieldSetTruncated
                0x9d02df48       0x28
 .text._FieldSetTruncated
                0x9d02df48       0x28 build/default/debug/_ext/1836803193/tcpip_announce.o
                0x9d02df48                _FieldSetTruncated

.text.TCPIP_STACK_NetAddressGateway
                0x9d02df70       0x28
 .text.TCPIP_STACK_NetAddressGateway
                0x9d02df70       0x28 build/default/debug/_ext/1836803193/tcpip_manager.o
                0x9d02df70                TCPIP_STACK_NetAddressGateway

.text.TCPIP_STACK_NetAddressDnsPrimary
                0x9d02df98       0x28
 .text.TCPIP_STACK_NetAddressDnsPrimary
                0x9d02df98       0x28 build/default/debug/_ext/1836803193/tcpip_manager.o
                0x9d02df98                TCPIP_STACK_NetAddressDnsPrimary

.text.TCPIP_STACK_NetMACAddressGet
                0x9d02dfc0       0x28
 .text.TCPIP_STACK_NetMACAddressGet
                0x9d02dfc0       0x28 build/default/debug/_ext/1836803193/tcpip_manager.o
                0x9d02dfc0                TCPIP_STACK_NetMACAddressGet

.text._TCPIPStackSignalHandlerDeregister
                0x9d02dfe8       0x28
 .text._TCPIPStackSignalHandlerDeregister
                0x9d02dfe8       0x28 build/default/debug/_ext/1836803193/tcpip_manager.o
                0x9d02dfe8                _TCPIPStackSignalHandlerDeregister

.text._snprintf_cdnopsuxX
                0x9d02e010       0x28
 .text._snprintf_cdnopsuxX
                0x9d02e010       0x28 c:/program files (x86)/microchip/xc32/v1.43/bin/bin/../../lib/gcc/pic32mx/4.8.3/../../../../pic32mx/lib\libc.a(snprintf_cdnopsuxX.eo)
                0x9d02e010                _snprintf_cdnopsuxX

.text.DRV_ETHMAC_PIC32MACClose
                0x9d02e038       0x24
 .text.DRV_ETHMAC_PIC32MACClose
                0x9d02e038       0x24 build/default/debug/_ext/1749672254/drv_ethmac.o
                0x9d02e038                DRV_ETHMAC_PIC32MACClose

.text.SYS_TMR_TickCounterFrequencyGet
                0x9d02e05c       0x24
 .text.SYS_TMR_TickCounterFrequencyGet
                0x9d02e05c       0x24 build/default/debug/_ext/1482654414/sys_tmr.o
                0x9d02e05c                SYS_TMR_TickCounterFrequencyGet

.text.SYS_TMR_SystemCountFrequencyGet
                0x9d02e080       0x24
 .text.SYS_TMR_SystemCountFrequencyGet
                0x9d02e080       0x24 build/default/debug/_ext/1482654414/sys_tmr.o
                0x9d02e080                SYS_TMR_SystemCountFrequencyGet

.text._TCP_TxPktValid
                0x9d02e0a4       0x24
 .text._TCP_TxPktValid
                0x9d02e0a4       0x24 build/default/debug/_ext/1836803193/tcp.o

.rodata         0x9d02e0c8       0x24
 .rodata        0x9d02e0c8       0x24 build/default/debug/_ext/1836803193/tcpip_heap_internal.o

.text._DHCPOptionWriteEnd
                0x9d02e0ec       0x24
 .text._DHCPOptionWriteEnd
                0x9d02e0ec       0x24 build/default/debug/_ext/1836803193/dhcp.o

.text.TCPIP_ZCLL_IsEnabled
                0x9d02e110       0x24
 .text.TCPIP_ZCLL_IsEnabled
                0x9d02e110       0x24 build/default/debug/_ext/1836803193/zero_conf_link_local.o
                0x9d02e110                TCPIP_ZCLL_IsEnabled

.text._TCPIPSignalEntrySetNotify
                0x9d02e134       0x24
 .text._TCPIPSignalEntrySetNotify
                0x9d02e134       0x24 build/default/debug/_ext/1836803193/tcpip_manager.o

.text.toupper   0x9d02e158       0x24
 .text.toupper  0x9d02e158       0x24 c:/program files (x86)/microchip/xc32/v1.43/bin/bin/../../lib/gcc/pic32mx/4.8.3/../../../../pic32mx/lib\libc.a(ctypef.o)
                0x9d02e158                toupper

.text.APP_Initialize
                0x9d02e17c       0x20
 .text.APP_Initialize
                0x9d02e17c       0x20 build/default/debug/_ext/1360937237/app.o
                0x9d02e17c                APP_Initialize

.text.main      0x9d02e19c       0x20
 .text.main     0x9d02e19c       0x20 build/default/debug/_ext/1360937237/main.o
                0x9d02e19c                main

.text.DRV_ETHMAC_PIC32MACStatus
                0x9d02e1bc       0x20
 .text.DRV_ETHMAC_PIC32MACStatus
                0x9d02e1bc       0x20 build/default/debug/_ext/1749672254/drv_ethmac.o
                0x9d02e1bc                DRV_ETHMAC_PIC32MACStatus

.text.SYS_CMD_MESSAGE
                0x9d02e1dc       0x20
 .text.SYS_CMD_MESSAGE
                0x9d02e1dc       0x20 build/default/debug/_ext/1167192164/sys_command.o
                0x9d02e1dc                SYS_CMD_MESSAGE

.text._TCPIP_HEAP_FindDcpt
                0x9d02e1fc       0x20
 .text._TCPIP_HEAP_FindDcpt
                0x9d02e1fc       0x20 build/default/debug/_ext/1836803193/tcpip_heap_alloc.o

.text.TCPIP_HEAP_FreeDebug
                0x9d02e21c       0x20
 .text.TCPIP_HEAP_FreeDebug
                0x9d02e21c       0x20 build/default/debug/_ext/1836803193/tcpip_heap_alloc.o
                0x9d02e21c                TCPIP_HEAP_FreeDebug

.rodata         0x9d02e23c       0x20
 .rodata        0x9d02e23c       0x20 build/default/debug/_ext/1836803193/arp.o

.text.TCPIP_DNS_OAHASH_KeyCompare
                0x9d02e25c       0x20
 .text.TCPIP_DNS_OAHASH_KeyCompare
                0x9d02e25c       0x20 build/default/debug/_ext/1836803193/dns.o

.text.TCPIP_DNS_GetIPv4Addresses
                0x9d02e27c       0x20
 .text.TCPIP_DNS_GetIPv4Addresses
                0x9d02e27c       0x20 build/default/debug/_ext/1836803193/dns.o
                0x9d02e27c                TCPIP_DNS_GetIPv4Addresses

.text.TCPIP_DNS_GetIPv6Addresses
                0x9d02e29c       0x20
 .text.TCPIP_DNS_GetIPv6Addresses
                0x9d02e29c       0x20 build/default/debug/_ext/1836803193/dns.o
                0x9d02e29c                TCPIP_DNS_GetIPv6Addresses

.text.TCPIP_DNS_Enable
                0x9d02e2bc       0x20
 .text.TCPIP_DNS_Enable
                0x9d02e2bc       0x20 build/default/debug/_ext/1836803193/dns.o
                0x9d02e2bc                TCPIP_DNS_Enable

.text.TCPIP_STACK_Status
                0x9d02e2dc       0x20
 .text.TCPIP_STACK_Status
                0x9d02e2dc       0x20 build/default/debug/_ext/1836803193/tcpip_manager.o
                0x9d02e2dc                TCPIP_STACK_Status

.text.TCPIP_STACK_NetIsUp
                0x9d02e2fc       0x20
 .text.TCPIP_STACK_NetIsUp
                0x9d02e2fc       0x20 build/default/debug/_ext/1836803193/tcpip_manager.o
                0x9d02e2fc                TCPIP_STACK_NetIsUp

.text.TCPIP_STACK_AddressServiceCanStart
                0x9d02e31c       0x20
 .text.TCPIP_STACK_AddressServiceCanStart
                0x9d02e31c       0x20 build/default/debug/_ext/1836803193/tcpip_manager.o
                0x9d02e31c                TCPIP_STACK_AddressServiceCanStart

.text.TCPIP_STACK_HeapHandleGet
                0x9d02e33c       0x20
 .text.TCPIP_STACK_HeapHandleGet
                0x9d02e33c       0x20 build/default/debug/_ext/1836803193/tcpip_manager.o
                0x9d02e33c                TCPIP_STACK_HeapHandleGet

.rodata         0x9d02e35c       0x20
 .rodata        0x9d02e35c       0x20 build/default/debug/_ext/1836803193/tcpip_packet.o

.text.DRV_ETHPHY_Deinitialize
                0x9d02e37c       0x1c
 .text.DRV_ETHPHY_Deinitialize
                0x9d02e37c       0x1c build/default/debug/_ext/573518448/drv_ethphy.o
                0x9d02e37c                DRV_ETHPHY_Deinitialize

.text.DRV_ETHPHY_VendorDataSet
                0x9d02e398       0x1c
 .text.DRV_ETHPHY_VendorDataSet
                0x9d02e398       0x1c build/default/debug/_ext/573518448/drv_ethphy.o
                0x9d02e398                DRV_ETHPHY_VendorDataSet

.text._DRV_ETHPHY_ClientOpSmiScan
                0x9d02e3b4       0x1c
 .text._DRV_ETHPHY_ClientOpSmiScan
                0x9d02e3b4       0x1c build/default/debug/_ext/573518448/drv_ethphy.o

.rodata         0x9d02e3d0       0x1c
 .rodata        0x9d02e3d0       0x1c build/default/debug/_ext/528688037/drv_tmr.o

.text.SYS_INT_StatusGetAndDisable
                0x9d02e3ec       0x1c
 .text.SYS_INT_StatusGetAndDisable
                0x9d02e3ec       0x1c build/default/debug/_ext/1670183176/sys_int_pic32.o
                0x9d02e3ec                SYS_INT_StatusGetAndDisable

.text.SYS_INT_StatusRestore
                0x9d02e408       0x1c
 .text.SYS_INT_StatusRestore
                0x9d02e408       0x1c build/default/debug/_ext/1670183176/sys_int_pic32.o
                0x9d02e408                SYS_INT_StatusRestore

.text.SYS_RANDOM_PseudoGet
                0x9d02e424       0x1c
 .text.SYS_RANDOM_PseudoGet
                0x9d02e424       0x1c build/default/debug/_ext/1584847572/sys_random.o
                0x9d02e424                SYS_RANDOM_PseudoGet

.text.SYS_TMR_CallbackStop
                0x9d02e440       0x1c
 .text.SYS_TMR_CallbackStop
                0x9d02e440       0x1c build/default/debug/_ext/1482654414/sys_tmr.o
                0x9d02e440                SYS_TMR_CallbackStop

.text.SYS_TMR_CallbackPeriodic
                0x9d02e45c       0x1c
 .text.SYS_TMR_CallbackPeriodic
                0x9d02e45c       0x1c build/default/debug/_ext/1482654414/sys_tmr.o
                0x9d02e45c                SYS_TMR_CallbackPeriodic

.text.btohexa_high
                0x9d02e478       0x1c
 .text.btohexa_high
                0x9d02e478       0x1c build/default/debug/_ext/157393855/helpers.o
                0x9d02e478                btohexa_high

.text.btohexa_low
                0x9d02e494       0x1c
 .text.btohexa_low
                0x9d02e494       0x1c build/default/debug/_ext/157393855/helpers.o
                0x9d02e494                btohexa_low

.text.TCPIP_UDP_ServerOpen
                0x9d02e4b0       0x1c
 .text.TCPIP_UDP_ServerOpen
                0x9d02e4b0       0x1c build/default/debug/_ext/1836803193/udp.o
                0x9d02e4b0                TCPIP_UDP_ServerOpen

.text.TCPIP_UDP_ClientOpen
                0x9d02e4cc       0x1c
 .text.TCPIP_UDP_ClientOpen
                0x9d02e4cc       0x1c build/default/debug/_ext/1836803193/udp.o
                0x9d02e4cc                TCPIP_UDP_ClientOpen

.text.TCPIP_UDP_TxPutIsReady
                0x9d02e4e8       0x1c
 .text.TCPIP_UDP_TxPutIsReady
                0x9d02e4e8       0x1c build/default/debug/_ext/1836803193/udp.o
                0x9d02e4e8                TCPIP_UDP_TxPutIsReady

.text.TCPIP_UDP_Get
                0x9d02e504       0x1c
 .text.TCPIP_UDP_Get
                0x9d02e504       0x1c build/default/debug/_ext/1836803193/udp.o
                0x9d02e504                TCPIP_UDP_Get

.text._TCPIP_HEAP_AllocSize
                0x9d02e520       0x1c
 .text._TCPIP_HEAP_AllocSize
                0x9d02e520       0x1c build/default/debug/_ext/1836803193/tcpip_heap_internal.o

.text.TCPIP_DNS_Resolve
                0x9d02e53c       0x1c
 .text.TCPIP_DNS_Resolve
                0x9d02e53c       0x1c build/default/debug/_ext/1836803193/dns.o
                0x9d02e53c                TCPIP_DNS_Resolve

.rodata         0x9d02e558       0x1c
 .rodata        0x9d02e558       0x1c build/default/debug/_ext/1836803193/tcpip_announce.o

.text._Command_ZcllOnOff
                0x9d02e574       0x1c
 .text._Command_ZcllOnOff
                0x9d02e574       0x1c build/default/debug/_ext/1836803193/tcpip_commands.o

.text._Command_DHCPSOnOff
                0x9d02e590       0x1c
 .text._Command_DHCPSOnOff
                0x9d02e590       0x1c build/default/debug/_ext/1836803193/tcpip_commands.o

.text.TCPIP_Helper_ChecksumFold
                0x9d02e5ac       0x1c
 .text.TCPIP_Helper_ChecksumFold
                0x9d02e5ac       0x1c build/default/debug/_ext/1836803193/tcpip_helpers.o
                0x9d02e5ac                TCPIP_Helper_ChecksumFold

.text.TCPIP_Notification_Initialize
                0x9d02e5c8       0x1c
 .text.TCPIP_Notification_Initialize
                0x9d02e5c8       0x1c build/default/debug/_ext/1836803193/tcpip_notify.o
                0x9d02e5c8                TCPIP_Notification_Initialize

.text.srand     0x9d02e5e4       0x1c
 .text.srand    0x9d02e5e4       0x1c c:/program files (x86)/microchip/xc32/v1.43/bin/bin/../../lib/gcc/pic32mx/4.8.3/../../../../pic32mx/lib\libc.a(rand.o)
                0x9d02e5e4                srand

.text.SYS_DEVCON_JTAGDisable
                0x9d02e600       0x18
 .text.SYS_DEVCON_JTAGDisable
                0x9d02e600       0x18 build/default/debug/_ext/340578644/sys_devcon.o
                0x9d02e600                SYS_DEVCON_JTAGDisable

.text.DRV_ETHPHY_Status
                0x9d02e618       0x18
 .text.DRV_ETHPHY_Status
                0x9d02e618       0x18 build/default/debug/_ext/573518448/drv_ethphy.o
                0x9d02e618                DRV_ETHPHY_Status

.text.DRV_ETHPHY_ClientStatus
                0x9d02e630       0x18
 .text.DRV_ETHPHY_ClientStatus
                0x9d02e630       0x18 build/default/debug/_ext/573518448/drv_ethphy.o
                0x9d02e630                DRV_ETHPHY_ClientStatus

.text.DRV_ETHPHY_ClientOperationResult
                0x9d02e648       0x18
 .text.DRV_ETHPHY_ClientOperationResult
                0x9d02e648       0x18 build/default/debug/_ext/573518448/drv_ethphy.o
                0x9d02e648                DRV_ETHPHY_ClientOperationResult

.text.SYS_TMR_ModuleStatusGet
                0x9d02e660       0x18
 .text.SYS_TMR_ModuleStatusGet
                0x9d02e660       0x18 build/default/debug/_ext/1482654414/sys_tmr.o
                0x9d02e660                SYS_TMR_ModuleStatusGet

.text.TCPIP_ARP_HashKeyCompare
                0x9d02e678       0x18
 .text.TCPIP_ARP_HashKeyCompare
                0x9d02e678       0x18 build/default/debug/_ext/1836803193/arp.o
                0x9d02e678                TCPIP_ARP_HashKeyCompare

.text.TCPIP_STACK_NetIndexGet
                0x9d02e690       0x18
 .text.TCPIP_STACK_NetIndexGet
                0x9d02e690       0x18 build/default/debug/_ext/1836803193/tcpip_manager.o
                0x9d02e690                TCPIP_STACK_NetIndexGet

.text.TCPIP_STACK_NetIxGet
                0x9d02e6a8       0x18
 .text.TCPIP_STACK_NetIxGet
                0x9d02e6a8       0x18 build/default/debug/_ext/1836803193/tcpip_manager.o
                0x9d02e6a8                TCPIP_STACK_NetIxGet

.text.TCPIP_STACK_GatewayAddressSet
                0x9d02e6c0       0x18
 .text.TCPIP_STACK_GatewayAddressSet
                0x9d02e6c0       0x18 build/default/debug/_ext/1836803193/tcpip_manager.o
                0x9d02e6c0                TCPIP_STACK_GatewayAddressSet

.text.TCPIP_STACK_PrimaryDNSAddressSet
                0x9d02e6d8       0x18
 .text.TCPIP_STACK_PrimaryDNSAddressSet
                0x9d02e6d8       0x18 build/default/debug/_ext/1836803193/tcpip_manager.o
                0x9d02e6d8                TCPIP_STACK_PrimaryDNSAddressSet

.text.TCPIP_STACK_SecondaryDNSAddressSet
                0x9d02e6f0       0x18
 .text.TCPIP_STACK_SecondaryDNSAddressSet
                0x9d02e6f0       0x18 build/default/debug/_ext/1836803193/tcpip_manager.o
                0x9d02e6f0                TCPIP_STACK_SecondaryDNSAddressSet

.text           0x9d02e708       0x18
 .text          0x9d02e708       0x18 c:/program files (x86)/microchip/xc32/v1.43/bin/bin/../../lib/gcc/pic32mx/4.8.3/../../../../pic32mx/lib\libpic32.a(default-nmi-handler.o)
                0x9d02e708                _nmi_handler

.text.SYS_DEVCON_Initialize
                0x9d02e720       0x14
 .text.SYS_DEVCON_Initialize
                0x9d02e720       0x14 build/default/debug/_ext/340578644/sys_devcon.o
                0x9d02e720                SYS_DEVCON_Initialize

.text.SYS_INT_Initialize
                0x9d02e734       0x14
 .text.SYS_INT_Initialize
                0x9d02e734       0x14 build/default/debug/_ext/1670183176/sys_int_pic32.o
                0x9d02e734                SYS_INT_Initialize

.text.DRV_EXTPHY_MIIConfigure
                0x9d02e748       0x10
 .text.DRV_EXTPHY_MIIConfigure
                0x9d02e748       0x10 build/default/debug/_ext/573518448/drv_extphy_smsc8720.o

.rodata         0x9d02e758       0x10
 .rodata        0x9d02e758       0x10 build/default/debug/_ext/573518448/drv_extphy_smsc8720.o
                0x9d02e758                DRV_ETHPHY_OBJECT_SMSC_LAN8720

.text.TCPIP_ARP_HashKeyCopy
                0x9d02e768       0x10
 .text.TCPIP_ARP_HashKeyCopy
                0x9d02e768       0x10 build/default/debug/_ext/1836803193/arp.o
                0x9d02e768                TCPIP_ARP_HashKeyCopy

.text._FieldSetUserStart
                0x9d02e778       0x10
 .text._FieldSetUserStart
                0x9d02e778       0x10 build/default/debug/_ext/1836803193/tcpip_announce.o
                0x9d02e778                _FieldSetUserStart

.text.TCPIP_Helper_SingleListInitialize
                0x9d02e788       0x10
 .text.TCPIP_Helper_SingleListInitialize
                0x9d02e788       0x10 build/default/debug/_ext/1836803193/tcpip_helpers.o
                0x9d02e788                TCPIP_Helper_SingleListInitialize

.text.__exception_handler_break
                0x9d02e798        0xc
 .text.__exception_handler_break
                0x9d02e798        0xc c:/program files (x86)/microchip/xc32/v1.43/bin/bin/../../lib/gcc/pic32mx/4.8.3/../../../../pic32mx/lib\software-debug-break.o
                0x9d02e798                __exception_handler_break

.text.SYS_CLK_SystemFrequencyGet
                0x9d02e7a4        0xc
 .text.SYS_CLK_SystemFrequencyGet
                0x9d02e7a4        0xc build/default/debug/_ext/639803181/sys_clk_pic32mx.o
                0x9d02e7a4                SYS_CLK_SystemFrequencyGet

.text.SYS_CLK_PeripheralFrequencyGet
                0x9d02e7b0        0xc
 .text.SYS_CLK_PeripheralFrequencyGet
                0x9d02e7b0        0xc build/default/debug/_ext/639803181/sys_clk_pic32mx.o
                0x9d02e7b0                SYS_CLK_PeripheralFrequencyGet

.text.DRV_ETHMAC_PIC32MACEventPendingGet
                0x9d02e7bc        0xc
 .text.DRV_ETHMAC_PIC32MACEventPendingGet
                0x9d02e7bc        0xc build/default/debug/_ext/1749672254/drv_ethmac.o
                0x9d02e7bc                DRV_ETHMAC_PIC32MACEventPendingGet

.text._DRV_ETHMAC_GetFrmTxOk
                0x9d02e7c8        0xc
 .text._DRV_ETHMAC_GetFrmTxOk
                0x9d02e7c8        0xc build/default/debug/_ext/1749672254/drv_ethmac.o

.text._DRV_ETHMAC_GetFrmRxOk
                0x9d02e7d4        0xc
 .text._DRV_ETHMAC_GetFrmRxOk
                0x9d02e7d4        0xc build/default/debug/_ext/1749672254/drv_ethmac.o

.text._DRV_ETHMAC_GetFrmPktCount
                0x9d02e7e0        0xc
 .text._DRV_ETHMAC_GetFrmPktCount
                0x9d02e7e0        0xc build/default/debug/_ext/1749672254/drv_ethmac.o

.text._DRV_ETHMAC_GetFrmRxOvflow
                0x9d02e7ec        0xc
 .text._DRV_ETHMAC_GetFrmRxOvflow
                0x9d02e7ec        0xc build/default/debug/_ext/1749672254/drv_ethmac.o

.text._DRV_ETHMAC_GetFrmFcsError
                0x9d02e7f8        0xc
 .text._DRV_ETHMAC_GetFrmFcsError
                0x9d02e7f8        0xc build/default/debug/_ext/1749672254/drv_ethmac.o

.text._DRV_ETHMAC_GetAlignError
                0x9d02e804        0xc
 .text._DRV_ETHMAC_GetAlignError
                0x9d02e804        0xc build/default/debug/_ext/1749672254/drv_ethmac.o

.text._DRV_ETHMAC_GetSCollisionCount
                0x9d02e810        0xc
 .text._DRV_ETHMAC_GetSCollisionCount
                0x9d02e810        0xc build/default/debug/_ext/1749672254/drv_ethmac.o

.text._DRV_ETHMAC_GetMCollisionCount
                0x9d02e81c        0xc
 .text._DRV_ETHMAC_GetMCollisionCount
                0x9d02e81c        0xc build/default/debug/_ext/1749672254/drv_ethmac.o

.text.DRV_EXTPHY_SMIClockGet
                0x9d02e828        0xc
 .text.DRV_EXTPHY_SMIClockGet
                0x9d02e828        0xc build/default/debug/_ext/573518448/drv_extphy_smsc8720.o

.text.TCPIP_STACK_NumberOfNetworksGet
                0x9d02e834        0xc
 .text.TCPIP_STACK_NumberOfNetworksGet
                0x9d02e834        0xc build/default/debug/_ext/1836803193/tcpip_manager.o
                0x9d02e834                TCPIP_STACK_NumberOfNetworksGet

.text.TCPIP_STACK_NetBIOSName
                0x9d02e840        0xc
 .text.TCPIP_STACK_NetBIOSName
                0x9d02e840        0xc build/default/debug/_ext/1836803193/tcpip_manager.o
                0x9d02e840                TCPIP_STACK_NetBIOSName

.text._TCPIPStackAddressServiceIsRunning
                0x9d02e84c        0xc
 .text._TCPIPStackAddressServiceIsRunning
                0x9d02e84c        0xc build/default/debug/_ext/1836803193/tcpip_manager.o
                0x9d02e84c                _TCPIPStackAddressServiceIsRunning

.text.AppPhyResetFunction
                0x9d02e858        0x8
 .text.AppPhyResetFunction
                0x9d02e858        0x8 build/default/debug/_ext/1360937237/app.o
                0x9d02e858                AppPhyResetFunction

.text.DRV_ETHMAC_PIC32MACReinitialize
                0x9d02e860        0x8
 .text.DRV_ETHMAC_PIC32MACReinitialize
                0x9d02e860        0x8 build/default/debug/_ext/1749672254/drv_ethmac.o
                0x9d02e860                DRV_ETHMAC_PIC32MACReinitialize

.text.DRV_ETHMAC_PIC32MACPowerMode
                0x9d02e868        0x8
 .text.DRV_ETHMAC_PIC32MACPowerMode
                0x9d02e868        0x8 build/default/debug/_ext/1749672254/drv_ethmac.o
                0x9d02e868                DRV_ETHMAC_PIC32MACPowerMode

.text._DRV_ETHPHY_ClientOpNone
                0x9d02e870        0x8
 .text._DRV_ETHPHY_ClientOpNone
                0x9d02e870        0x8 build/default/debug/_ext/573518448/drv_ethphy.o

.text.DRV_ETHPHY_SMIRead
                0x9d02e878        0x8
 .text.DRV_ETHPHY_SMIRead
                0x9d02e878        0x8 build/default/debug/_ext/573518448/drv_ethphy.o
                0x9d02e878                DRV_ETHPHY_SMIRead

.text.DRV_ETHPHY_SMIWrite
                0x9d02e880        0x8
 .text.DRV_ETHPHY_SMIWrite
                0x9d02e880        0x8 build/default/debug/_ext/573518448/drv_ethphy.o
                0x9d02e880                DRV_ETHPHY_SMIWrite

.text.DRV_ETHPHY_SMIScanStart
                0x9d02e888        0x8
 .text.DRV_ETHPHY_SMIScanStart
                0x9d02e888        0x8 build/default/debug/_ext/573518448/drv_ethphy.o
                0x9d02e888                DRV_ETHPHY_SMIScanStart

.text.DRV_ETHPHY_SMIScanStop
                0x9d02e890        0x8
 .text.DRV_ETHPHY_SMIScanStop
                0x9d02e890        0x8 build/default/debug/_ext/573518448/drv_ethphy.o
                0x9d02e890                DRV_ETHPHY_SMIScanStop

.text.DRV_ETHPHY_SMIScanStatusGet
                0x9d02e898        0x8
 .text.DRV_ETHPHY_SMIScanStatusGet
                0x9d02e898        0x8 build/default/debug/_ext/573518448/drv_ethphy.o
                0x9d02e898                DRV_ETHPHY_SMIScanStatusGet

.text.DRV_ETHPHY_SMIScanDataGet
                0x9d02e8a0        0x8
 .text.DRV_ETHPHY_SMIScanDataGet
                0x9d02e8a0        0x8 build/default/debug/_ext/573518448/drv_ethphy.o
                0x9d02e8a0                DRV_ETHPHY_SMIScanDataGet

.text.DRV_ETHPHY_SMIStatus
                0x9d02e8a8        0x8
 .text.DRV_ETHPHY_SMIStatus
                0x9d02e8a8        0x8 build/default/debug/_ext/573518448/drv_ethphy.o
                0x9d02e8a8                DRV_ETHPHY_SMIStatus

.text.DRV_ETHPHY_SMIClockSet
                0x9d02e8b0        0x8
 .text.DRV_ETHPHY_SMIClockSet
                0x9d02e8b0        0x8 build/default/debug/_ext/573518448/drv_ethphy.o
                0x9d02e8b0                DRV_ETHPHY_SMIClockSet

.text.DRV_MIIM_Reinitialize
                0x9d02e8b8        0x8
 .text.DRV_MIIM_Reinitialize
                0x9d02e8b8        0x8 build/default/debug/_ext/1568515672/drv_miim.o
                0x9d02e8b8                DRV_MIIM_Reinitialize

.text.GetCommandCharacter
                0x9d02e8c0        0x8
 .text.GetCommandCharacter
                0x9d02e8c0        0x8 build/default/debug/_ext/1167192164/sys_command.o

.text.SYS_DEBUG_ErrorLevelGet
                0x9d02e8c8        0x8
 .text.SYS_DEBUG_ErrorLevelGet
                0x9d02e8c8        0x8 build/default/debug/_ext/429005716/sys_debug.o
                0x9d02e8c8                SYS_DEBUG_ErrorLevelGet

.text.TCPIP_IPV4_IsFragmentationEnabled
                0x9d02e8d0        0x8
 .text.TCPIP_IPV4_IsFragmentationEnabled
                0x9d02e8d0        0x8 build/default/debug/_ext/1836803193/ipv4.o
                0x9d02e8d0                TCPIP_IPV4_IsFragmentationEnabled

.text.TCPIP_TCP_SocketsNumberGet
                0x9d02e8d8        0x8
 .text.TCPIP_TCP_SocketsNumberGet
                0x9d02e8d8        0x8 build/default/debug/_ext/1836803193/tcp.o
                0x9d02e8d8                TCPIP_TCP_SocketsNumberGet

.text.TCPIP_UDP_SocketsNumberGet
                0x9d02e8e0        0x8
 .text.TCPIP_UDP_SocketsNumberGet
                0x9d02e8e0        0x8 build/default/debug/_ext/1836803193/udp.o
                0x9d02e8e0                TCPIP_UDP_SocketsNumberGet

.text._TCPIP_HEAP_BufferMapNonCached
                0x9d02e8e8        0x8
 .text._TCPIP_HEAP_BufferMapNonCached
                0x9d02e8e8        0x8 build/default/debug/_ext/1836803193/tcpip_heap_alloc.o
                0x9d02e8e8                _TCPIP_HEAP_BufferMapNonCached

.text.TCPIP_HEAP_TraceGetEntry
                0x9d02e8f0        0x8
 .text.TCPIP_HEAP_TraceGetEntry
                0x9d02e8f0        0x8 build/default/debug/_ext/1836803193/tcpip_heap_alloc.o
                0x9d02e8f0                TCPIP_HEAP_TraceGetEntry

.text.TCPIP_HEAP_TraceGetEntriesNo
                0x9d02e8f8        0x8
 .text.TCPIP_HEAP_TraceGetEntriesNo
                0x9d02e8f8        0x8 build/default/debug/_ext/1836803193/tcpip_heap_alloc.o
                0x9d02e8f8                TCPIP_HEAP_TraceGetEntriesNo

.text.TCPIP_HEAP_DistGetEntry
                0x9d02e900        0x8
 .text.TCPIP_HEAP_DistGetEntry
                0x9d02e900        0x8 build/default/debug/_ext/1836803193/tcpip_heap_alloc.o
                0x9d02e900                TCPIP_HEAP_DistGetEntry

.text.TCPIP_HEAP_DistGetEntriesNo
                0x9d02e908        0x8
 .text.TCPIP_HEAP_DistGetEntriesNo
                0x9d02e908        0x8 build/default/debug/_ext/1836803193/tcpip_heap_alloc.o
                0x9d02e908                TCPIP_HEAP_DistGetEntriesNo

.text._DHCPOptionProcessEnd
                0x9d02e910        0x8
 .text._DHCPOptionProcessEnd
                0x9d02e910        0x8 build/default/debug/_ext/1836803193/dhcp.o

.text._FieldSetNone
                0x9d02e918        0x8
 .text._FieldSetNone
                0x9d02e918        0x8 build/default/debug/_ext/1836803193/tcpip_announce.o
                0x9d02e918                _FieldSetNone

.text.TCPIP_STACK_NetDefaultGet
                0x9d02e920        0x8
 .text.TCPIP_STACK_NetDefaultGet
                0x9d02e920        0x8 build/default/debug/_ext/1836803193/tcpip_manager.o
                0x9d02e920                TCPIP_STACK_NetDefaultGet

.text.TCPIP_STACK_NetGetType
                0x9d02e928        0x8
 .text.TCPIP_STACK_NetGetType
                0x9d02e928        0x8 build/default/debug/_ext/1836803193/tcpip_manager.o
                0x9d02e928                TCPIP_STACK_NetGetType

.text.TCPIP_PKT_Deinitialize
                0x9d02e930        0x8
 .text.TCPIP_PKT_Deinitialize
                0x9d02e930        0x8 build/default/debug/_ext/1836803193/tcpip_packet.o
                0x9d02e930                TCPIP_PKT_Deinitialize

.text._on_reset
                0x9d02e938        0x8
 .text._on_reset
                0x9d02e938        0x8 c:/program files (x86)/microchip/xc32/v1.43/bin/bin/../../lib/gcc/pic32mx/4.8.3/../../../../pic32mx/lib\libpic32.a(default-on-reset.o)
                0x9d02e938                _on_reset

.text._on_bootstrap
                0x9d02e940        0x8
 .text._on_bootstrap
                0x9d02e940        0x8 c:/program files (x86)/microchip/xc32/v1.43/bin/bin/../../lib/gcc/pic32mx/4.8.3/../../../../pic32mx/lib\libpic32.a(default-on-bootstrap.o)
                0x9d02e940                _on_bootstrap

.rodata         0x9d02e948        0x8
 .rodata        0x9d02e948        0x8 c:/program files (x86)/microchip/xc32/v1.43/bin/bin/../../lib/gcc/pic32mx/4.8.3\libgcc.a(floatunsidf.o)
